

Microchip MPLAB XC8 Assembler V2.40 build 20220703182018 
                                                                                               Thu Jun 08 15:23:52 2023

Microchip MPLAB XC8 C Compiler v2.40 (Free license) build 20220703182018 Og1 
     1                           	processor	18F25K22
     2                           	fnconf	rparam,??,?,0
     3                           	pagewidth 120
     4                           	opt	flic
     5                           	psect	idataBANK0,global,class=CODE,delta=1,noexec
     6                           	psect	cinit,global,reloc=2,class=CODE,delta=1
     7                           	psect	bssCOMRAM,global,class=COMRAM,space=1,delta=1,lowdata,noexec
     8                           	psect	bssBANK0,global,class=BANK0,space=1,delta=1,lowdata,noexec
     9                           	psect	dataBANK0,global,class=BANK0,space=1,delta=1,lowdata,noexec
    10                           	psect	cstackBANK0,global,class=BANK0,space=1,delta=1,lowdata,noexec
    11                           	psect	cstackCOMRAM,global,class=COMRAM,space=1,delta=1,lowdata,noexec
    12                           	psect	text0,global,reloc=2,class=CODE,delta=1
    13                           	psect	text1,global,reloc=2,class=CODE,delta=1
    14                           	psect	text2,global,reloc=2,class=CODE,delta=1
    15                           	psect	text3,global,reloc=2,class=CODE,delta=1,group=1
    16                           	psect	text4,global,reloc=2,class=CODE,delta=1
    17                           	psect	text5,global,reloc=2,class=CODE,delta=1
    18                           	psect	text6,global,reloc=2,class=CODE,delta=1
    19                           	psect	text7,global,reloc=2,class=CODE,delta=1
    20                           	psect	text8,global,reloc=2,class=CODE,delta=1
    21                           	psect	text9,global,reloc=2,class=CODE,delta=1
    22                           	psect	text10,global,reloc=2,class=CODE,delta=1
    23                           	psect	text11,global,reloc=2,class=CODE,delta=1
    24                           	psect	text12,global,reloc=2,class=CODE,delta=1
    25                           	psect	text13,global,reloc=2,class=CODE,delta=1
    26                           	psect	text14,global,reloc=2,class=CODE,delta=1
    27                           	psect	text15,global,reloc=2,class=CODE,delta=1
    28                           	psect	text16,global,reloc=2,class=CODE,delta=1
    29                           	psect	text17,global,reloc=2,class=CODE,delta=1
    30                           	psect	text18,global,reloc=2,class=CODE,delta=1
    31                           	psect	text19,global,reloc=2,class=CODE,delta=1
    32                           	psect	text20,global,reloc=2,class=CODE,delta=1
    33                           	psect	text21,global,reloc=2,class=CODE,delta=1
    34                           	psect	text22,global,reloc=2,class=CODE,delta=1
    35                           	psect	text23,global,reloc=2,class=CODE,delta=1
    36                           	psect	text24,global,reloc=2,class=CODE,delta=1
    37                           	psect	text25,global,reloc=2,class=CODE,delta=1
    38                           	psect	text26,global,reloc=2,class=CODE,delta=1
    39                           	psect	text27,global,reloc=2,class=CODE,delta=1,group=1
    40                           	psect	text28,global,reloc=2,class=CODE,delta=1,group=1
    41                           	psect	text29,global,reloc=2,class=CODE,delta=1
    42                           	psect	text30,global,reloc=2,class=CODE,delta=1
    43                           	psect	intcodelo,global,reloc=2,class=CODE,delta=1
    44                           	psect	intcode,global,reloc=2,class=CODE,delta=1
    45                           	psect	intcode_body,global,reloc=2,class=CODE,delta=1
    46                           	psect	intsave_regs,global,class=BIGRAM,space=1,delta=1,noexec
    47                           	psect	rparam,global,class=COMRAM,space=1,delta=1,noexec
    48                           	psect	temp,global,ovrld,common,class=COMRAM,space=1,delta=1
    49                           	psect	idloc,global,abs,ovrld,class=IDLOC,space=5,delta=1,noexec
    50                           	psect	config,global,abs,ovrld,class=CONFIG,space=4,delta=1,noexec
    51   000000                     
    52                           ; Version 2.40
    53                           ; Generated 04/07/2022 GMT
    54                           ; 
    55                           ; Copyright © 2022, Microchip Technology Inc. and its subsidiaries ("Microchip")
    56                           ; All rights reserved.
    57                           ; 
    58                           ; This software is developed by Microchip Technology Inc. and its subsidiaries ("Microch
      +                          ip").
    59                           ; 
    60                           ; Redistribution and use in source and binary forms, with or without modification, are
    61                           ; permitted provided that the following conditions are met:
    62                           ; 
    63                           ;     1. Redistributions of source code must retain the above copyright notice, this lis
      +                          t of
    64                           ;        conditions and the following disclaimer.
    65                           ; 
    66                           ;     2. Redistributions in binary form must reproduce the above copyright notice, this 
      +                          list
    67                           ;        of conditions and the following disclaimer in the documentation and/or other
    68                           ;        materials provided with the distribution. Publication is not required when
    69                           ;        this file is used in an embedded application.
    70                           ; 
    71                           ;     3. Microchip's name may not be used to endorse or promote products derived from th
      +                          is
    72                           ;        software without specific prior written permission.
    73                           ; 
    74                           ; THIS SOFTWARE IS PROVIDED BY MICROCHIP "AS IS" AND ANY EXPRESS OR IMPLIED WARRANTIES,
    75                           ; INCLUDING, BUT NOT LIMITED TO, THE IMPLIED WARRANTIES OF MERCHANTABILITY AND FITNESS F
      +                          OR
    76                           ; PURPOSE ARE DISCLAIMED.  IN NO EVENT SHALL MICROCHIP BE LIABLE FOR ANY DIRECT, INDIREC
      +                          T,
    77                           ; INCIDENTAL, SPECIAL, EXEMPLARY, OR CONSEQUENTIAL DAMAGES (INCLUDING BUT NOT LIMITED TO
    78                           ; PROCUREMENT OF SUBSTITUTE GOODS OR SERVICES; LOSS OF USE, DATA OR PROFITS; OR BUSINESS
    79                           ; INTERRUPTION) HOWSOEVER CAUSED AND ON ANY THEORY OF LIABILITY, WHETHER IN CONTRACT, ST
      +                          RICT
    80                           ; LIABILITY, OR TORT (INCLUDING NEGLIGENCE OR OTHERWISE) ARISING IN ANY WAY OUT OF THE U
      +                          SE OF
    81                           ; THIS SOFTWARE, EVEN IF ADVISED OF THE POSSIBILITY OF SUCH DAMAGE.
    82                           ; 
    83                           ; 
    84                           ; Code-generator required, PIC18F25K22 Definitions
    85                           ; 
    86                           ; SFR Addresses
    87   000000                     
    88                           	psect	idataBANK0
    89   004980                     __pidataBANK0:
    90                           	callstack 0
    91                           
    92                           ;initializer for _z
    93   004980  0096               	dw	150
    94   000000                     _RCONbits	set	4048
    95   000000                     _TMR0L	set	4054
    96   000000                     _TMR0H	set	4055
    97   000000                     _TMR1H	set	4047
    98   000000                     _EECON2	set	4007
    99   000000                     _PORTA	set	3968
   100   000000                     _TRISA	set	3986
   101   000000                     _PORTB	set	3969
   102   000000                     _ANSELC	set	3898
   103   000000                     _ANSELB	set	3897
   104   000000                     _ANSELA	set	3896
   105   000000                     _PORTAbits	set	3968
   106   000000                     _INTCONbits	set	4082
   107   000000                     _TRISAbits	set	3986
   108   000000                     _PORTC	set	3970
   109   000000                     _PORTBbits	set	3969
   110   000000                     _PIE1bits	set	3997
   111   000000                     _PIR1bits	set	3998
   112   000000                     _EECON1bits	set	4006
   113   000000                     _EEDATA	set	4008
   114   000000                     _EEADR	set	4009
   115   000000                     _T1CONbits	set	4045
   116   000000                     _TMR1L	set	4046
   117   000000                     _WDTCONbits	set	4049
   118   000000                     _IPR1bits	set	3999
   119   000000                     _T0CONbits	set	4053
   120   000000                     _INTCON2bits	set	4081
   121   000000                     _TRISC	set	3988
   122   000000                     _TRISB	set	3987
   123                           
   124                           ; #config settings
   125                           
   126                           	psect	cinit
   127   0047F8                     __pcinit:
   128                           	callstack 0
   129   0047F8                     start_initialization:
   130                           	callstack 0
   131   0047F8                     __initialization:
   132                           	callstack 0
   133                           
   134                           ; Initialize objects allocated to BANK0 (2 bytes)
   135                           ; load TBLPTR registers with __pidataBANK0
   136   0047F8  0E80               	movlw	low __pidataBANK0
   137   0047FA  6EF6               	movwf	tblptrl,c
   138   0047FC  0E49               	movlw	high __pidataBANK0
   139   0047FE  6EF7               	movwf	tblptrh,c
   140   004800  0E00               	movlw	low (__pidataBANK0 shr (0+16))
   141   004802  6EF8               	movwf	tblptru,c
   142   004804  0009               	tblrd		*+	;fetch initializer
   143   004806  CFF5 F0E7          	movff	tablat,__pdataBANK0
   144   00480A  0009               	tblrd		*+	;fetch initializer
   145   00480C  CFF5 F0E8          	movff	tablat,__pdataBANK0+1
   146                           
   147                           ; Clear objects allocated to BANK0 (131 bytes)
   148   004810  EE00  F060         	lfsr	0,__pbssBANK0
   149   004814  0E83               	movlw	131
   150   004816                     clear_0:
   151   004816  6AEE               	clrf	postinc0,c
   152   004818  06E8               	decf	wreg,f,c
   153   00481A  E1FD               	bnz	clear_0
   154                           
   155                           ; Clear objects allocated to COMRAM (64 bytes)
   156   00481C  EE00  F001         	lfsr	0,__pbssCOMRAM
   157   004820  0E40               	movlw	64
   158   004822                     clear_1:
   159   004822  6AEE               	clrf	postinc0,c
   160   004824  06E8               	decf	wreg,f,c
   161   004826  E1FD               	bnz	clear_1
   162   004828                     end_of_initialization:
   163                           	callstack 0
   164   004828                     __end_of__initialization:
   165                           	callstack 0
   166   004828  9057               	bcf	int$flags,0,c	;clear compiler interrupt flag (level 1)
   167   00482A  9257               	bcf	int$flags,1,c	;clear compiler interrupt flag (level 2)
   168   00482C  0E00               	movlw	low (__Lmediumconst shr (0+16))
   169   00482E  6EF8               	movwf	tblptru,c
   170   004830  0100               	movlb	0
   171   004832  EF34  F014         	goto	_main	;jump to C main() function
   172                           
   173                           	psect	bssCOMRAM
   174   000001                     __pbssCOMRAM:
   175                           	callstack 0
   176   000001                     _dig:
   177                           	callstack 0
   178   000001                     	ds	10
   179   00000B                     _salPotencia:
   180                           	callstack 0
   181   00000B                     	ds	2
   182   00000D                     _t:
   183                           	callstack 0
   184   00000D                     	ds	1
   185   00000E                     _u:
   186                           	callstack 0
   187   00000E                     	ds	1
   188   00000F                     _n:
   189                           	callstack 0
   190   00000F                     	ds	1
   191   000010                     _k:
   192                           	callstack 0
   193   000010                     	ds	1
   194   000011                     _j:
   195                           	callstack 0
   196   000011                     	ds	1
   197   000012                     _presencia2:
   198                           	callstack 0
   199   000012                     	ds	1
   200   000013                     _presencia1:
   201                           	callstack 0
   202   000013                     	ds	1
   203   000014                     _aux21:
   204                           	callstack 0
   205   000014                     	ds	1
   206   000015                     _aux11:
   207                           	callstack 0
   208   000015                     	ds	1
   209   000016                     _alarmaLampAux:
   210                           	callstack 0
   211   000016                     	ds	1
   212   000017                     _alarmaLamp2:
   213                           	callstack 0
   214   000017                     	ds	1
   215   000018                     _alarmaLamp1:
   216                           	callstack 0
   217   000018                     	ds	1
   218   000019                     _aux2:
   219                           	callstack 0
   220   000019                     	ds	1
   221   00001A                     _aux1:
   222                           	callstack 0
   223   00001A                     	ds	1
   224   00001B                     _lectura2:
   225                           	callstack 0
   226   00001B                     	ds	1
   227   00001C                     _lectura1:
   228                           	callstack 0
   229   00001C                     	ds	1
   230   00001D                     _alarma1:
   231                           	callstack 0
   232   00001D                     	ds	1
   233   00001E                     _alarma2:
   234                           	callstack 0
   235   00001E                     	ds	1
   236   00001F                     _auxPass:
   237                           	callstack 0
   238   00001F                     	ds	1
   239   000020                     _i:
   240                           	callstack 0
   241   000020                     	ds	1
   242   000021                     _offSet1:
   243                           	callstack 0
   244   000021                     	ds	1
   245   000022                     _offSet2:
   246                           	callstack 0
   247   000022                     	ds	1
   248   000023                     _alarmLect2:
   249                           	callstack 0
   250   000023                     	ds	1
   251   000024                     _alarmLect1:
   252                           	callstack 0
   253   000024                     	ds	1
   254   000025                     _l:
   255                           	callstack 0
   256   000025                     	ds	1
   257   000026                     _q:
   258                           	callstack 0
   259   000026                     	ds	1
   260   000027                     _OFFSet:
   261                           	callstack 0
   262   000027                     	ds	1
   263   000028                     _deciSP:
   264                           	callstack 0
   265   000028                     	ds	1
   266   000029                     _y:
   267                           	callstack 0
   268   000029                     	ds	1
   269   00002A                     _pass2:
   270                           	callstack 0
   271   00002A                     	ds	1
   272   00002B                     _pass1:
   273                           	callstack 0
   274   00002B                     	ds	1
   275   00002C                     _pass0:
   276                           	callstack 0
   277   00002C                     	ds	1
   278   00002D                     _pass:
   279                           	callstack 0
   280   00002D                     	ds	1
   281   00002E                     _setDefault:
   282                           	callstack 0
   283   00002E                     	ds	1
   284   00002F                     _offSet:
   285                           	callstack 0
   286   00002F                     	ds	1
   287   000030                     _selMenu:
   288                           	callstack 0
   289   000030                     	ds	1
   290   000031                     _salPotenciaAnterior:
   291                           	callstack 0
   292   000031                     	ds	1
   293   000032                     _tempMuestra:
   294                           	callstack 0
   295   000032                     	ds	1
   296   000033                     _setPotMan:
   297                           	callstack 0
   298   000033                     	ds	1
   299   000034                     _setPointAUX:
   300                           	callstack 0
   301   000034                     	ds	1
   302   000035                     _tempNeg:
   303                           	callstack 0
   304   000035                     	ds	1
   305   000036                     _tempDecimal:
   306                           	callstack 0
   307   000036                     	ds	1
   308   000037                     _tempDisplay:
   309                           	callstack 0
   310   000037                     	ds	1
   311   000038                     _SPFxAlt:
   312                           	callstack 0
   313   000038                     	ds	1
   314   000039                     _alarmaFxAlt:
   315                           	callstack 0
   316   000039                     	ds	1
   317   00003A                     _SPFxBaj:
   318                           	callstack 0
   319   00003A                     	ds	1
   320   00003B                     _alarmaFxBaj:
   321                           	callstack 0
   322   00003B                     	ds	1
   323   00003C                     _SPFxSen:
   324                           	callstack 0
   325   00003C                     	ds	1
   326   00003D                     _alarmaFxSen:
   327                           	callstack 0
   328   00003D                     	ds	1
   329   00003E                     _CTRauto:
   330                           	callstack 0
   331   00003E                     	ds	1
   332   00003F                     _tecla:
   333                           	callstack 0
   334   00003F                     	ds	1
   335   000040                     _setPoint:
   336                           	callstack 0
   337   000040                     	ds	1
   338                           
   339                           	psect	bssBANK0
   340   000060                     __pbssBANK0:
   341                           	callstack 0
   342   000060                     _lectScrat2:
   343                           	callstack 0
   344   000060                     	ds	9
   345   000069                     _lectScrat1:
   346                           	callstack 0
   347   000069                     	ds	9
   348   000072                     _parametros:
   349                           	callstack 0
   350   000072                     	ds	8
   351   00007A                     _lectRom2:
   352                           	callstack 0
   353   00007A                     	ds	8
   354   000082                     _lectRom1:
   355                           	callstack 0
   356   000082                     	ds	8
   357   00008A                     _tiempoAlarma:
   358                           	callstack 0
   359   00008A                     	ds	4
   360   00008E                     _alarmaSen2AUX:
   361                           	callstack 0
   362   00008E                     	ds	2
   363   000090                     _alarmaSen1AUX:
   364                           	callstack 0
   365   000090                     	ds	2
   366   000092                     _conversion2:
   367                           	callstack 0
   368   000092                     	ds	2
   369   000094                     _conversion1:
   370                           	callstack 0
   371   000094                     	ds	2
   372   000096                     _alarmaSenAUX:
   373                           	callstack 0
   374   000096                     	ds	2
   375   000098                     _denominador:
   376                           	callstack 0
   377   000098                     	ds	2
   378   00009A                     _salPotenciaAux:
   379                           	callstack 0
   380   00009A                     	ds	2
   381   00009C                     _enter:
   382                           	callstack 0
   383   00009C                     	ds	2
   384   00009E                     _resetWatch:
   385                           	callstack 0
   386   00009E                     	ds	2
   387   0000A0                     _crc_carry2:
   388                           	callstack 0
   389   0000A0                     	ds	1
   390   0000A1                     _byte_carry2:
   391                           	callstack 0
   392   0000A1                     	ds	1
   393   0000A2                     _byte2:
   394                           	callstack 0
   395   0000A2                     	ds	1
   396   0000A3                     _crc_carry1:
   397                           	callstack 0
   398   0000A3                     	ds	1
   399   0000A4                     _byte_carry1:
   400                           	callstack 0
   401   0000A4                     	ds	1
   402   0000A5                     _byte1:
   403                           	callstack 0
   404   0000A5                     	ds	1
   405   0000A6                     _poli:
   406                           	callstack 0
   407   0000A6                     	ds	1
   408   0000A7                     _crc2:
   409                           	callstack 0
   410   0000A7                     	ds	1
   411   0000A8                     _crc1:
   412                           	callstack 0
   413   0000A8                     	ds	1
   414   0000A9                     _sens:
   415                           	callstack 0
   416   0000A9                     	ds	1
   417   0000AA                     _rdByte2:
   418                           	callstack 0
   419   0000AA                     	ds	1
   420   0000AB                     _wrByte2:
   421                           	callstack 0
   422   0000AB                     	ds	1
   423   0000AC                     _rdBit2:
   424                           	callstack 0
   425   0000AC                     	ds	1
   426   0000AD                     _rdByte1:
   427                           	callstack 0
   428   0000AD                     	ds	1
   429   0000AE                     _wrByte1:
   430                           	callstack 0
   431   0000AE                     	ds	1
   432   0000AF                     _rdBit1:
   433                           	callstack 0
   434   0000AF                     	ds	1
   435   0000B0                     _tempAux:
   436                           	callstack 0
   437   0000B0                     	ds	1
   438   0000B1                     _lectffscrat:
   439                           	callstack 0
   440   0000B1                     	ds	1
   441   0000B2                     _lect00scrat:
   442                           	callstack 0
   443   0000B2                     	ds	1
   444   0000B3                     _auxfallatemp2:
   445                           	callstack 0
   446   0000B3                     	ds	1
   447   0000B4                     _auxfallatemp1:
   448                           	callstack 0
   449   0000B4                     	ds	1
   450   0000B5                     _auxRSTsensor:
   451                           	callstack 0
   452   0000B5                     	ds	1
   453   0000B6                     _aux20:
   454                           	callstack 0
   455   0000B6                     	ds	1
   456   0000B7                     _aux10:
   457                           	callstack 0
   458   0000B7                     	ds	1
   459   0000B8                     _teclaAUX:
   460                           	callstack 0
   461   0000B8                     	ds	1
   462   0000B9                     _pilotoSensorAUX:
   463                           	callstack 0
   464   0000B9                     	ds	1
   465   0000BA                     _ManAuto:
   466                           	callstack 0
   467   0000BA                     	ds	1
   468   0000BB                     _flagLED:
   469                           	callstack 0
   470   0000BB                     	ds	1
   471   0000BC                     _pilotoAlarmaAUX:
   472                           	callstack 0
   473   0000BC                     	ds	1
   474   0000BD                     _alarmaSensor2:
   475                           	callstack 0
   476   0000BD                     	ds	1
   477   0000BE                     _alarmaSensor1:
   478                           	callstack 0
   479   0000BE                     	ds	1
   480   0000BF                     _estable:
   481                           	callstack 0
   482   0000BF                     	ds	1
   483   0000C0                     _ii:
   484                           	callstack 0
   485   0000C0                     	ds	1
   486   0000C1                     _auxDisp:
   487                           	callstack 0
   488   0000C1                     	ds	1
   489   0000C2                     _tempDeci2:
   490                           	callstack 0
   491   0000C2                     	ds	1
   492   0000C3                     _tempDeci1:
   493                           	callstack 0
   494   0000C3                     	ds	1
   495   0000C4                     _tempNeg2:
   496                           	callstack 0
   497   0000C4                     	ds	1
   498   0000C5                     _tempNeg1:
   499                           	callstack 0
   500   0000C5                     	ds	1
   501   0000C6                     _convTemp2:
   502                           	callstack 0
   503   0000C6                     	ds	1
   504   0000C7                     _deciTemp2:
   505                           	callstack 0
   506   0000C7                     	ds	1
   507   0000C8                     _convTemp1:
   508                           	callstack 0
   509   0000C8                     	ds	1
   510   0000C9                     _deciTemp1:
   511                           	callstack 0
   512   0000C9                     	ds	1
   513   0000CA                     _operacion:
   514                           	callstack 0
   515   0000CA                     	ds	1
   516   0000CB                     _nsen:
   517                           	callstack 0
   518   0000CB                     	ds	1
   519   0000CC                     _auxoffSet:
   520                           	callstack 0
   521   0000CC                     	ds	1
   522   0000CD                     _potSal:
   523                           	callstack 0
   524   0000CD                     	ds	1
   525   0000CE                     _alarmaLectura:
   526                           	callstack 0
   527   0000CE                     	ds	1
   528   0000CF                     _tempProm:
   529                           	callstack 0
   530   0000CF                     	ds	1
   531   0000D0                     _tempAnterior:
   532                           	callstack 0
   533   0000D0                     	ds	1
   534   0000D1                     _r:
   535                           	callstack 0
   536   0000D1                     	ds	1
   537   0000D2                     _auxSetenFalla:
   538                           	callstack 0
   539   0000D2                     	ds	1
   540   0000D3                     _decimalOffSet:
   541                           	callstack 0
   542   0000D3                     	ds	1
   543   0000D4                     _tempDisplay1:
   544                           	callstack 0
   545   0000D4                     	ds	1
   546   0000D5                     _enteSP:
   547                           	callstack 0
   548   0000D5                     	ds	1
   549   0000D6                     _bcd:
   550                           	callstack 0
   551   0000D6                     	ds	1
   552   0000D7                     _digito:
   553                           	callstack 0
   554   0000D7                     	ds	1
   555   0000D8                     _dig1:
   556                           	callstack 0
   557   0000D8                     	ds	1
   558   0000D9                     _dig0:
   559                           	callstack 0
   560   0000D9                     	ds	1
   561   0000DA                     _valMem:
   562                           	callstack 0
   563   0000DA                     	ds	1
   564   0000DB                     _pilotoAlarma:
   565                           	callstack 0
   566   0000DB                     	ds	1
   567   0000DC                     _pilotoSensor:
   568                           	callstack 0
   569   0000DC                     	ds	1
   570   0000DD                     _w:
   571                           	callstack 0
   572   0000DD                     	ds	1
   573   0000DE                     _tempSpPv:
   574                           	callstack 0
   575   0000DE                     	ds	1
   576   0000DF                     _salPotenciaAux1:
   577                           	callstack 0
   578   0000DF                     	ds	1
   579   0000E0                     _salPotenciaAux0:
   580                           	callstack 0
   581   0000E0                     	ds	1
   582   0000E1                     _down:
   583                           	callstack 0
   584   0000E1                     	ds	1
   585   0000E2                     _up:
   586                           	callstack 0
   587   0000E2                     	ds	1
   588                           
   589                           	psect	dataBANK0
   590   0000E7                     __pdataBANK0:
   591                           	callstack 0
   592   0000E7                     _z:
   593                           	callstack 0
   594   0000E7                     	ds	2
   595                           
   596                           	psect	cstackBANK0
   597   0000E3                     __pcstackBANK0:
   598                           	callstack 0
   599   0000E3                     ??_display:
   600                           
   601                           ; 1 bytes @ 0x0
   602   0000E3                     	ds	4
   603                           
   604                           	psect	cstackCOMRAM
   605   000041                     __pcstackCOMRAM:
   606                           	callstack 0
   607   000041                     ??_myLoIsr:
   608   000041                     
   609                           ; 1 bytes @ 0x0
   610   000041                     	ds	7
   611   000048                     myLoIsr@a:
   612                           	callstack 0
   613                           
   614                           ; 1 bytes @ 0x7
   615   000048                     	ds	1
   616   000049                     ??_conversionTemp:
   617   000049                     ??_alarma:
   618   000049                     ??_conv:
   619   000049                     ??_conv7Seg:
   620   000049                     ?___wmul:
   621                           	callstack 0
   622   000049                     ?___awdiv:
   623                           	callstack 0
   624   000049                     ?___awmod:
   625                           	callstack 0
   626   000049                     wrEprom@dato:
   627                           	callstack 0
   628   000049                     writeByte1@comando:
   629                           	callstack 0
   630   000049                     writeByte2@comando:
   631                           	callstack 0
   632   000049                     readByte1@m:
   633                           	callstack 0
   634   000049                     readByte2@m:
   635                           	callstack 0
   636   000049                     crc81@m:
   637                           	callstack 0
   638   000049                     crc82@m:
   639                           	callstack 0
   640   000049                     ___wmul@multiplier:
   641                           	callstack 0
   642   000049                     ___awdiv@dividend:
   643                           	callstack 0
   644   000049                     ___awmod@dividend:
   645                           	callstack 0
   646                           
   647                           ; 2 bytes @ 0x8
   648   000049                     	ds	1
   649   00004A                     ??_readByte1:
   650   00004A                     ??_readByte2:
   651   00004A                     wrEprom@dir:
   652                           	callstack 0
   653   00004A                     crc81@scratRom:
   654                           	callstack 0
   655   00004A                     crc82@scratRom:
   656                           	callstack 0
   657                           
   658                           ; 1 bytes @ 0x9
   659   00004A                     	ds	1
   660   00004B                     ??_menu:
   661   00004B                     conv@dig:
   662                           	callstack 0
   663   00004B                     conv7Seg@dig:
   664                           	callstack 0
   665   00004B                     ___wmul@multiplicand:
   666                           	callstack 0
   667   00004B                     ___awdiv@divisor:
   668                           	callstack 0
   669   00004B                     ___awmod@divisor:
   670                           	callstack 0
   671                           
   672                           ; 2 bytes @ 0xA
   673   00004B                     	ds	1
   674   00004C                     readByte1@scratRom:
   675                           	callstack 0
   676   00004C                     readByte2@scratRom:
   677                           	callstack 0
   678                           
   679                           ; 1 bytes @ 0xB
   680   00004C                     	ds	1
   681   00004D                     ds1820@nsen:
   682                           	callstack 0
   683   00004D                     ___awdiv@counter:
   684                           	callstack 0
   685   00004D                     ___awmod@counter:
   686                           	callstack 0
   687   00004D                     ___wmul@product:
   688                           	callstack 0
   689                           
   690                           ; 2 bytes @ 0xC
   691   00004D                     	ds	1
   692   00004E                     ??_ds1820:
   693   00004E                     ___awdiv@sign:
   694                           	callstack 0
   695   00004E                     ___awmod@sign:
   696                           	callstack 0
   697                           
   698                           ; 1 bytes @ 0xD
   699   00004E                     	ds	1
   700   00004F                     ___awdiv@quotient:
   701                           	callstack 0
   702                           
   703                           ; 2 bytes @ 0xE
   704   00004F                     	ds	1
   705   000050                     ds1820@operacion:
   706                           	callstack 0
   707                           
   708                           ; 1 bytes @ 0xF
   709   000050                     	ds	1
   710   000051                     ??_calibracion:
   711   000051                     ??_salidaPotencia:
   712   000051                     convBCD@dign:
   713                           	callstack 0
   714                           
   715                           ; 1 bytes @ 0x10
   716   000051                     	ds	1
   717   000052                     convBCD@dignn:
   718                           	callstack 0
   719                           
   720                           ; 1 bytes @ 0x11
   721   000052                     	ds	1
   722   000053                     ??_inicializacion:
   723   000053                     convBCD@puntoDec:
   724                           	callstack 0
   725                           
   726                           ; 1 bytes @ 0x12
   727   000053                     	ds	1
   728   000054                     convBCD@bcd:
   729                           	callstack 0
   730                           
   731                           ; 1 bytes @ 0x13
   732   000054                     	ds	2
   733   000056                     ??_main:
   734                           
   735                           ; 1 bytes @ 0x15
   736   000056                     	ds	1
   737                           
   738 ;;
   739 ;;Main: autosize = 0, tempsize = 1, incstack = 0, save=0
   740 ;;
   741 ;; *************** function _main *****************
   742 ;; Defined at:
   743 ;;		line 530 in file "main.c"
   744 ;; Parameters:    Size  Location     Type
   745 ;;		None
   746 ;; Auto vars:     Size  Location     Type
   747 ;;		None
   748 ;; Return value:  Size  Location     Type
   749 ;;                  1    wreg      void 
   750 ;; Registers used:
   751 ;;		wreg, fsr1l, fsr1h, fsr2l, fsr2h, status,2, status,0, prodl, prodh, cstack
   752 ;; Tracked objects:
   753 ;;		On entry : 0/0
   754 ;;		On exit  : 0/0
   755 ;;		Unchanged: 0/0
   756 ;; Data sizes:     COMRAM   BANK0   BANK1   BANK2   BANK3   BANK4   BANK5
   757 ;;      Params:         0       0       0       0       0       0       0
   758 ;;      Locals:         0       0       0       0       0       0       0
   759 ;;      Temps:          1       0       0       0       0       0       0
   760 ;;      Totals:         1       0       0       0       0       0       0
   761 ;;Total ram usage:        1 bytes
   762 ;; Hardware stack levels required when called: 7
   763 ;; This function calls:
   764 ;;		_alarma
   765 ;;		_conversionTemp
   766 ;;		_display
   767 ;;		_ds1820
   768 ;;		_inicializacion
   769 ;;		_menu
   770 ;;		_salidaPotencia
   771 ;;		_teclado
   772 ;; This function is called by:
   773 ;;		Startup code after reset
   774 ;; This function uses a non-reentrant model
   775 ;;
   776                           
   777                           	psect	text0
   778   002868                     __ptext0:
   779                           	callstack 0
   780   002868                     _main:
   781                           	callstack 24
   782   002868                     
   783                           ;main.c: 532:         inicializacion ();
   784   002868  ECB5  F01D         	call	_inicializacion	;wreg free
   785   00286C                     l9651:
   786                           
   787                           ;main.c: 535:             resetWatch = 0;
   788   00286C  0E00               	movlw	0
   789   00286E  0100               	movlb	0	; () banked
   790   002870  6F9F               	movwf	(_resetWatch+1)& (0+255),b
   791   002872  0E00               	movlw	0
   792   002874  6F9E               	movwf	_resetWatch& (0+255),b
   793   002876                     
   794                           ; BSR set to: 0
   795                           ;main.c: 536:             INTCONbits.INT0E = 1;
   796   002876  88F2               	bsf	242,4,c	;volatile
   797   002878                     
   798                           ; BSR set to: 0
   799                           ;main.c: 537:             T0CONbits.TMR0ON = 0;
   800   002878  9ED5               	bcf	213,7,c	;volatile
   801   00287A                     
   802                           ; BSR set to: 0
   803                           ;main.c: 538:             menu();
   804   00287A  EC8D  F008         	call	_menu	;wreg free
   805   00287E                     
   806                           ;main.c: 539:             T0CONbits.TMR0ON = 1;
   807   00287E  8ED5               	bsf	213,7,c	;volatile
   808   002880                     
   809                           ;main.c: 541:             if((lectura1 >2)&&(lectura2>2)){
   810   002880  0E02               	movlw	2
   811   002882  641C               	cpfsgt	_lectura1^0,c
   812   002884  EF46  F014         	goto	u10881
   813   002888  EF48  F014         	goto	u10880
   814   00288C                     u10881:
   815   00288C  EF5D  F014         	goto	l9667
   816   002890                     u10880:
   817   002890  0E02               	movlw	2
   818   002892  641B               	cpfsgt	_lectura2^0,c
   819   002894  EF4E  F014         	goto	u10891
   820   002898  EF50  F014         	goto	u10890
   821   00289C                     u10891:
   822   00289C  EF5D  F014         	goto	l9667
   823   0028A0                     u10890:
   824   0028A0                     
   825                           ;main.c: 542:                 lectura1 = 0;
   826   0028A0  0E00               	movlw	0
   827   0028A2  6E1C               	movwf	_lectura1^0,c
   828                           
   829                           ;main.c: 543:                 lectura2 = 0;
   830   0028A4  0E00               	movlw	0
   831   0028A6  6E1B               	movwf	_lectura2^0,c
   832                           
   833                           ;main.c: 544:                 conversion1 = 0;
   834   0028A8  0E00               	movlw	0
   835   0028AA  0100               	movlb	0	; () banked
   836   0028AC  6F95               	movwf	(_conversion1+1)& (0+255),b
   837   0028AE  0E00               	movlw	0
   838   0028B0  6F94               	movwf	_conversion1& (0+255),b
   839                           
   840                           ;main.c: 545:                 conversion2 = 0 ;
   841   0028B2  0E00               	movlw	0
   842   0028B4  6F93               	movwf	(_conversion2+1)& (0+255),b
   843   0028B6  0E00               	movlw	0
   844   0028B8  6F92               	movwf	_conversion2& (0+255),b
   845   0028BA                     l9667:
   846                           
   847                           ;main.c: 548:             if ((conversion1 == 0) && (conversion2 == 0)){
   848   0028BA  0100               	movlb	0	; () banked
   849   0028BC  5194               	movf	_conversion1& (0+255),w,b
   850   0028BE  1195               	iorwf	(_conversion1+1)& (0+255),w,b
   851   0028C0  A4D8               	btfss	status,2,c
   852   0028C2  EF65  F014         	goto	u10901
   853   0028C6  EF67  F014         	goto	u10900
   854   0028CA                     u10901:
   855   0028CA  EF74  F014         	goto	l652
   856   0028CE                     u10900:
   857   0028CE                     
   858                           ; BSR set to: 0
   859   0028CE  5192               	movf	_conversion2& (0+255),w,b
   860   0028D0  1193               	iorwf	(_conversion2+1)& (0+255),w,b
   861   0028D2  A4D8               	btfss	status,2,c
   862   0028D4  EF6E  F014         	goto	u10911
   863   0028D8  EF70  F014         	goto	u10910
   864   0028DC                     u10911:
   865   0028DC  EF74  F014         	goto	l652
   866   0028E0                     u10910:
   867   0028E0                     
   868                           ; BSR set to: 0
   869                           ;main.c: 549:                 conversion1 = 1;
   870   0028E0  0E00               	movlw	0
   871   0028E2  6F95               	movwf	(_conversion1+1)& (0+255),b
   872   0028E4  0E01               	movlw	1
   873   0028E6  6F94               	movwf	_conversion1& (0+255),b
   874   0028E8                     l652:
   875                           
   876                           ; BSR set to: 0
   877   0028E8  501C               	movf	_lectura1^0,w,c
   878   0028EA  A4D8               	btfss	status,2,c
   879   0028EC  EF7A  F014         	goto	u10921
   880   0028F0  EF7C  F014         	goto	u10920
   881   0028F4                     u10921:
   882   0028F4  EF96  F014         	goto	l9681
   883   0028F8                     u10920:
   884   0028F8                     
   885                           ; BSR set to: 0
   886   0028F8  5195               	movf	(_conversion1+1)& (0+255),w,b
   887   0028FA  E109               	bnz	u10930
   888   0028FC  0E02               	movlw	2
   889   0028FE  5D94               	subwf	_conversion1& (0+255),w,b
   890   002900  A0D8               	btfss	status,0,c
   891   002902  EF85  F014         	goto	u10931
   892   002906  EF87  F014         	goto	u10930
   893   00290A                     u10931:
   894   00290A  EF96  F014         	goto	l9681
   895   00290E                     u10930:
   896   00290E                     
   897                           ; BSR set to: 0
   898                           ;main.c: 551:                 conversion1 ++;
   899   00290E  4B94               	infsnz	_conversion1& (0+255),f,b
   900   002910  2B95               	incf	(_conversion1+1)& (0+255),f,b
   901   002912                     
   902                           ; BSR set to: 0
   903                           ;main.c: 552:                     if(conversion1 >200){
   904   002912  5195               	movf	(_conversion1+1)& (0+255),w,b
   905   002914  E109               	bnz	u10940
   906   002916  0EC9               	movlw	201
   907   002918  5D94               	subwf	_conversion1& (0+255),w,b
   908   00291A  A0D8               	btfss	status,0,c
   909   00291C  EF92  F014         	goto	u10941
   910   002920  EF94  F014         	goto	u10940
   911   002924                     u10941:
   912   002924  EF96  F014         	goto	l9681
   913   002928                     u10940:
   914   002928                     
   915                           ; BSR set to: 0
   916                           ;main.c: 553:                         lectura1 = 1;
   917   002928  0E01               	movlw	1
   918   00292A  6E1C               	movwf	_lectura1^0,c
   919   00292C                     l9681:
   920                           
   921                           ; BSR set to: 0
   922   00292C  0E02               	movlw	2
   923   00292E  181C               	xorwf	_lectura1^0,w,c
   924   002930  A4D8               	btfss	status,2,c
   925   002932  EF9D  F014         	goto	u10951
   926   002936  EF9F  F014         	goto	u10950
   927   00293A                     u10951:
   928   00293A  EFB5  F014         	goto	l655
   929   00293E                     u10950:
   930   00293E                     
   931                           ; BSR set to: 0
   932   00293E  5194               	movf	_conversion1& (0+255),w,b
   933   002940  1195               	iorwf	(_conversion1+1)& (0+255),w,b
   934   002942  B4D8               	btfsc	status,2,c
   935   002944  EFA6  F014         	goto	u10961
   936   002948  EFA8  F014         	goto	u10960
   937   00294C                     u10961:
   938   00294C  EFB5  F014         	goto	l655
   939   002950                     u10960:
   940   002950                     
   941                           ; BSR set to: 0
   942   002950  5192               	movf	_conversion2& (0+255),w,b
   943   002952  1193               	iorwf	(_conversion2+1)& (0+255),w,b
   944   002954  A4D8               	btfss	status,2,c
   945   002956  EFAF  F014         	goto	u10971
   946   00295A  EFB1  F014         	goto	u10970
   947   00295E                     u10971:
   948   00295E  EFB5  F014         	goto	l655
   949   002962                     u10970:
   950   002962                     
   951                           ; BSR set to: 0
   952                           ;main.c: 556:                 conversion2 = 1;
   953   002962  0E00               	movlw	0
   954   002964  6F93               	movwf	(_conversion2+1)& (0+255),b
   955   002966  0E01               	movlw	1
   956   002968  6F92               	movwf	_conversion2& (0+255),b
   957   00296A                     l655:
   958                           
   959                           ; BSR set to: 0
   960   00296A  501B               	movf	_lectura2^0,w,c
   961   00296C  A4D8               	btfss	status,2,c
   962   00296E  EFBB  F014         	goto	u10981
   963   002972  EFBD  F014         	goto	u10980
   964   002976                     u10981:
   965   002976  EFE0  F014         	goto	l9699
   966   00297A                     u10980:
   967   00297A                     
   968                           ; BSR set to: 0
   969   00297A  5193               	movf	(_conversion2+1)& (0+255),w,b
   970   00297C  E109               	bnz	u10990
   971   00297E  0E02               	movlw	2
   972   002980  5D92               	subwf	_conversion2& (0+255),w,b
   973   002982  A0D8               	btfss	status,0,c
   974   002984  EFC6  F014         	goto	u10991
   975   002988  EFC8  F014         	goto	u10990
   976   00298C                     u10991:
   977   00298C  EFE0  F014         	goto	l9699
   978   002990                     u10990:
   979   002990                     
   980                           ; BSR set to: 0
   981   002990  0E02               	movlw	2
   982   002992  181C               	xorwf	_lectura1^0,w,c
   983   002994  A4D8               	btfss	status,2,c
   984   002996  EFCF  F014         	goto	u11001
   985   00299A  EFD1  F014         	goto	u11000
   986   00299E                     u11001:
   987   00299E  EFE0  F014         	goto	l9699
   988   0029A2                     u11000:
   989   0029A2                     
   990                           ; BSR set to: 0
   991                           ;main.c: 558:                 conversion2 ++;
   992   0029A2  4B92               	infsnz	_conversion2& (0+255),f,b
   993   0029A4  2B93               	incf	(_conversion2+1)& (0+255),f,b
   994   0029A6                     
   995                           ; BSR set to: 0
   996                           ;main.c: 559:                 if(conversion2 >200){
   997   0029A6  5193               	movf	(_conversion2+1)& (0+255),w,b
   998   0029A8  E109               	bnz	u11010
   999   0029AA  0EC9               	movlw	201
  1000   0029AC  5D92               	subwf	_conversion2& (0+255),w,b
  1001   0029AE  A0D8               	btfss	status,0,c
  1002   0029B0  EFDC  F014         	goto	u11011
  1003   0029B4  EFDE  F014         	goto	u11010
  1004   0029B8                     u11011:
  1005   0029B8  EFE0  F014         	goto	l9699
  1006   0029BC                     u11010:
  1007   0029BC                     
  1008                           ; BSR set to: 0
  1009                           ;main.c: 560:                     lectura2 = 1;
  1010   0029BC  0E01               	movlw	1
  1011   0029BE  6E1B               	movwf	_lectura2^0,c
  1012   0029C0                     l9699:
  1013                           
  1014                           ; BSR set to: 0
  1015   0029C0  0E02               	movlw	2
  1016   0029C2  181B               	xorwf	_lectura2^0,w,c
  1017   0029C4  A4D8               	btfss	status,2,c
  1018   0029C6  EFE7  F014         	goto	u11021
  1019   0029CA  EFE9  F014         	goto	u11020
  1020   0029CE                     u11021:
  1021   0029CE  EFF5  F014         	goto	l658
  1022   0029D2                     u11020:
  1023   0029D2                     
  1024                           ; BSR set to: 0
  1025                           ;main.c: 563:                 lectura1 = 0;
  1026   0029D2  0E00               	movlw	0
  1027   0029D4  6E1C               	movwf	_lectura1^0,c
  1028                           
  1029                           ;main.c: 564:                 lectura2 = 0;
  1030   0029D6  0E00               	movlw	0
  1031   0029D8  6E1B               	movwf	_lectura2^0,c
  1032                           
  1033                           ;main.c: 565:                 conversion1 = 0;
  1034   0029DA  0E00               	movlw	0
  1035   0029DC  6F95               	movwf	(_conversion1+1)& (0+255),b
  1036   0029DE  0E00               	movlw	0
  1037   0029E0  6F94               	movwf	_conversion1& (0+255),b
  1038                           
  1039                           ;main.c: 566:                 conversion2 = 0;
  1040   0029E2  0E00               	movlw	0
  1041   0029E4  6F93               	movwf	(_conversion2+1)& (0+255),b
  1042   0029E6  0E00               	movlw	0
  1043   0029E8  6F92               	movwf	_conversion2& (0+255),b
  1044   0029EA                     l658:
  1045                           
  1046                           ; BSR set to: 0
  1047                           ;main.c: 568:             resetWatch = 0;
  1048   0029EA  0E00               	movlw	0
  1049   0029EC  6F9F               	movwf	(_resetWatch+1)& (0+255),b
  1050   0029EE  0E00               	movlw	0
  1051   0029F0  6F9E               	movwf	_resetWatch& (0+255),b
  1052                           
  1053                           ;main.c: 569:             if(tecla == 0){
  1054   0029F2  503F               	movf	_tecla^0,w,c
  1055   0029F4  A4D8               	btfss	status,2,c
  1056   0029F6  EFFF  F014         	goto	u11031
  1057   0029FA  EF01  F015         	goto	u11030
  1058   0029FE                     u11031:
  1059   0029FE  EF08  F015         	goto	l9707
  1060   002A02                     u11030:
  1061   002A02                     
  1062                           ; BSR set to: 0
  1063                           ;main.c: 570:                 TRISAbits.TRISA3=1;
  1064   002A02  8692               	bsf	146,3,c	;volatile
  1065                           
  1066                           ;main.c: 571:                 TRISAbits.TRISA4=1;
  1067   002A04  8892               	bsf	146,4,c	;volatile
  1068                           
  1069                           ;main.c: 572:                 TRISAbits.TRISA5=1;
  1070   002A06  8A92               	bsf	146,5,c	;volatile
  1071   002A08                     
  1072                           ; BSR set to: 0
  1073                           ;main.c: 573:                 teclado();
  1074   002A08  ECBC  F01E         	call	_teclado	;wreg free
  1075                           
  1076                           ;main.c: 574:     }else{
  1077   002A0C  EF47  F015         	goto	l9729
  1078   002A10                     l9707:
  1079                           
  1080                           ; BSR set to: 0
  1081                           ;main.c: 575:         teclaAUX ++;
  1082   002A10  2BB8               	incf	_teclaAUX& (0+255),f,b
  1083   002A12                     
  1084                           ; BSR set to: 0
  1085                           ;main.c: 576:        up=0;
  1086   002A12  0E00               	movlw	0
  1087   002A14  6FE2               	movwf	_up& (0+255),b
  1088   002A16                     
  1089                           ; BSR set to: 0
  1090                           ;main.c: 577:         down=0;
  1091   002A16  0E00               	movlw	0
  1092   002A18  6FE1               	movwf	_down& (0+255),b
  1093   002A1A                     
  1094                           ; BSR set to: 0
  1095                           ;main.c: 578:       enter=0;
  1096   002A1A  0E00               	movlw	0
  1097   002A1C  6F9D               	movwf	(_enter+1)& (0+255),b
  1098   002A1E  0E00               	movlw	0
  1099   002A20  6F9C               	movwf	_enter& (0+255),b
  1100   002A22                     
  1101                           ; BSR set to: 0
  1102                           ;main.c: 579:       if((!(tecla==0))&&(!(tecla==0x01))&&(!(tecla==0x02))&&(!(tecla==0x04
      +                          ))&&(!(tecla==0x08))&&(!(tecla==0x10))){
  1103   002A22  503F               	movf	_tecla^0,w,c
  1104   002A24  B4D8               	btfsc	status,2,c
  1105   002A26  EF17  F015         	goto	u11041
  1106   002A2A  EF19  F015         	goto	u11040
  1107   002A2E                     u11041:
  1108   002A2E  EF47  F015         	goto	l9729
  1109   002A32                     u11040:
  1110   002A32                     
  1111                           ; BSR set to: 0
  1112   002A32  043F               	decf	_tecla^0,w,c
  1113   002A34  B4D8               	btfsc	status,2,c
  1114   002A36  EF1F  F015         	goto	u11051
  1115   002A3A  EF21  F015         	goto	u11050
  1116   002A3E                     u11051:
  1117   002A3E  EF47  F015         	goto	l9729
  1118   002A42                     u11050:
  1119   002A42                     
  1120                           ; BSR set to: 0
  1121   002A42  0E02               	movlw	2
  1122   002A44  183F               	xorwf	_tecla^0,w,c
  1123   002A46  B4D8               	btfsc	status,2,c
  1124   002A48  EF28  F015         	goto	u11061
  1125   002A4C  EF2A  F015         	goto	u11060
  1126   002A50                     u11061:
  1127   002A50  EF47  F015         	goto	l9729
  1128   002A54                     u11060:
  1129   002A54                     
  1130                           ; BSR set to: 0
  1131   002A54  0E04               	movlw	4
  1132   002A56  183F               	xorwf	_tecla^0,w,c
  1133   002A58  B4D8               	btfsc	status,2,c
  1134   002A5A  EF31  F015         	goto	u11071
  1135   002A5E  EF33  F015         	goto	u11070
  1136   002A62                     u11071:
  1137   002A62  EF47  F015         	goto	l9729
  1138   002A66                     u11070:
  1139   002A66                     
  1140                           ; BSR set to: 0
  1141   002A66  0E08               	movlw	8
  1142   002A68  183F               	xorwf	_tecla^0,w,c
  1143   002A6A  B4D8               	btfsc	status,2,c
  1144   002A6C  EF3A  F015         	goto	u11081
  1145   002A70  EF3C  F015         	goto	u11080
  1146   002A74                     u11081:
  1147   002A74  EF47  F015         	goto	l9729
  1148   002A78                     u11080:
  1149   002A78                     
  1150                           ; BSR set to: 0
  1151   002A78  0E10               	movlw	16
  1152   002A7A  183F               	xorwf	_tecla^0,w,c
  1153   002A7C  B4D8               	btfsc	status,2,c
  1154   002A7E  EF43  F015         	goto	u11091
  1155   002A82  EF45  F015         	goto	u11090
  1156   002A86                     u11091:
  1157   002A86  EF47  F015         	goto	l9729
  1158   002A8A                     u11090:
  1159   002A8A                     
  1160                           ; BSR set to: 0
  1161                           ;main.c: 580:           tecla=0;
  1162   002A8A  0E00               	movlw	0
  1163   002A8C  6E3F               	movwf	_tecla^0,c
  1164   002A8E                     l9729:
  1165                           
  1166                           ;main.c: 583:     if(teclaAUX > 250){
  1167   002A8E  0EFA               	movlw	250
  1168   002A90  0100               	movlb	0	; () banked
  1169   002A92  65B8               	cpfsgt	_teclaAUX& (0+255),b
  1170   002A94  EF4E  F015         	goto	u11101
  1171   002A98  EF50  F015         	goto	u11100
  1172   002A9C                     u11101:
  1173   002A9C  EF54  F015         	goto	l9733
  1174   002AA0                     u11100:
  1175   002AA0                     
  1176                           ; BSR set to: 0
  1177                           ;main.c: 584:         teclaAUX = 0;
  1178   002AA0  0E00               	movlw	0
  1179   002AA2  6FB8               	movwf	_teclaAUX& (0+255),b
  1180                           
  1181                           ;main.c: 585:         tecla = 0;
  1182   002AA4  0E00               	movlw	0
  1183   002AA6  6E3F               	movwf	_tecla^0,c
  1184   002AA8                     l9733:
  1185                           
  1186                           ; BSR set to: 0
  1187                           ;main.c: 587:             TRISAbits.TRISA3=0;
  1188   002AA8  9692               	bcf	146,3,c	;volatile
  1189   002AAA                     
  1190                           ; BSR set to: 0
  1191                           ;main.c: 588:             TRISAbits.TRISA4=0;
  1192   002AAA  9892               	bcf	146,4,c	;volatile
  1193   002AAC                     
  1194                           ; BSR set to: 0
  1195                           ;main.c: 589:             TRISAbits.TRISA5=0;
  1196   002AAC  9A92               	bcf	146,5,c	;volatile
  1197   002AAE                     
  1198                           ; BSR set to: 0
  1199                           ;main.c: 590:             display();
  1200   002AAE  EC20  F011         	call	_display	;wreg free
  1201   002AB2                     
  1202                           ;main.c: 592:             if(((aux1>>1)>60 )&&(z>100)){
  1203   002AB2  C01A  F056         	movff	_aux1,??_main
  1204   002AB6  90D8               	bcf	status,0,c
  1205   002AB8  3256               	rrcf	??_main^0,f,c
  1206   002ABA  0E3C               	movlw	60
  1207   002ABC  6456               	cpfsgt	??_main^0,c
  1208   002ABE  EF63  F015         	goto	u11111
  1209   002AC2  EF65  F015         	goto	u11110
  1210   002AC6                     u11111:
  1211   002AC6  EFAC  F015         	goto	l9787
  1212   002ACA                     u11110:
  1213   002ACA  0100               	movlb	0	; () banked
  1214   002ACC  BFE8               	btfsc	(_z+1)& (0+255),7,b
  1215   002ACE  EF72  F015         	goto	u11121
  1216   002AD2  51E8               	movf	(_z+1)& (0+255),w,b
  1217   002AD4  E109               	bnz	u11120
  1218   002AD6  0E65               	movlw	101
  1219   002AD8  5DE7               	subwf	_z& (0+255),w,b
  1220   002ADA  A0D8               	btfss	status,0,c
  1221   002ADC  EF72  F015         	goto	u11121
  1222   002AE0  EF74  F015         	goto	u11120
  1223   002AE4                     u11121:
  1224   002AE4  EFAC  F015         	goto	l9787
  1225   002AE8                     u11120:
  1226   002AE8                     
  1227                           ; BSR set to: 0
  1228                           ;main.c: 594:                 auxfallatemp1= 0;
  1229   002AE8  0E00               	movlw	0
  1230   002AEA  6FB4               	movwf	_auxfallatemp1& (0+255),b
  1231   002AEC                     
  1232                           ; BSR set to: 0
  1233                           ;main.c: 595:                 T0CONbits.TMR0ON = 0;
  1234   002AEC  9ED5               	bcf	213,7,c	;volatile
  1235   002AEE                     
  1236                           ; BSR set to: 0
  1237                           ;main.c: 596:       INTCONbits.TMR0IE = 0;
  1238   002AEE  9AF2               	bcf	242,5,c	;volatile
  1239   002AF0                     
  1240                           ; BSR set to: 0
  1241                           ;main.c: 597:       TRISAbits.TRISA0 = 0;
  1242   002AF0  9092               	bcf	146,0,c	;volatile
  1243   002AF2                     
  1244                           ; BSR set to: 0
  1245                           ;main.c: 598:       PORTAbits.RA0 = 0;
  1246   002AF2  9080               	bcf	128,0,c	;volatile
  1247   002AF4                     
  1248                           ; BSR set to: 0
  1249                           ;main.c: 599:       TRISAbits.TRISA0 = 1;
  1250   002AF4  8092               	bsf	146,0,c	;volatile
  1251   002AF6                     
  1252                           ; BSR set to: 0
  1253                           ;main.c: 600:                 ds1820(1,1);
  1254   002AF6  0E01               	movlw	1
  1255   002AF8  6E4D               	movwf	ds1820@nsen^0,c
  1256   002AFA  0E01               	movlw	1
  1257   002AFC  EC09  F01C         	call	_ds1820
  1258   002B00                     
  1259                           ;main.c: 601:             ds1820(2,1);
  1260   002B00  0E01               	movlw	1
  1261   002B02  6E4D               	movwf	ds1820@nsen^0,c
  1262   002B04  0E02               	movlw	2
  1263   002B06  EC09  F01C         	call	_ds1820
  1264   002B0A                     
  1265                           ;main.c: 602:             T0CONbits.TMR0ON = 1;
  1266   002B0A  8ED5               	bsf	213,7,c	;volatile
  1267   002B0C                     
  1268                           ;main.c: 603:               INTCONbits.INT0E = 1;
  1269   002B0C  88F2               	bsf	242,4,c	;volatile
  1270   002B0E                     
  1271                           ;main.c: 604:              INTCONbits.TMR0IE = 1;
  1272   002B0E  8AF2               	bsf	242,5,c	;volatile
  1273   002B10                     l9767:
  1274                           
  1275                           ;main.c: 605:             while(auxfallatemp1<200){
  1276   002B10  0EC7               	movlw	199
  1277   002B12  0100               	movlb	0	; () banked
  1278   002B14  65B4               	cpfsgt	_auxfallatemp1& (0+255),b
  1279   002B16  EF8F  F015         	goto	u11131
  1280   002B1A  EF91  F015         	goto	u11130
  1281   002B1E                     u11131:
  1282   002B1E  EF88  F015         	goto	l9767
  1283   002B22                     u11130:
  1284   002B22                     
  1285                           ; BSR set to: 0
  1286                           ;main.c: 607:             INTCONbits.TMR0IE = 0;
  1287   002B22  9AF2               	bcf	242,5,c	;volatile
  1288                           
  1289                           ;main.c: 608:       TRISAbits.TRISA0 = 0;
  1290   002B24  9092               	bcf	146,0,c	;volatile
  1291                           
  1292                           ;main.c: 609:       PORTAbits.RA0 = 0;
  1293   002B26  9080               	bcf	128,0,c	;volatile
  1294                           
  1295                           ;main.c: 610:       TRISAbits.TRISA0 = 1;
  1296   002B28  8092               	bsf	146,0,c	;volatile
  1297   002B2A                     
  1298                           ; BSR set to: 0
  1299                           ;main.c: 611:             ds1820(3,1);
  1300   002B2A  0E01               	movlw	1
  1301   002B2C  6E4D               	movwf	ds1820@nsen^0,c
  1302   002B2E  0E03               	movlw	3
  1303   002B30  EC09  F01C         	call	_ds1820
  1304   002B34                     
  1305                           ;main.c: 612:             conversionTemp();
  1306   002B34  EC3C  F017         	call	_conversionTemp	;wreg free
  1307   002B38                     
  1308                           ;main.c: 613:                 T0CONbits.TMR0ON = 1;
  1309   002B38  8ED5               	bsf	213,7,c	;volatile
  1310   002B3A                     
  1311                           ;main.c: 614:               INTCONbits.INT0E = 1;
  1312   002B3A  88F2               	bsf	242,4,c	;volatile
  1313   002B3C                     
  1314                           ;main.c: 615:              INTCONbits.TMR0IE = 1;
  1315   002B3C  8AF2               	bsf	242,5,c	;volatile
  1316   002B3E                     
  1317                           ;main.c: 616:                 lectura1 = 0;
  1318   002B3E  0E00               	movlw	0
  1319   002B40  6E1C               	movwf	_lectura1^0,c
  1320   002B42                     
  1321                           ;main.c: 617:                 lectura2 = 0;
  1322   002B42  0E00               	movlw	0
  1323   002B44  6E1B               	movwf	_lectura2^0,c
  1324   002B46                     
  1325                           ;main.c: 618:                conversion1 = 0;
  1326   002B46  0E00               	movlw	0
  1327   002B48  0100               	movlb	0	; () banked
  1328   002B4A  6F95               	movwf	(_conversion1+1)& (0+255),b
  1329   002B4C  0E00               	movlw	0
  1330   002B4E  6F94               	movwf	_conversion1& (0+255),b
  1331   002B50                     
  1332                           ; BSR set to: 0
  1333                           ;main.c: 619:                 conversion2 = 0 ;
  1334   002B50  0E00               	movlw	0
  1335   002B52  6F93               	movwf	(_conversion2+1)& (0+255),b
  1336   002B54  0E00               	movlw	0
  1337   002B56  6F92               	movwf	_conversion2& (0+255),b
  1338   002B58                     l9787:
  1339                           
  1340                           ;main.c: 621:                if(((((aux2>>1)>60 )&&(z>100)))&&(auxfallatemp2==0)){
  1341   002B58  C019  F056         	movff	_aux2,??_main
  1342   002B5C  90D8               	bcf	status,0,c
  1343   002B5E  3256               	rrcf	??_main^0,f,c
  1344   002B60  0E3C               	movlw	60
  1345   002B62  6456               	cpfsgt	??_main^0,c
  1346   002B64  EFB6  F015         	goto	u11141
  1347   002B68  EFB8  F015         	goto	u11140
  1348   002B6C                     u11141:
  1349   002B6C  EF07  F016         	goto	l9835
  1350   002B70                     u11140:
  1351   002B70  0100               	movlb	0	; () banked
  1352   002B72  BFE8               	btfsc	(_z+1)& (0+255),7,b
  1353   002B74  EFC5  F015         	goto	u11151
  1354   002B78  51E8               	movf	(_z+1)& (0+255),w,b
  1355   002B7A  E109               	bnz	u11150
  1356   002B7C  0E65               	movlw	101
  1357   002B7E  5DE7               	subwf	_z& (0+255),w,b
  1358   002B80  A0D8               	btfss	status,0,c
  1359   002B82  EFC5  F015         	goto	u11151
  1360   002B86  EFC7  F015         	goto	u11150
  1361   002B8A                     u11151:
  1362   002B8A  EF07  F016         	goto	l9835
  1363   002B8E                     u11150:
  1364   002B8E                     
  1365                           ; BSR set to: 0
  1366   002B8E  51B3               	movf	_auxfallatemp2& (0+255),w,b
  1367   002B90  A4D8               	btfss	status,2,c
  1368   002B92  EFCD  F015         	goto	u11161
  1369   002B96  EFCF  F015         	goto	u11160
  1370   002B9A                     u11161:
  1371   002B9A  EF07  F016         	goto	l9835
  1372   002B9E                     u11160:
  1373   002B9E                     
  1374                           ; BSR set to: 0
  1375                           ;main.c: 623:                    auxfallatemp2= 0;
  1376   002B9E  0E00               	movlw	0
  1377   002BA0  6FB3               	movwf	_auxfallatemp2& (0+255),b
  1378   002BA2                     
  1379                           ; BSR set to: 0
  1380                           ;main.c: 624:                    T0CONbits.TMR0ON = 0;
  1381   002BA2  9ED5               	bcf	213,7,c	;volatile
  1382   002BA4                     
  1383                           ; BSR set to: 0
  1384                           ;main.c: 625:       INTCONbits.TMR0IE = 0;
  1385   002BA4  9AF2               	bcf	242,5,c	;volatile
  1386   002BA6                     
  1387                           ; BSR set to: 0
  1388                           ;main.c: 626:       TRISAbits.TRISA1 = 0;
  1389   002BA6  9292               	bcf	146,1,c	;volatile
  1390   002BA8                     
  1391                           ; BSR set to: 0
  1392                           ;main.c: 627:       PORTAbits.RA1 = 0;
  1393   002BA8  9280               	bcf	128,1,c	;volatile
  1394   002BAA                     
  1395                           ; BSR set to: 0
  1396                           ;main.c: 628:       TRISAbits.TRISA1 = 1;
  1397   002BAA  8292               	bsf	146,1,c	;volatile
  1398   002BAC                     
  1399                           ; BSR set to: 0
  1400                           ;main.c: 629:                 ds1820(1,2);
  1401   002BAC  0E02               	movlw	2
  1402   002BAE  6E4D               	movwf	ds1820@nsen^0,c
  1403   002BB0  0E01               	movlw	1
  1404   002BB2  EC09  F01C         	call	_ds1820
  1405   002BB6                     
  1406                           ;main.c: 630:                 ds1820(2,2);
  1407   002BB6  0E02               	movlw	2
  1408   002BB8  6E4D               	movwf	ds1820@nsen^0,c
  1409   002BBA  0E02               	movlw	2
  1410   002BBC  EC09  F01C         	call	_ds1820
  1411   002BC0                     
  1412                           ;main.c: 631:                 T0CONbits.TMR0ON = 1;
  1413   002BC0  8ED5               	bsf	213,7,c	;volatile
  1414   002BC2                     
  1415                           ;main.c: 632:               INTCONbits.INT0E = 1;
  1416   002BC2  88F2               	bsf	242,4,c	;volatile
  1417   002BC4                     
  1418                           ;main.c: 633:              INTCONbits.TMR0IE = 1;
  1419   002BC4  8AF2               	bsf	242,5,c	;volatile
  1420   002BC6                     l9815:
  1421                           
  1422                           ;main.c: 634:                 while(auxfallatemp2<200){
  1423   002BC6  0EC7               	movlw	199
  1424   002BC8  0100               	movlb	0	; () banked
  1425   002BCA  65B3               	cpfsgt	_auxfallatemp2& (0+255),b
  1426   002BCC  EFEA  F015         	goto	u11171
  1427   002BD0  EFEC  F015         	goto	u11170
  1428   002BD4                     u11171:
  1429   002BD4  EFE3  F015         	goto	l9815
  1430   002BD8                     u11170:
  1431   002BD8                     
  1432                           ; BSR set to: 0
  1433                           ;main.c: 636:              INTCONbits.TMR0IE = 0;
  1434   002BD8  9AF2               	bcf	242,5,c	;volatile
  1435                           
  1436                           ;main.c: 637:       TRISAbits.TRISA1 = 0;
  1437   002BDA  9292               	bcf	146,1,c	;volatile
  1438                           
  1439                           ;main.c: 638:       PORTAbits.RA1 = 0;
  1440   002BDC  9280               	bcf	128,1,c	;volatile
  1441                           
  1442                           ;main.c: 639:       TRISAbits.TRISA1 = 1;
  1443   002BDE  8292               	bsf	146,1,c	;volatile
  1444   002BE0                     
  1445                           ; BSR set to: 0
  1446                           ;main.c: 640:                 ds1820(3,2);
  1447   002BE0  0E02               	movlw	2
  1448   002BE2  6E4D               	movwf	ds1820@nsen^0,c
  1449   002BE4  0E03               	movlw	3
  1450   002BE6  EC09  F01C         	call	_ds1820
  1451   002BEA                     
  1452                           ;main.c: 641:                 conversionTemp();
  1453   002BEA  EC3C  F017         	call	_conversionTemp	;wreg free
  1454   002BEE                     
  1455                           ;main.c: 642:                 T0CONbits.TMR0ON = 1;
  1456   002BEE  8ED5               	bsf	213,7,c	;volatile
  1457   002BF0                     
  1458                           ;main.c: 643:               INTCONbits.INT0E = 1;
  1459   002BF0  88F2               	bsf	242,4,c	;volatile
  1460   002BF2                     
  1461                           ;main.c: 644:              INTCONbits.TMR0IE = 1;
  1462   002BF2  8AF2               	bsf	242,5,c	;volatile
  1463   002BF4                     
  1464                           ;main.c: 645:               lectura1 = 0;
  1465   002BF4  0E00               	movlw	0
  1466   002BF6  6E1C               	movwf	_lectura1^0,c
  1467   002BF8                     
  1468                           ;main.c: 646:               lectura2 = 0;
  1469   002BF8  0E00               	movlw	0
  1470   002BFA  6E1B               	movwf	_lectura2^0,c
  1471   002BFC                     
  1472                           ;main.c: 647:                conversion1 = 0;
  1473   002BFC  0E00               	movlw	0
  1474   002BFE  0100               	movlb	0	; () banked
  1475   002C00  6F95               	movwf	(_conversion1+1)& (0+255),b
  1476   002C02  0E00               	movlw	0
  1477   002C04  6F94               	movwf	_conversion1& (0+255),b
  1478   002C06                     
  1479                           ; BSR set to: 0
  1480                           ;main.c: 648:               conversion2 = 0 ;
  1481   002C06  0E00               	movlw	0
  1482   002C08  6F93               	movwf	(_conversion2+1)& (0+255),b
  1483   002C0A  0E00               	movlw	0
  1484   002C0C  6F92               	movwf	_conversion2& (0+255),b
  1485   002C0E                     l9835:
  1486                           
  1487                           ;main.c: 651:             if(lectura1 == 1){
  1488   002C0E  041C               	decf	_lectura1^0,w,c
  1489   002C10  A4D8               	btfss	status,2,c
  1490   002C12  EF0D  F016         	goto	u11181
  1491   002C16  EF0F  F016         	goto	u11180
  1492   002C1A                     u11181:
  1493   002C1A  EF1A  F016         	goto	l9847
  1494   002C1E                     u11180:
  1495   002C1E                     
  1496                           ;main.c: 655:              INTCONbits.INT0E = 1;
  1497   002C1E  88F2               	bsf	242,4,c	;volatile
  1498                           
  1499                           ;main.c: 656:              T0CONbits.TMR0ON = 0;
  1500   002C20  9ED5               	bcf	213,7,c	;volatile
  1501                           
  1502                           ;main.c: 657:       INTCONbits.TMR0IE = 0;
  1503   002C22  9AF2               	bcf	242,5,c	;volatile
  1504   002C24                     
  1505                           ;main.c: 658:                     ds1820(3,1);
  1506   002C24  0E01               	movlw	1
  1507   002C26  6E4D               	movwf	ds1820@nsen^0,c
  1508   002C28  0E03               	movlw	3
  1509   002C2A  EC09  F01C         	call	_ds1820
  1510   002C2E                     
  1511                           ;main.c: 659:                T0CONbits.TMR0ON = 1;
  1512   002C2E  8ED5               	bsf	213,7,c	;volatile
  1513   002C30                     
  1514                           ;main.c: 660:               INTCONbits.INT0E = 1;
  1515   002C30  88F2               	bsf	242,4,c	;volatile
  1516   002C32                     
  1517                           ;main.c: 661:              INTCONbits.TMR0IE = 1;
  1518   002C32  8AF2               	bsf	242,5,c	;volatile
  1519   002C34                     l9847:
  1520   002C34  041B               	decf	_lectura2^0,w,c
  1521   002C36  A4D8               	btfss	status,2,c
  1522   002C38  EF20  F016         	goto	u11191
  1523   002C3C  EF22  F016         	goto	u11190
  1524   002C40                     u11191:
  1525   002C40  EF2D  F016         	goto	l9859
  1526   002C44                     u11190:
  1527   002C44                     
  1528                           ;main.c: 665:                INTCONbits.TMR0IE = 0;
  1529   002C44  9AF2               	bcf	242,5,c	;volatile
  1530                           
  1531                           ;main.c: 666:              INTCONbits.INT0E = 1;
  1532   002C46  88F2               	bsf	242,4,c	;volatile
  1533                           
  1534                           ;main.c: 667:               T0CONbits.TMR0ON = 0;
  1535   002C48  9ED5               	bcf	213,7,c	;volatile
  1536   002C4A                     
  1537                           ;main.c: 668:                     ds1820(3,2);
  1538   002C4A  0E02               	movlw	2
  1539   002C4C  6E4D               	movwf	ds1820@nsen^0,c
  1540   002C4E  0E03               	movlw	3
  1541   002C50  EC09  F01C         	call	_ds1820
  1542   002C54                     
  1543                           ;main.c: 669:                 T0CONbits.TMR0ON = 1;
  1544   002C54  8ED5               	bsf	213,7,c	;volatile
  1545   002C56                     
  1546                           ;main.c: 670:                 INTCONbits.INT0E = 1;
  1547   002C56  88F2               	bsf	242,4,c	;volatile
  1548   002C58                     
  1549                           ;main.c: 671:                 INTCONbits.TMR0IE = 1;
  1550   002C58  8AF2               	bsf	242,5,c	;volatile
  1551   002C5A                     l9859:
  1552   002C5A  0100               	movlb	0	; () banked
  1553   002C5C  0594               	decf	_conversion1& (0+255),w,b
  1554   002C5E  1195               	iorwf	(_conversion1+1)& (0+255),w,b
  1555   002C60  A4D8               	btfss	status,2,c
  1556   002C62  EF35  F016         	goto	u11201
  1557   002C66  EF37  F016         	goto	u11200
  1558   002C6A                     u11201:
  1559   002C6A  EF42  F016         	goto	l9871
  1560   002C6E                     u11200:
  1561   002C6E                     
  1562                           ; BSR set to: 0
  1563                           ;main.c: 675:                 INTCONbits.TMR0IE = 0;
  1564   002C6E  9AF2               	bcf	242,5,c	;volatile
  1565                           
  1566                           ;main.c: 676:                 INTCONbits.INT0E = 1;
  1567   002C70  88F2               	bsf	242,4,c	;volatile
  1568                           
  1569                           ;main.c: 677:                 T0CONbits.TMR0ON = 0;
  1570   002C72  9ED5               	bcf	213,7,c	;volatile
  1571   002C74                     
  1572                           ; BSR set to: 0
  1573                           ;main.c: 678:                     ds1820(2,1);
  1574   002C74  0E01               	movlw	1
  1575   002C76  6E4D               	movwf	ds1820@nsen^0,c
  1576   002C78  0E02               	movlw	2
  1577   002C7A  EC09  F01C         	call	_ds1820
  1578   002C7E                     
  1579                           ;main.c: 679:                 T0CONbits.TMR0ON = 1;
  1580   002C7E  8ED5               	bsf	213,7,c	;volatile
  1581   002C80                     
  1582                           ;main.c: 680:                 INTCONbits.INT0E = 1;
  1583   002C80  88F2               	bsf	242,4,c	;volatile
  1584   002C82                     
  1585                           ;main.c: 681:                 INTCONbits.TMR0IE = 1;
  1586   002C82  8AF2               	bsf	242,5,c	;volatile
  1587   002C84                     l9871:
  1588   002C84  0100               	movlb	0	; () banked
  1589   002C86  0592               	decf	_conversion2& (0+255),w,b
  1590   002C88  1193               	iorwf	(_conversion2+1)& (0+255),w,b
  1591   002C8A  A4D8               	btfss	status,2,c
  1592   002C8C  EF4A  F016         	goto	u11211
  1593   002C90  EF4C  F016         	goto	u11210
  1594   002C94                     u11211:
  1595   002C94  EF57  F016         	goto	l9883
  1596   002C98                     u11210:
  1597   002C98                     
  1598                           ; BSR set to: 0
  1599                           ;main.c: 685:                INTCONbits.TMR0IE = 0;
  1600   002C98  9AF2               	bcf	242,5,c	;volatile
  1601                           
  1602                           ;main.c: 686:                INTCONbits.INT0E = 1;
  1603   002C9A  88F2               	bsf	242,4,c	;volatile
  1604                           
  1605                           ;main.c: 687:                 T0CONbits.TMR0ON = 0;
  1606   002C9C  9ED5               	bcf	213,7,c	;volatile
  1607   002C9E                     
  1608                           ; BSR set to: 0
  1609                           ;main.c: 688:                     ds1820(2,2);
  1610   002C9E  0E02               	movlw	2
  1611   002CA0  6E4D               	movwf	ds1820@nsen^0,c
  1612   002CA2  0E02               	movlw	2
  1613   002CA4  EC09  F01C         	call	_ds1820
  1614   002CA8                     
  1615                           ;main.c: 689:                 T0CONbits.TMR0ON = 1;
  1616   002CA8  8ED5               	bsf	213,7,c	;volatile
  1617   002CAA                     
  1618                           ;main.c: 690:                 INTCONbits.INT0E = 1;
  1619   002CAA  88F2               	bsf	242,4,c	;volatile
  1620   002CAC                     
  1621                           ;main.c: 691:                 INTCONbits.TMR0IE = 1;
  1622   002CAC  8AF2               	bsf	242,5,c	;volatile
  1623   002CAE                     l9883:
  1624                           
  1625                           ;main.c: 693:             resetWatch = 0;
  1626   002CAE  0E00               	movlw	0
  1627   002CB0  0100               	movlb	0	; () banked
  1628   002CB2  6F9F               	movwf	(_resetWatch+1)& (0+255),b
  1629   002CB4  0E00               	movlw	0
  1630   002CB6  6F9E               	movwf	_resetWatch& (0+255),b
  1631   002CB8                     
  1632                           ; BSR set to: 0
  1633                           ;main.c: 695:           conversionTemp();
  1634   002CB8  EC3C  F017         	call	_conversionTemp	;wreg free
  1635   002CBC                     
  1636                           ;main.c: 697:             if(z > 150 ){
  1637   002CBC  0100               	movlb	0	; () banked
  1638   002CBE  BFE8               	btfsc	(_z+1)& (0+255),7,b
  1639   002CC0  EF6B  F016         	goto	u11221
  1640   002CC4  51E8               	movf	(_z+1)& (0+255),w,b
  1641   002CC6  E109               	bnz	u11220
  1642   002CC8  0E97               	movlw	151
  1643   002CCA  5DE7               	subwf	_z& (0+255),w,b
  1644   002CCC  A0D8               	btfss	status,0,c
  1645   002CCE  EF6B  F016         	goto	u11221
  1646   002CD2  EF6D  F016         	goto	u11220
  1647   002CD6                     u11221:
  1648   002CD6  EF76  F016         	goto	l9895
  1649   002CDA                     u11220:
  1650   002CDA                     
  1651                           ; BSR set to: 0
  1652                           ;main.c: 698:                alarma();
  1653   002CDA  ECB0  F00D         	call	_alarma	;wreg free
  1654   002CDE                     
  1655                           ;main.c: 701:                 salidaPotencia();
  1656   002CDE  ECF1  F019         	call	_salidaPotencia	;wreg free
  1657   002CE2                     
  1658                           ;main.c: 702:                 z = 0;
  1659   002CE2  0E00               	movlw	0
  1660   002CE4  0100               	movlb	0	; () banked
  1661   002CE6  6FE8               	movwf	(_z+1)& (0+255),b
  1662   002CE8  0E00               	movlw	0
  1663   002CEA  6FE7               	movwf	_z& (0+255),b
  1664   002CEC                     l9895:
  1665                           
  1666                           ; BSR set to: 0
  1667                           ;main.c: 704: if(setPoint> 199){
  1668   002CEC  0EC7               	movlw	199
  1669   002CEE  6440               	cpfsgt	_setPoint^0,c
  1670   002CF0  EF7C  F016         	goto	u11231
  1671   002CF4  EF7E  F016         	goto	u11230
  1672   002CF8                     u11231:
  1673   002CF8  EF8C  F016         	goto	l9905
  1674   002CFC                     u11230:
  1675   002CFC                     
  1676                           ; BSR set to: 0
  1677                           ;main.c: 705:         EEADR = 0x00 ;
  1678   002CFC  0E00               	movlw	0
  1679   002CFE  6EA9               	movwf	169,c	;volatile
  1680   002D00                     
  1681                           ; BSR set to: 0
  1682                           ;main.c: 706:         EECON1bits.EEPGD = 0;
  1683   002D00  9EA6               	bcf	166,7,c	;volsfr
  1684   002D02                     
  1685                           ; BSR set to: 0
  1686                           ;main.c: 707:         EECON1bits.CFGS = 0;
  1687   002D02  9CA6               	bcf	166,6,c	;volsfr
  1688   002D04                     
  1689                           ; BSR set to: 0
  1690                           ;main.c: 708:         EECON1bits.RD = 1;
  1691   002D04  80A6               	bsf	166,0,c	;volsfr
  1692   002D06                     l677:
  1693                           
  1694                           ;main.c: 709:         while(EECON1bits.RD == 1){
  1695   002D06  B0A6               	btfsc	166,0,c	;volsfr
  1696   002D08  EF88  F016         	goto	u11241
  1697   002D0C  EF8A  F016         	goto	u11240
  1698   002D10                     u11241:
  1699   002D10  EF83  F016         	goto	l677
  1700   002D14                     u11240:
  1701   002D14                     
  1702                           ;main.c: 711:         setPoint=EEDATA;
  1703   002D14  CFA8 F040          	movff	4008,_setPoint	;volatile
  1704   002D18                     l9905:
  1705                           
  1706                           ;main.c: 713:     if((SPFxBaj< 15)||(SPFxBaj> 99)){
  1707   002D18  0E0E               	movlw	14
  1708   002D1A  643A               	cpfsgt	_SPFxBaj^0,c
  1709   002D1C  EF92  F016         	goto	u11251
  1710   002D20  EF94  F016         	goto	u11250
  1711   002D24                     u11251:
  1712   002D24  EF9C  F016         	goto	l9909
  1713   002D28                     u11250:
  1714   002D28  0E63               	movlw	99
  1715   002D2A  643A               	cpfsgt	_SPFxBaj^0,c
  1716   002D2C  EF9A  F016         	goto	u11261
  1717   002D30  EF9C  F016         	goto	u11260
  1718   002D34                     u11261:
  1719   002D34  EFAA  F016         	goto	l9917
  1720   002D38                     u11260:
  1721   002D38                     l9909:
  1722                           
  1723                           ;main.c: 714:         EEADR = 0x01 ;
  1724   002D38  0E01               	movlw	1
  1725   002D3A  6EA9               	movwf	169,c	;volatile
  1726   002D3C                     
  1727                           ;main.c: 715:         EECON1bits.EEPGD = 0;
  1728   002D3C  9EA6               	bcf	166,7,c	;volsfr
  1729   002D3E                     
  1730                           ;main.c: 716:         EECON1bits.CFGS = 0;
  1731   002D3E  9CA6               	bcf	166,6,c	;volsfr
  1732   002D40                     
  1733                           ;main.c: 717:         EECON1bits.RD = 1;
  1734   002D40  80A6               	bsf	166,0,c	;volsfr
  1735   002D42                     l683:
  1736                           
  1737                           ;main.c: 718:         while(EECON1bits.RD == 1){
  1738   002D42  B0A6               	btfsc	166,0,c	;volsfr
  1739   002D44  EFA6  F016         	goto	u11271
  1740   002D48  EFA8  F016         	goto	u11270
  1741   002D4C                     u11271:
  1742   002D4C  EFA1  F016         	goto	l683
  1743   002D50                     u11270:
  1744   002D50                     
  1745                           ;main.c: 720:         SPFxBaj=EEDATA;
  1746   002D50  CFA8 F03A          	movff	4008,_SPFxBaj	;volatile
  1747   002D54                     l9917:
  1748                           
  1749                           ;main.c: 722:     if((SPFxAlt< 15)||(SPFxAlt> 99)){
  1750   002D54  0E0E               	movlw	14
  1751   002D56  6438               	cpfsgt	_SPFxAlt^0,c
  1752   002D58  EFB0  F016         	goto	u11281
  1753   002D5C  EFB2  F016         	goto	u11280
  1754   002D60                     u11281:
  1755   002D60  EFBA  F016         	goto	l9921
  1756   002D64                     u11280:
  1757   002D64  0E63               	movlw	99
  1758   002D66  6438               	cpfsgt	_SPFxAlt^0,c
  1759   002D68  EFB8  F016         	goto	u11291
  1760   002D6C  EFBA  F016         	goto	u11290
  1761   002D70                     u11291:
  1762   002D70  EFC8  F016         	goto	l9929
  1763   002D74                     u11290:
  1764   002D74                     l9921:
  1765                           
  1766                           ;main.c: 723:         EEADR = 0x02 ;
  1767   002D74  0E02               	movlw	2
  1768   002D76  6EA9               	movwf	169,c	;volatile
  1769   002D78                     
  1770                           ;main.c: 724:         EECON1bits.EEPGD = 0;
  1771   002D78  9EA6               	bcf	166,7,c	;volsfr
  1772   002D7A                     
  1773                           ;main.c: 725:         EECON1bits.CFGS = 0;
  1774   002D7A  9CA6               	bcf	166,6,c	;volsfr
  1775   002D7C                     
  1776                           ;main.c: 726:         EECON1bits.RD = 1;
  1777   002D7C  80A6               	bsf	166,0,c	;volsfr
  1778   002D7E                     l689:
  1779                           
  1780                           ;main.c: 727:         while(EECON1bits.RD == 1){
  1781   002D7E  B0A6               	btfsc	166,0,c	;volsfr
  1782   002D80  EFC4  F016         	goto	u11301
  1783   002D84  EFC6  F016         	goto	u11300
  1784   002D88                     u11301:
  1785   002D88  EFBF  F016         	goto	l689
  1786   002D8C                     u11300:
  1787   002D8C                     
  1788                           ;main.c: 729:         SPFxAlt=EEDATA;
  1789   002D8C  CFA8 F038          	movff	4008,_SPFxAlt	;volatile
  1790   002D90                     l9929:
  1791                           
  1792                           ;main.c: 731:     if((SPFxSen< 15)||(SPFxSen> 99)){
  1793   002D90  0E0E               	movlw	14
  1794   002D92  643C               	cpfsgt	_SPFxSen^0,c
  1795   002D94  EFCE  F016         	goto	u11311
  1796   002D98  EFD0  F016         	goto	u11310
  1797   002D9C                     u11311:
  1798   002D9C  EFD8  F016         	goto	l9933
  1799   002DA0                     u11310:
  1800   002DA0  0E63               	movlw	99
  1801   002DA2  643C               	cpfsgt	_SPFxSen^0,c
  1802   002DA4  EFD6  F016         	goto	u11321
  1803   002DA8  EFD8  F016         	goto	u11320
  1804   002DAC                     u11321:
  1805   002DAC  EFE6  F016         	goto	l9941
  1806   002DB0                     u11320:
  1807   002DB0                     l9933:
  1808                           
  1809                           ;main.c: 732:         EEADR = 0x03 ;
  1810   002DB0  0E03               	movlw	3
  1811   002DB2  6EA9               	movwf	169,c	;volatile
  1812   002DB4                     
  1813                           ;main.c: 733:         EECON1bits.EEPGD = 0;
  1814   002DB4  9EA6               	bcf	166,7,c	;volsfr
  1815   002DB6                     
  1816                           ;main.c: 734:         EECON1bits.CFGS = 0;
  1817   002DB6  9CA6               	bcf	166,6,c	;volsfr
  1818   002DB8                     
  1819                           ;main.c: 735:         EECON1bits.RD = 1;
  1820   002DB8  80A6               	bsf	166,0,c	;volsfr
  1821   002DBA                     l695:
  1822                           
  1823                           ;main.c: 736:         while(EECON1bits.RD == 1){
  1824   002DBA  B0A6               	btfsc	166,0,c	;volsfr
  1825   002DBC  EFE2  F016         	goto	u11331
  1826   002DC0  EFE4  F016         	goto	u11330
  1827   002DC4                     u11331:
  1828   002DC4  EFDD  F016         	goto	l695
  1829   002DC8                     u11330:
  1830   002DC8                     
  1831                           ;main.c: 738:         SPFxSen=EEDATA;
  1832   002DC8  CFA8 F03C          	movff	4008,_SPFxSen	;volatile
  1833   002DCC                     l9941:
  1834                           
  1835                           ;main.c: 740:     if(CTRauto > 1){
  1836   002DCC  0E01               	movlw	1
  1837   002DCE  643E               	cpfsgt	_CTRauto^0,c
  1838   002DD0  EFEC  F016         	goto	u11341
  1839   002DD4  EFEE  F016         	goto	u11340
  1840   002DD8                     u11341:
  1841   002DD8  EFFC  F016         	goto	l9951
  1842   002DDC                     u11340:
  1843   002DDC                     
  1844                           ;main.c: 741:         EEADR = 0x04 ;
  1845   002DDC  0E04               	movlw	4
  1846   002DDE  6EA9               	movwf	169,c	;volatile
  1847   002DE0                     
  1848                           ;main.c: 742:         EECON1bits.EEPGD = 0;
  1849   002DE0  9EA6               	bcf	166,7,c	;volsfr
  1850   002DE2                     
  1851                           ;main.c: 743:         EECON1bits.CFGS = 0;
  1852   002DE2  9CA6               	bcf	166,6,c	;volsfr
  1853   002DE4                     
  1854                           ;main.c: 744:         EECON1bits.RD = 1;
  1855   002DE4  80A6               	bsf	166,0,c	;volsfr
  1856   002DE6                     l699:
  1857                           
  1858                           ;main.c: 745:         while(EECON1bits.RD == 1){
  1859   002DE6  B0A6               	btfsc	166,0,c	;volsfr
  1860   002DE8  EFF8  F016         	goto	u11351
  1861   002DEC  EFFA  F016         	goto	u11350
  1862   002DF0                     u11351:
  1863   002DF0  EFF3  F016         	goto	l699
  1864   002DF4                     u11350:
  1865   002DF4                     
  1866                           ;main.c: 747:         CTRauto=EEDATA;
  1867   002DF4  CFA8 F03E          	movff	4008,_CTRauto	;volatile
  1868   002DF8                     l9951:
  1869                           
  1870                           ;main.c: 749:     if((setPotMan< 15)||(setPotMan> 99)){
  1871   002DF8  0E0E               	movlw	14
  1872   002DFA  6433               	cpfsgt	_setPotMan^0,c
  1873   002DFC  EF02  F017         	goto	u11361
  1874   002E00  EF04  F017         	goto	u11360
  1875   002E04                     u11361:
  1876   002E04  EF0C  F017         	goto	l9955
  1877   002E08                     u11360:
  1878   002E08  0E63               	movlw	99
  1879   002E0A  6433               	cpfsgt	_setPotMan^0,c
  1880   002E0C  EF0A  F017         	goto	u11371
  1881   002E10  EF0C  F017         	goto	u11370
  1882   002E14                     u11371:
  1883   002E14  EF1A  F017         	goto	l9963
  1884   002E18                     u11370:
  1885   002E18                     l9955:
  1886                           
  1887                           ;main.c: 750:         EEADR = 0x05 ;
  1888   002E18  0E05               	movlw	5
  1889   002E1A  6EA9               	movwf	169,c	;volatile
  1890   002E1C                     
  1891                           ;main.c: 751:         EECON1bits.EEPGD = 0;
  1892   002E1C  9EA6               	bcf	166,7,c	;volsfr
  1893   002E1E                     
  1894                           ;main.c: 752:         EECON1bits.CFGS = 0;
  1895   002E1E  9CA6               	bcf	166,6,c	;volsfr
  1896   002E20                     
  1897                           ;main.c: 753:         EECON1bits.RD = 1;
  1898   002E20  80A6               	bsf	166,0,c	;volsfr
  1899   002E22                     l705:
  1900                           
  1901                           ;main.c: 754:         while(EECON1bits.RD == 1){
  1902   002E22  B0A6               	btfsc	166,0,c	;volsfr
  1903   002E24  EF16  F017         	goto	u11381
  1904   002E28  EF18  F017         	goto	u11380
  1905   002E2C                     u11381:
  1906   002E2C  EF11  F017         	goto	l705
  1907   002E30                     u11380:
  1908   002E30                     
  1909                           ;main.c: 756:         setPotMan=EEDATA;
  1910   002E30  CFA8 F033          	movff	4008,_setPotMan	;volatile
  1911   002E34                     l9963:
  1912                           
  1913                           ;main.c: 758:     if((offSet == 0)||(offSet > 40)){
  1914   002E34  502F               	movf	_offSet^0,w,c
  1915   002E36  B4D8               	btfsc	status,2,c
  1916   002E38  EF20  F017         	goto	u11391
  1917   002E3C  EF22  F017         	goto	u11390
  1918   002E40                     u11391:
  1919   002E40  EF2A  F017         	goto	l9967
  1920   002E44                     u11390:
  1921   002E44  0E28               	movlw	40
  1922   002E46  642F               	cpfsgt	_offSet^0,c
  1923   002E48  EF28  F017         	goto	u11401
  1924   002E4C  EF2A  F017         	goto	u11400
  1925   002E50                     u11401:
  1926   002E50  EF36  F014         	goto	l9651
  1927   002E54                     u11400:
  1928   002E54                     l9967:
  1929                           
  1930                           ;main.c: 759:         EEADR = 0x06 ;
  1931   002E54  0E06               	movlw	6
  1932   002E56  6EA9               	movwf	169,c	;volatile
  1933   002E58                     
  1934                           ;main.c: 760:         EECON1bits.EEPGD = 0;
  1935   002E58  9EA6               	bcf	166,7,c	;volsfr
  1936   002E5A                     
  1937                           ;main.c: 761:         EECON1bits.CFGS = 0;
  1938   002E5A  9CA6               	bcf	166,6,c	;volsfr
  1939   002E5C                     
  1940                           ;main.c: 762:         EECON1bits.RD = 1;
  1941   002E5C  80A6               	bsf	166,0,c	;volsfr
  1942   002E5E                     l711:
  1943                           
  1944                           ;main.c: 763:         while(EECON1bits.RD == 1){
  1945   002E5E  B0A6               	btfsc	166,0,c	;volsfr
  1946   002E60  EF34  F017         	goto	u11411
  1947   002E64  EF36  F017         	goto	u11410
  1948   002E68                     u11411:
  1949   002E68  EF2F  F017         	goto	l711
  1950   002E6C                     u11410:
  1951   002E6C                     
  1952                           ;main.c: 765:         offSet=EEDATA;
  1953   002E6C  CFA8 F02F          	movff	4008,_offSet	;volatile
  1954   002E70  EF36  F014         	goto	l9651
  1955   002E74  EFBE  F002         	goto	start
  1956   002E78                     __end_of_main:
  1957                           	callstack 0
  1958                           
  1959 ;; *************** function _teclado *****************
  1960 ;; Defined at:
  1961 ;;		line 14 in file "teclado.c"
  1962 ;; Parameters:    Size  Location     Type
  1963 ;;		None
  1964 ;; Auto vars:     Size  Location     Type
  1965 ;;		None
  1966 ;; Return value:  Size  Location     Type
  1967 ;;                  1    wreg      void 
  1968 ;; Registers used:
  1969 ;;		wreg, status,2, status,0
  1970 ;; Tracked objects:
  1971 ;;		On entry : 0/0
  1972 ;;		On exit  : 0/0
  1973 ;;		Unchanged: 0/0
  1974 ;; Data sizes:     COMRAM   BANK0   BANK1   BANK2   BANK3   BANK4   BANK5
  1975 ;;      Params:         0       0       0       0       0       0       0
  1976 ;;      Locals:         0       0       0       0       0       0       0
  1977 ;;      Temps:          0       0       0       0       0       0       0
  1978 ;;      Totals:         0       0       0       0       0       0       0
  1979 ;;Total ram usage:        0 bytes
  1980 ;; Hardware stack levels used: 1
  1981 ;; Hardware stack levels required when called: 2
  1982 ;; This function calls:
  1983 ;;		Nothing
  1984 ;; This function is called by:
  1985 ;;		_main
  1986 ;; This function uses a non-reentrant model
  1987 ;;
  1988                           
  1989                           	psect	text1
  1990   003D78                     __ptext1:
  1991                           	callstack 0
  1992   003D78                     _teclado:
  1993                           	callstack 28
  1994   003D78                     
  1995                           ;teclado.c: 15:     INTCONbits.INT0E = 1;
  1996   003D78  88F2               	bsf	242,4,c	;volatile
  1997   003D7A                     
  1998                           ;teclado.c: 16:     resetWatch = 0;
  1999   003D7A  0E00               	movlw	0
  2000   003D7C  0100               	movlb	0	; () banked
  2001   003D7E  6F9F               	movwf	(_resetWatch+1)& (0+255),b
  2002   003D80  0E00               	movlw	0
  2003   003D82  6F9E               	movwf	_resetWatch& (0+255),b
  2004   003D84                     
  2005                           ; BSR set to: 0
  2006                           ;teclado.c: 18:     if((PORTAbits.RA3 == 0) && (PORTAbits.RA4 == 1) && (PORTAbits.RA5 ==
      +                           1)){
  2007   003D84  B680               	btfsc	128,3,c	;volatile
  2008   003D86  EFC7  F01E         	goto	u6241
  2009   003D8A  EFC9  F01E         	goto	u6240
  2010   003D8E                     u6241:
  2011   003D8E  EFE4  F01E         	goto	l7105
  2012   003D92                     u6240:
  2013   003D92                     
  2014                           ; BSR set to: 0
  2015   003D92  A880               	btfss	128,4,c	;volatile
  2016   003D94  EFCE  F01E         	goto	u6251
  2017   003D98  EFD0  F01E         	goto	u6250
  2018   003D9C                     u6251:
  2019   003D9C  EFE4  F01E         	goto	l7105
  2020   003DA0                     u6250:
  2021   003DA0                     
  2022                           ; BSR set to: 0
  2023   003DA0  AA80               	btfss	128,5,c	;volatile
  2024   003DA2  EFD5  F01E         	goto	u6261
  2025   003DA6  EFD7  F01E         	goto	u6260
  2026   003DAA                     u6261:
  2027   003DAA  EFE4  F01E         	goto	l7105
  2028   003DAE                     u6260:
  2029   003DAE                     
  2030                           ; BSR set to: 0
  2031                           ;teclado.c: 19:         _delay((unsigned long)((1)*(4000000/4000.0)));
  2032   003DAE  0EC8               	movlw	200
  2033   003DB0                     u11427:
  2034   003DB0  D000               	nop2	
  2035   003DB2  2EE8               	decfsz	wreg,f,c
  2036   003DB4  D7FD               	bra	u11427
  2037   003DB6                     
  2038                           ;teclado.c: 20:         if(PORTAbits.RA3==0){
  2039   003DB6  B680               	btfsc	128,3,c	;volatile
  2040   003DB8  EFE0  F01E         	goto	u6271
  2041   003DBC  EFE2  F01E         	goto	u6270
  2042   003DC0                     u6271:
  2043   003DC0  EFE4  F01E         	goto	l7105
  2044   003DC4                     u6270:
  2045   003DC4                     
  2046                           ;teclado.c: 21:             up++;
  2047   003DC4  0100               	movlb	0	; () banked
  2048   003DC6  2BE2               	incf	_up& (0+255),f,b
  2049   003DC8                     l7105:
  2050                           
  2051                           ;teclado.c: 25:     if((PORTAbits.RA4 == 0) && (PORTAbits.RA3 == 1) && (PORTAbits.RA5 ==
      +                           1)){
  2052   003DC8  B880               	btfsc	128,4,c	;volatile
  2053   003DCA  EFE9  F01E         	goto	u6281
  2054   003DCE  EFEB  F01E         	goto	u6280
  2055   003DD2                     u6281:
  2056   003DD2  EF06  F01F         	goto	l7117
  2057   003DD6                     u6280:
  2058   003DD6  A680               	btfss	128,3,c	;volatile
  2059   003DD8  EFF0  F01E         	goto	u6291
  2060   003DDC  EFF2  F01E         	goto	u6290
  2061   003DE0                     u6291:
  2062   003DE0  EF06  F01F         	goto	l7117
  2063   003DE4                     u6290:
  2064   003DE4  AA80               	btfss	128,5,c	;volatile
  2065   003DE6  EFF7  F01E         	goto	u6301
  2066   003DEA  EFF9  F01E         	goto	u6300
  2067   003DEE                     u6301:
  2068   003DEE  EF06  F01F         	goto	l7117
  2069   003DF2                     u6300:
  2070   003DF2                     
  2071                           ;teclado.c: 26:         _delay((unsigned long)((1)*(4000000/4000.0)));
  2072   003DF2  0EC8               	movlw	200
  2073   003DF4                     u11437:
  2074   003DF4  D000               	nop2	
  2075   003DF6  2EE8               	decfsz	wreg,f,c
  2076   003DF8  D7FD               	bra	u11437
  2077   003DFA                     
  2078                           ;teclado.c: 27:         if(PORTAbits.RA4==0){
  2079   003DFA  B880               	btfsc	128,4,c	;volatile
  2080   003DFC  EF02  F01F         	goto	u6311
  2081   003E00  EF04  F01F         	goto	u6310
  2082   003E04                     u6311:
  2083   003E04  EF06  F01F         	goto	l7117
  2084   003E08                     u6310:
  2085   003E08                     
  2086                           ;teclado.c: 28:             down++;
  2087   003E08  0100               	movlb	0	; () banked
  2088   003E0A  2BE1               	incf	_down& (0+255),f,b
  2089   003E0C                     l7117:
  2090                           
  2091                           ;teclado.c: 32:     if((PORTAbits.RA5== 0) && (PORTAbits.RA4 == 1) && (PORTAbits.RA3 == 
      +                          1)){
  2092   003E0C  BA80               	btfsc	128,5,c	;volatile
  2093   003E0E  EF0B  F01F         	goto	u6321
  2094   003E12  EF0D  F01F         	goto	u6320
  2095   003E16                     u6321:
  2096   003E16  EF29  F01F         	goto	l7129
  2097   003E1A                     u6320:
  2098   003E1A  A880               	btfss	128,4,c	;volatile
  2099   003E1C  EF12  F01F         	goto	u6331
  2100   003E20  EF14  F01F         	goto	u6330
  2101   003E24                     u6331:
  2102   003E24  EF29  F01F         	goto	l7129
  2103   003E28                     u6330:
  2104   003E28  A680               	btfss	128,3,c	;volatile
  2105   003E2A  EF19  F01F         	goto	u6341
  2106   003E2E  EF1B  F01F         	goto	u6340
  2107   003E32                     u6341:
  2108   003E32  EF29  F01F         	goto	l7129
  2109   003E36                     u6340:
  2110   003E36                     
  2111                           ;teclado.c: 33:         _delay((unsigned long)((1)*(4000000/4000.0)));
  2112   003E36  0EC8               	movlw	200
  2113   003E38                     u11447:
  2114   003E38  D000               	nop2	
  2115   003E3A  2EE8               	decfsz	wreg,f,c
  2116   003E3C  D7FD               	bra	u11447
  2117   003E3E                     
  2118                           ;teclado.c: 34:         if(PORTAbits.RA5==0){
  2119   003E3E  BA80               	btfsc	128,5,c	;volatile
  2120   003E40  EF24  F01F         	goto	u6351
  2121   003E44  EF26  F01F         	goto	u6350
  2122   003E48                     u6351:
  2123   003E48  EF29  F01F         	goto	l7129
  2124   003E4C                     u6350:
  2125   003E4C                     
  2126                           ;teclado.c: 35:             enter++;
  2127   003E4C  0100               	movlb	0	; () banked
  2128   003E4E  4B9C               	infsnz	_enter& (0+255),f,b
  2129   003E50  2B9D               	incf	(_enter+1)& (0+255),f,b
  2130   003E52                     l7129:
  2131                           
  2132                           ;teclado.c: 39:     if((up > 5) && (PORTAbits.RA3 == 1)){
  2133   003E52  0E05               	movlw	5
  2134   003E54  0100               	movlb	0	; () banked
  2135   003E56  65E2               	cpfsgt	_up& (0+255),b
  2136   003E58  EF30  F01F         	goto	u6361
  2137   003E5C  EF32  F01F         	goto	u6360
  2138   003E60                     u6361:
  2139   003E60  EF3D  F01F         	goto	l7135
  2140   003E64                     u6360:
  2141   003E64                     
  2142                           ; BSR set to: 0
  2143   003E64  A680               	btfss	128,3,c	;volatile
  2144   003E66  EF37  F01F         	goto	u6371
  2145   003E6A  EF39  F01F         	goto	u6370
  2146   003E6E                     u6371:
  2147   003E6E  EF3D  F01F         	goto	l7135
  2148   003E72                     u6370:
  2149   003E72                     
  2150                           ; BSR set to: 0
  2151                           ;teclado.c: 40:         tecla=0b00000001;
  2152   003E72  0E01               	movlw	1
  2153   003E74  6E3F               	movwf	_tecla^0,c
  2154                           
  2155                           ;teclado.c: 41:         up=0x00;
  2156   003E76  0E00               	movlw	0
  2157   003E78  6FE2               	movwf	_up& (0+255),b
  2158   003E7A                     l7135:
  2159                           
  2160                           ; BSR set to: 0
  2161                           ;teclado.c: 43:     if((down > 5) && (PORTAbits.RA4 == 1)){
  2162   003E7A  0E05               	movlw	5
  2163   003E7C  65E1               	cpfsgt	_down& (0+255),b
  2164   003E7E  EF43  F01F         	goto	u6381
  2165   003E82  EF45  F01F         	goto	u6380
  2166   003E86                     u6381:
  2167   003E86  EF50  F01F         	goto	l7141
  2168   003E8A                     u6380:
  2169   003E8A                     
  2170                           ; BSR set to: 0
  2171   003E8A  A880               	btfss	128,4,c	;volatile
  2172   003E8C  EF4A  F01F         	goto	u6391
  2173   003E90  EF4C  F01F         	goto	u6390
  2174   003E94                     u6391:
  2175   003E94  EF50  F01F         	goto	l7141
  2176   003E98                     u6390:
  2177   003E98                     
  2178                           ; BSR set to: 0
  2179                           ;teclado.c: 44:         tecla=0b00000010;
  2180   003E98  0E02               	movlw	2
  2181   003E9A  6E3F               	movwf	_tecla^0,c
  2182                           
  2183                           ;teclado.c: 45:         down=0x00;
  2184   003E9C  0E00               	movlw	0
  2185   003E9E  6FE1               	movwf	_down& (0+255),b
  2186   003EA0                     l7141:
  2187                           
  2188                           ; BSR set to: 0
  2189                           ;teclado.c: 50:     if((enter > 3) && (PORTAbits.RA5 == 1)){
  2190   003EA0  BF9D               	btfsc	(_enter+1)& (0+255),7,b
  2191   003EA2  EF5C  F01F         	goto	u6401
  2192   003EA6  519D               	movf	(_enter+1)& (0+255),w,b
  2193   003EA8  E109               	bnz	u6400
  2194   003EAA  0E04               	movlw	4
  2195   003EAC  5D9C               	subwf	_enter& (0+255),w,b
  2196   003EAE  A0D8               	btfss	status,0,c
  2197   003EB0  EF5C  F01F         	goto	u6401
  2198   003EB4  EF5E  F01F         	goto	u6400
  2199   003EB8                     u6401:
  2200   003EB8  EFA7  F01F         	goto	l27
  2201   003EBC                     u6400:
  2202   003EBC                     
  2203                           ; BSR set to: 0
  2204   003EBC  AA80               	btfss	128,5,c	;volatile
  2205   003EBE  EF63  F01F         	goto	u6411
  2206   003EC2  EF65  F01F         	goto	u6410
  2207   003EC6                     u6411:
  2208   003EC6  EFA7  F01F         	goto	l27
  2209   003ECA                     u6410:
  2210   003ECA                     
  2211                           ; BSR set to: 0
  2212                           ;teclado.c: 51:         if(enter < 150){
  2213   003ECA  BF9D               	btfsc	(_enter+1)& (0+255),7,b
  2214   003ECC  EF73  F01F         	goto	u6420
  2215   003ED0  519D               	movf	(_enter+1)& (0+255),w,b
  2216   003ED2  E107               	bnz	u6421
  2217   003ED4  0E96               	movlw	150
  2218   003ED6  5D9C               	subwf	_enter& (0+255),w,b
  2219   003ED8  B0D8               	btfsc	status,0,c
  2220   003EDA  EF71  F01F         	goto	u6421
  2221   003EDE  EF73  F01F         	goto	u6420
  2222   003EE2                     u6421:
  2223   003EE2  EF75  F01F         	goto	l7149
  2224   003EE6                     u6420:
  2225   003EE6                     
  2226                           ; BSR set to: 0
  2227                           ;teclado.c: 52:                 tecla = 0b00000100;
  2228   003EE6  0E04               	movlw	4
  2229   003EE8  6E3F               	movwf	_tecla^0,c
  2230   003EEA                     l7149:
  2231                           
  2232                           ; BSR set to: 0
  2233   003EEA  BF9D               	btfsc	(_enter+1)& (0+255),7,b
  2234   003EEC  EF83  F01F         	goto	u6430
  2235   003EF0  0E5F               	movlw	95
  2236   003EF2  5D9C               	subwf	_enter& (0+255),w,b
  2237   003EF4  0E01               	movlw	1
  2238   003EF6  599D               	subwfb	(_enter+1)& (0+255),w,b
  2239   003EF8  B0D8               	btfsc	status,0,c
  2240   003EFA  EF81  F01F         	goto	u6431
  2241   003EFE  EF83  F01F         	goto	u6430
  2242   003F02                     u6431:
  2243   003F02  EF93  F01F         	goto	l7155
  2244   003F06                     u6430:
  2245   003F06                     
  2246                           ; BSR set to: 0
  2247   003F06  BF9D               	btfsc	(_enter+1)& (0+255),7,b
  2248   003F08  EF8F  F01F         	goto	u6441
  2249   003F0C  519D               	movf	(_enter+1)& (0+255),w,b
  2250   003F0E  E109               	bnz	u6440
  2251   003F10  0E96               	movlw	150
  2252   003F12  5D9C               	subwf	_enter& (0+255),w,b
  2253   003F14  A0D8               	btfss	status,0,c
  2254   003F16  EF8F  F01F         	goto	u6441
  2255   003F1A  EF91  F01F         	goto	u6440
  2256   003F1E                     u6441:
  2257   003F1E  EF93  F01F         	goto	l7155
  2258   003F22                     u6440:
  2259   003F22                     
  2260                           ; BSR set to: 0
  2261                           ;teclado.c: 54:                 tecla = 0b00001000;
  2262   003F22  0E08               	movlw	8
  2263   003F24  6E3F               	movwf	_tecla^0,c
  2264   003F26                     l7155:
  2265                           
  2266                           ; BSR set to: 0
  2267   003F26  BF9D               	btfsc	(_enter+1)& (0+255),7,b
  2268   003F28  EF9F  F01F         	goto	u6451
  2269   003F2C  0E5F               	movlw	95
  2270   003F2E  5D9C               	subwf	_enter& (0+255),w,b
  2271   003F30  0E01               	movlw	1
  2272   003F32  599D               	subwfb	(_enter+1)& (0+255),w,b
  2273   003F34  A0D8               	btfss	status,0,c
  2274   003F36  EF9F  F01F         	goto	u6451
  2275   003F3A  EFA1  F01F         	goto	u6450
  2276   003F3E                     u6451:
  2277   003F3E  EFA3  F01F         	goto	l30
  2278   003F42                     u6450:
  2279   003F42                     
  2280                           ; BSR set to: 0
  2281                           ;teclado.c: 56:                 tecla = 0b00010000;
  2282   003F42  0E10               	movlw	16
  2283   003F44  6E3F               	movwf	_tecla^0,c
  2284   003F46                     l30:
  2285                           
  2286                           ; BSR set to: 0
  2287                           ;teclado.c: 58:         enter = 0x00;
  2288   003F46  0E00               	movlw	0
  2289   003F48  6F9D               	movwf	(_enter+1)& (0+255),b
  2290   003F4A  0E00               	movlw	0
  2291   003F4C  6F9C               	movwf	_enter& (0+255),b
  2292   003F4E                     l27:
  2293                           
  2294                           ; BSR set to: 0
  2295                           ;teclado.c: 60:     resetWatch = 0;
  2296   003F4E  0E00               	movlw	0
  2297   003F50  6F9F               	movwf	(_resetWatch+1)& (0+255),b
  2298   003F52  0E00               	movlw	0
  2299   003F54  6F9E               	movwf	_resetWatch& (0+255),b
  2300   003F56                     
  2301                           ; BSR set to: 0
  2302   003F56  0012               	return		;funcret
  2303   003F58                     __end_of_teclado:
  2304                           	callstack 0
  2305                           
  2306 ;; *************** function _salidaPotencia *****************
  2307 ;; Defined at:
  2308 ;;		line 14 in file "salidaPotencia.c"
  2309 ;; Parameters:    Size  Location     Type
  2310 ;;		None
  2311 ;; Auto vars:     Size  Location     Type
  2312 ;;		None
  2313 ;; Return value:  Size  Location     Type
  2314 ;;                  1    wreg      void 
  2315 ;; Registers used:
  2316 ;;		wreg, status,2, status,0, prodl, prodh, cstack
  2317 ;; Tracked objects:
  2318 ;;		On entry : 0/0
  2319 ;;		On exit  : 0/0
  2320 ;;		Unchanged: 0/0
  2321 ;; Data sizes:     COMRAM   BANK0   BANK1   BANK2   BANK3   BANK4   BANK5
  2322 ;;      Params:         0       0       0       0       0       0       0
  2323 ;;      Locals:         0       0       0       0       0       0       0
  2324 ;;      Temps:          5       0       0       0       0       0       0
  2325 ;;      Totals:         5       0       0       0       0       0       0
  2326 ;;Total ram usage:        5 bytes
  2327 ;; Hardware stack levels used: 1
  2328 ;; Hardware stack levels required when called: 3
  2329 ;; This function calls:
  2330 ;;		___awdiv
  2331 ;;		___wmul
  2332 ;; This function is called by:
  2333 ;;		_main
  2334 ;; This function uses a non-reentrant model
  2335 ;;
  2336                           
  2337                           	psect	text2
  2338   0033E2                     __ptext2:
  2339                           	callstack 0
  2340   0033E2                     _salidaPotencia:
  2341                           	callstack 27
  2342   0033E2                     
  2343                           ;salidaPotencia.c: 15:     INTCONbits.INT0E = 1;
  2344   0033E2  88F2               	bsf	242,4,c	;volatile
  2345   0033E4                     
  2346                           ;salidaPotencia.c: 16:     resetWatch = 0;
  2347   0033E4  0E00               	movlw	0
  2348   0033E6  0100               	movlb	0	; () banked
  2349   0033E8  6F9F               	movwf	(_resetWatch+1)& (0+255),b
  2350   0033EA  0E00               	movlw	0
  2351   0033EC  6F9E               	movwf	_resetWatch& (0+255),b
  2352                           
  2353                           ;salidaPotencia.c: 17:     if(CTRauto == 0){
  2354   0033EE  503E               	movf	_CTRauto^0,w,c
  2355   0033F0  A4D8               	btfss	status,2,c
  2356   0033F2  EFFD  F019         	goto	u6461
  2357   0033F6  EFFF  F019         	goto	u6460
  2358   0033FA                     u6461:
  2359   0033FA  EFD1  F01B         	goto	l7271
  2360   0033FE                     u6460:
  2361   0033FE                     
  2362                           ; BSR set to: 0
  2363                           ;salidaPotencia.c: 18:         w ++;
  2364   0033FE  2BDD               	incf	_w& (0+255),f,b
  2365   003400                     
  2366                           ; BSR set to: 0
  2367                           ;salidaPotencia.c: 19:         if(alarmaFxSen > 0){
  2368   003400  503D               	movf	_alarmaFxSen^0,w,c
  2369   003402  B4D8               	btfsc	status,2,c
  2370   003404  EF06  F01A         	goto	u6471
  2371   003408  EF08  F01A         	goto	u6470
  2372   00340C                     u6471:
  2373   00340C  EF0B  F01A         	goto	l7171
  2374   003410                     u6470:
  2375   003410                     
  2376                           ; BSR set to: 0
  2377                           ;salidaPotencia.c: 20:             salPotencia = SPFxSen;
  2378   003410  C03C  F00B         	movff	_SPFxSen,_salPotencia
  2379   003414  6A0C               	clrf	(_salPotencia+1)^0,c
  2380   003416                     l7171:
  2381                           
  2382                           ; BSR set to: 0
  2383                           ;salidaPotencia.c: 22:         if((alarmaFxSen == 0) && (alarmaFxBaj > 0)){
  2384   003416  503D               	movf	_alarmaFxSen^0,w,c
  2385   003418  A4D8               	btfss	status,2,c
  2386   00341A  EF11  F01A         	goto	u6481
  2387   00341E  EF13  F01A         	goto	u6480
  2388   003422                     u6481:
  2389   003422  EF1E  F01A         	goto	l7177
  2390   003426                     u6480:
  2391   003426                     
  2392                           ; BSR set to: 0
  2393   003426  503B               	movf	_alarmaFxBaj^0,w,c
  2394   003428  B4D8               	btfsc	status,2,c
  2395   00342A  EF19  F01A         	goto	u6491
  2396   00342E  EF1B  F01A         	goto	u6490
  2397   003432                     u6491:
  2398   003432  EF1E  F01A         	goto	l7177
  2399   003436                     u6490:
  2400   003436                     
  2401                           ; BSR set to: 0
  2402                           ;salidaPotencia.c: 23:             salPotencia = SPFxBaj;
  2403   003436  C03A  F00B         	movff	_SPFxBaj,_salPotencia
  2404   00343A  6A0C               	clrf	(_salPotencia+1)^0,c
  2405   00343C                     l7177:
  2406                           
  2407                           ; BSR set to: 0
  2408                           ;salidaPotencia.c: 25:         if((alarmaFxSen == 0) && (alarmaFxAlt > 0)){
  2409   00343C  503D               	movf	_alarmaFxSen^0,w,c
  2410   00343E  A4D8               	btfss	status,2,c
  2411   003440  EF24  F01A         	goto	u6501
  2412   003444  EF26  F01A         	goto	u6500
  2413   003448                     u6501:
  2414   003448  EF31  F01A         	goto	l7183
  2415   00344C                     u6500:
  2416   00344C                     
  2417                           ; BSR set to: 0
  2418   00344C  5039               	movf	_alarmaFxAlt^0,w,c
  2419   00344E  B4D8               	btfsc	status,2,c
  2420   003450  EF2C  F01A         	goto	u6511
  2421   003454  EF2E  F01A         	goto	u6510
  2422   003458                     u6511:
  2423   003458  EF31  F01A         	goto	l7183
  2424   00345C                     u6510:
  2425   00345C                     
  2426                           ; BSR set to: 0
  2427                           ;salidaPotencia.c: 26:             salPotencia = SPFxAlt;
  2428   00345C  C038  F00B         	movff	_SPFxAlt,_salPotencia
  2429   003460  6A0C               	clrf	(_salPotencia+1)^0,c
  2430   003462                     l7183:
  2431                           
  2432                           ; BSR set to: 0
  2433                           ;salidaPotencia.c: 28:         if((alarmaFxSen == 0) && (alarmaFxAlt == 0) && (alarmaFxB
      +                          aj == 0)){
  2434   003462  503D               	movf	_alarmaFxSen^0,w,c
  2435   003464  A4D8               	btfss	status,2,c
  2436   003466  EF37  F01A         	goto	u6521
  2437   00346A  EF39  F01A         	goto	u6520
  2438   00346E                     u6521:
  2439   00346E  EFD1  F01A         	goto	l7207
  2440   003472                     u6520:
  2441   003472                     
  2442                           ; BSR set to: 0
  2443   003472  5039               	movf	_alarmaFxAlt^0,w,c
  2444   003474  A4D8               	btfss	status,2,c
  2445   003476  EF3F  F01A         	goto	u6531
  2446   00347A  EF41  F01A         	goto	u6530
  2447   00347E                     u6531:
  2448   00347E  EFD1  F01A         	goto	l7207
  2449   003482                     u6530:
  2450   003482                     
  2451                           ; BSR set to: 0
  2452   003482  503B               	movf	_alarmaFxBaj^0,w,c
  2453   003484  A4D8               	btfss	status,2,c
  2454   003486  EF47  F01A         	goto	u6541
  2455   00348A  EF49  F01A         	goto	u6540
  2456   00348E                     u6541:
  2457   00348E  EFD1  F01A         	goto	l7207
  2458   003492                     u6540:
  2459   003492                     
  2460                           ; BSR set to: 0
  2461                           ;salidaPotencia.c: 29:     tempMuestra = tempDisplay << 1;
  2462   003492  5037               	movf	_tempDisplay^0,w,c
  2463   003494  2437               	addwf	_tempDisplay^0,w,c
  2464   003496  6E32               	movwf	_tempMuestra^0,c
  2465                           
  2466                           ;salidaPotencia.c: 31:     if(tempDecimal == 1){
  2467   003498  0436               	decf	_tempDecimal^0,w,c
  2468   00349A  A4D8               	btfss	status,2,c
  2469   00349C  EF52  F01A         	goto	u6551
  2470   0034A0  EF54  F01A         	goto	u6550
  2471   0034A4                     u6551:
  2472   0034A4  EF5B  F01A         	goto	l7193
  2473   0034A8                     u6550:
  2474   0034A8                     
  2475                           ; BSR set to: 0
  2476                           ;salidaPotencia.c: 32:         tempMuestra = tempMuestra & 0b11111110;
  2477   0034A8  5032               	movf	_tempMuestra^0,w,c
  2478   0034AA  0BFE               	andlw	254
  2479   0034AC  6E32               	movwf	_tempMuestra^0,c
  2480                           
  2481                           ;salidaPotencia.c: 33:         tempMuestra = tempMuestra + 0x01;
  2482   0034AE  2832               	incf	_tempMuestra^0,w,c
  2483   0034B0  6E32               	movwf	_tempMuestra^0,c
  2484                           
  2485                           ;salidaPotencia.c: 34:     }else{
  2486   0034B2  EF5E  F01A         	goto	l88
  2487   0034B6                     l7193:
  2488                           
  2489                           ; BSR set to: 0
  2490                           ;salidaPotencia.c: 35:         tempMuestra = tempMuestra & 0b11111110;
  2491   0034B6  5032               	movf	_tempMuestra^0,w,c
  2492   0034B8  0BFE               	andlw	254
  2493   0034BA  6E32               	movwf	_tempMuestra^0,c
  2494   0034BC                     l88:
  2495                           
  2496                           ; BSR set to: 0
  2497                           ;salidaPotencia.c: 38:     if(tempNeg == 1){
  2498   0034BC  0435               	decf	_tempNeg^0,w,c
  2499   0034BE  A4D8               	btfss	status,2,c
  2500   0034C0  EF64  F01A         	goto	u6561
  2501   0034C4  EF66  F01A         	goto	u6560
  2502   0034C8                     u6561:
  2503   0034C8  EF6B  F01A         	goto	l7197
  2504   0034CC                     u6560:
  2505   0034CC                     
  2506                           ; BSR set to: 0
  2507                           ;salidaPotencia.c: 39:         tempSpPv = setPoint + tempMuestra;
  2508   0034CC  5040               	movf	_setPoint^0,w,c
  2509   0034CE  2432               	addwf	_tempMuestra^0,w,c
  2510   0034D0  6FDE               	movwf	_tempSpPv& (0+255),b
  2511                           
  2512                           ;salidaPotencia.c: 40:     }else{
  2513   0034D2  EF79  F01A         	goto	l90
  2514   0034D6                     l7197:
  2515                           
  2516                           ; BSR set to: 0
  2517                           ;salidaPotencia.c: 41:         tempSpPv = setPoint - tempMuestra;
  2518   0034D6  5032               	movf	_tempMuestra^0,w,c
  2519   0034D8  5C40               	subwf	_setPoint^0,w,c
  2520   0034DA  6FDE               	movwf	_tempSpPv& (0+255),b
  2521                           
  2522                           ;salidaPotencia.c: 42:         if(tempMuestra > setPoint){
  2523   0034DC  5032               	movf	_tempMuestra^0,w,c
  2524   0034DE  5C40               	subwf	_setPoint^0,w,c
  2525   0034E0  B0D8               	btfsc	status,0,c
  2526   0034E2  EF75  F01A         	goto	u6571
  2527   0034E6  EF77  F01A         	goto	u6570
  2528   0034EA                     u6571:
  2529   0034EA  EF79  F01A         	goto	l90
  2530   0034EE                     u6570:
  2531   0034EE                     
  2532                           ; BSR set to: 0
  2533                           ;salidaPotencia.c: 43:             tempSpPv = 0x00;
  2534   0034EE  0E00               	movlw	0
  2535   0034F0  6FDE               	movwf	_tempSpPv& (0+255),b
  2536   0034F2                     l90:
  2537                           
  2538                           ; BSR set to: 0
  2539                           ;salidaPotencia.c: 46:     resetWatch = 0;
  2540   0034F2  0E00               	movlw	0
  2541   0034F4  6F9F               	movwf	(_resetWatch+1)& (0+255),b
  2542   0034F6  0E00               	movlw	0
  2543   0034F8  6F9E               	movwf	_resetWatch& (0+255),b
  2544   0034FA                     
  2545                           ; BSR set to: 0
  2546                           ;salidaPotencia.c: 47:     if(((setPointAUX - 5) > tempDisplay) || ((setPointAUX + 5) < 
      +                          tempDisplay)){
  2547   0034FA  0EFB               	movlw	251
  2548   0034FC  2434               	addwf	_setPointAUX^0,w,c
  2549   0034FE  6E51               	movwf	??_salidaPotencia^0,c
  2550   003500  6A52               	clrf	(??_salidaPotencia+1)^0,c
  2551   003502  0EFF               	movlw	255
  2552   003504  2252               	addwfc	(??_salidaPotencia+1)^0,f,c
  2553   003506  5037               	movf	_tempDisplay^0,w,c
  2554   003508  6E53               	movwf	(??_salidaPotencia+2)^0,c
  2555   00350A  6A54               	clrf	(??_salidaPotencia+3)^0,c
  2556   00350C  5051               	movf	??_salidaPotencia^0,w,c
  2557   00350E  5C53               	subwf	(??_salidaPotencia+2)^0,w,c
  2558   003510  5054               	movf	(??_salidaPotencia+3)^0,w,c
  2559   003512  0A80               	xorlw	128
  2560   003514  6E55               	movwf	(??_salidaPotencia+4)^0,c
  2561   003516  5052               	movf	(??_salidaPotencia+1)^0,w,c
  2562   003518  0A80               	xorlw	128
  2563   00351A  5855               	subwfb	(??_salidaPotencia+4)^0,w,c
  2564   00351C  A0D8               	btfss	status,0,c
  2565   00351E  EF93  F01A         	goto	u6581
  2566   003522  EF95  F01A         	goto	u6580
  2567   003526                     u6581:
  2568   003526  EFAE  F01A         	goto	l94
  2569   00352A                     u6580:
  2570   00352A                     
  2571                           ; BSR set to: 0
  2572   00352A  5037               	movf	_tempDisplay^0,w,c
  2573   00352C  6E51               	movwf	??_salidaPotencia^0,c
  2574   00352E  6A52               	clrf	(??_salidaPotencia+1)^0,c
  2575   003530  5034               	movf	_setPointAUX^0,w,c
  2576   003532  6E53               	movwf	(??_salidaPotencia+2)^0,c
  2577   003534  6A54               	clrf	(??_salidaPotencia+3)^0,c
  2578   003536  0E05               	movlw	5
  2579   003538  2653               	addwf	(??_salidaPotencia+2)^0,f,c
  2580   00353A  0E00               	movlw	0
  2581   00353C  2254               	addwfc	(??_salidaPotencia+3)^0,f,c
  2582   00353E  5051               	movf	??_salidaPotencia^0,w,c
  2583   003540  5C53               	subwf	(??_salidaPotencia+2)^0,w,c
  2584   003542  5054               	movf	(??_salidaPotencia+3)^0,w,c
  2585   003544  0A80               	xorlw	128
  2586   003546  6E55               	movwf	(??_salidaPotencia+4)^0,c
  2587   003548  5052               	movf	(??_salidaPotencia+1)^0,w,c
  2588   00354A  0A80               	xorlw	128
  2589   00354C  5855               	subwfb	(??_salidaPotencia+4)^0,w,c
  2590   00354E  B0D8               	btfsc	status,0,c
  2591   003550  EFAC  F01A         	goto	u6591
  2592   003554  EFAE  F01A         	goto	u6590
  2593   003558                     u6591:
  2594   003558  EFD1  F01A         	goto	l7207
  2595   00355C                     u6590:
  2596   00355C                     l94:
  2597                           
  2598                           ; BSR set to: 0
  2599                           ;salidaPotencia.c: 48:     salPotenciaAnterior = salPotencia;
  2600   00355C  C00B  F031         	movff	_salPotencia,_salPotenciaAnterior
  2601   003560                     
  2602                           ; BSR set to: 0
  2603                           ;salidaPotencia.c: 50:     denominador = (20*setPoint)/100;
  2604   003560  5040               	movf	_setPoint^0,w,c
  2605   003562  0D14               	mullw	20
  2606   003564  CFF3 F049          	movff	prodl,___awdiv@dividend
  2607   003568  CFF4 F04A          	movff	prodh,___awdiv@dividend+1
  2608   00356C  0E00               	movlw	0
  2609   00356E  6E4C               	movwf	(___awdiv@divisor+1)^0,c
  2610   003570  0E64               	movlw	100
  2611   003572  6E4B               	movwf	___awdiv@divisor^0,c
  2612   003574  ECAE  F021         	call	___awdiv	;wreg free
  2613   003578  C049  F098         	movff	?___awdiv,_denominador
  2614   00357C  C04A  F099         	movff	?___awdiv+1,_denominador+1
  2615                           
  2616                           ;salidaPotencia.c: 52:     salPotencia = (tempSpPv * 100 ) / denominador;
  2617   003580  0100               	movlb	0	; () banked
  2618   003582  51DE               	movf	_tempSpPv& (0+255),w,b
  2619   003584  0D64               	mullw	100
  2620   003586  CFF3 F049          	movff	prodl,___awdiv@dividend
  2621   00358A  CFF4 F04A          	movff	prodh,___awdiv@dividend+1
  2622   00358E  C098  F04B         	movff	_denominador,___awdiv@divisor
  2623   003592  C099  F04C         	movff	_denominador+1,___awdiv@divisor+1
  2624   003596  ECAE  F021         	call	___awdiv	;wreg free
  2625   00359A  C049  F00B         	movff	?___awdiv,_salPotencia
  2626   00359E  C04A  F00C         	movff	?___awdiv+1,_salPotencia+1
  2627   0035A2                     l7207:
  2628                           
  2629                           ;salidaPotencia.c: 56:         if(((setPointAUX - 3) > tempDisplay) || ((setPointAUX + 3
      +                          ) < tempDisplay)){
  2630   0035A2  0EFD               	movlw	253
  2631   0035A4  2434               	addwf	_setPointAUX^0,w,c
  2632   0035A6  6E51               	movwf	??_salidaPotencia^0,c
  2633   0035A8  6A52               	clrf	(??_salidaPotencia+1)^0,c
  2634   0035AA  0EFF               	movlw	255
  2635   0035AC  2252               	addwfc	(??_salidaPotencia+1)^0,f,c
  2636   0035AE  5037               	movf	_tempDisplay^0,w,c
  2637   0035B0  6E53               	movwf	(??_salidaPotencia+2)^0,c
  2638   0035B2  6A54               	clrf	(??_salidaPotencia+3)^0,c
  2639   0035B4  5051               	movf	??_salidaPotencia^0,w,c
  2640   0035B6  5C53               	subwf	(??_salidaPotencia+2)^0,w,c
  2641   0035B8  5054               	movf	(??_salidaPotencia+3)^0,w,c
  2642   0035BA  0A80               	xorlw	128
  2643   0035BC  6E55               	movwf	(??_salidaPotencia+4)^0,c
  2644   0035BE  5052               	movf	(??_salidaPotencia+1)^0,w,c
  2645   0035C0  0A80               	xorlw	128
  2646   0035C2  5855               	subwfb	(??_salidaPotencia+4)^0,w,c
  2647   0035C4  A0D8               	btfss	status,0,c
  2648   0035C6  EFE7  F01A         	goto	u6601
  2649   0035CA  EFE9  F01A         	goto	u6600
  2650   0035CE                     u6601:
  2651   0035CE  EF02  F01B         	goto	l7211
  2652   0035D2                     u6600:
  2653   0035D2  5037               	movf	_tempDisplay^0,w,c
  2654   0035D4  6E51               	movwf	??_salidaPotencia^0,c
  2655   0035D6  6A52               	clrf	(??_salidaPotencia+1)^0,c
  2656   0035D8  5034               	movf	_setPointAUX^0,w,c
  2657   0035DA  6E53               	movwf	(??_salidaPotencia+2)^0,c
  2658   0035DC  6A54               	clrf	(??_salidaPotencia+3)^0,c
  2659   0035DE  0E03               	movlw	3
  2660   0035E0  2653               	addwf	(??_salidaPotencia+2)^0,f,c
  2661   0035E2  0E00               	movlw	0
  2662   0035E4  2254               	addwfc	(??_salidaPotencia+3)^0,f,c
  2663   0035E6  5051               	movf	??_salidaPotencia^0,w,c
  2664   0035E8  5C53               	subwf	(??_salidaPotencia+2)^0,w,c
  2665   0035EA  5054               	movf	(??_salidaPotencia+3)^0,w,c
  2666   0035EC  0A80               	xorlw	128
  2667   0035EE  6E55               	movwf	(??_salidaPotencia+4)^0,c
  2668   0035F0  5052               	movf	(??_salidaPotencia+1)^0,w,c
  2669   0035F2  0A80               	xorlw	128
  2670   0035F4  5855               	subwfb	(??_salidaPotencia+4)^0,w,c
  2671   0035F6  B0D8               	btfsc	status,0,c
  2672   0035F8  EF00  F01B         	goto	u6611
  2673   0035FC  EF02  F01B         	goto	u6610
  2674   003600                     u6611:
  2675   003600  EF52  F01B         	goto	l7231
  2676   003604                     u6610:
  2677   003604                     l7211:
  2678                           
  2679                           ;salidaPotencia.c: 57:             if((salPotencia > salPotenciaAnterior) && ((salPotenc
      +                          ia - salPotenciaAnterior) > 5)){
  2680   003604  5031               	movf	_salPotenciaAnterior^0,w,c
  2681   003606  6E51               	movwf	??_salidaPotencia^0,c
  2682   003608  6A52               	clrf	(??_salidaPotencia+1)^0,c
  2683   00360A  500B               	movf	_salPotencia^0,w,c
  2684   00360C  5C51               	subwf	??_salidaPotencia^0,w,c
  2685   00360E  500C               	movf	(_salPotencia+1)^0,w,c
  2686   003610  5852               	subwfb	(??_salidaPotencia+1)^0,w,c
  2687   003612  B0D8               	btfsc	status,0,c
  2688   003614  EF0E  F01B         	goto	u6621
  2689   003618  EF10  F01B         	goto	u6620
  2690   00361C                     u6621:
  2691   00361C  EF2A  F01B         	goto	l7221
  2692   003620                     u6620:
  2693   003620  5031               	movf	_salPotenciaAnterior^0,w,c
  2694   003622  5C0B               	subwf	_salPotencia^0,w,c
  2695   003624  6E51               	movwf	??_salidaPotencia^0,c
  2696   003626  0E00               	movlw	0
  2697   003628  580C               	subwfb	(_salPotencia+1)^0,w,c
  2698   00362A  6E52               	movwf	(??_salidaPotencia+1)^0,c
  2699   00362C  5052               	movf	(??_salidaPotencia+1)^0,w,c
  2700   00362E  E109               	bnz	u6630
  2701   003630  0E06               	movlw	6
  2702   003632  5C51               	subwf	??_salidaPotencia^0,w,c
  2703   003634  A0D8               	btfss	status,0,c
  2704   003636  EF1F  F01B         	goto	u6631
  2705   00363A  EF21  F01B         	goto	u6630
  2706   00363E                     u6631:
  2707   00363E  EF2A  F01B         	goto	l7221
  2708   003642                     u6630:
  2709   003642                     
  2710                           ;salidaPotencia.c: 58:                 salPotenciaAnterior = salPotenciaAnterior + 5;
  2711   003642  5031               	movf	_salPotenciaAnterior^0,w,c
  2712   003644  0F05               	addlw	5
  2713   003646  6E31               	movwf	_salPotenciaAnterior^0,c
  2714   003648                     
  2715                           ;salidaPotencia.c: 59:                 salPotencia = salPotenciaAnterior;
  2716   003648  C031  F00B         	movff	_salPotenciaAnterior,_salPotencia
  2717   00364C  6A0C               	clrf	(_salPotencia+1)^0,c
  2718   00364E                     
  2719                           ;salidaPotencia.c: 60:                 w = 0;
  2720   00364E  0E00               	movlw	0
  2721   003650  0100               	movlb	0	; () banked
  2722   003652  6FDD               	movwf	_w& (0+255),b
  2723   003654                     l7221:
  2724                           
  2725                           ;salidaPotencia.c: 62:             if((salPotencia < salPotenciaAnterior) && ((salPotenc
      +                          iaAnterior - salPotencia) > 5)){
  2726   003654  5031               	movf	_salPotenciaAnterior^0,w,c
  2727   003656  5C0B               	subwf	_salPotencia^0,w,c
  2728   003658  0E00               	movlw	0
  2729   00365A  580C               	subwfb	(_salPotencia+1)^0,w,c
  2730   00365C  B0D8               	btfsc	status,0,c
  2731   00365E  EF33  F01B         	goto	u6641
  2732   003662  EF35  F01B         	goto	u6640
  2733   003666                     u6641:
  2734   003666  EF8A  F01B         	goto	l7251
  2735   00366A                     u6640:
  2736   00366A  5031               	movf	_salPotenciaAnterior^0,w,c
  2737   00366C  6E51               	movwf	??_salidaPotencia^0,c
  2738   00366E  6A52               	clrf	(??_salidaPotencia+1)^0,c
  2739   003670  500B               	movf	_salPotencia^0,w,c
  2740   003672  5E51               	subwf	??_salidaPotencia^0,f,c
  2741   003674  500C               	movf	(_salPotencia+1)^0,w,c
  2742   003676  5A52               	subwfb	(??_salidaPotencia+1)^0,f,c
  2743   003678  5052               	movf	(??_salidaPotencia+1)^0,w,c
  2744   00367A  E109               	bnz	u6650
  2745   00367C  0E06               	movlw	6
  2746   00367E  5C51               	subwf	??_salidaPotencia^0,w,c
  2747   003680  A0D8               	btfss	status,0,c
  2748   003682  EF45  F01B         	goto	u6651
  2749   003686  EF47  F01B         	goto	u6650
  2750   00368A                     u6651:
  2751   00368A  EF8A  F01B         	goto	l7251
  2752   00368E                     u6650:
  2753   00368E                     
  2754                           ;salidaPotencia.c: 63:                 salPotenciaAnterior = salPotenciaAnterior - 5;
  2755   00368E  5031               	movf	_salPotenciaAnterior^0,w,c
  2756   003690  0FFB               	addlw	251
  2757   003692  6E31               	movwf	_salPotenciaAnterior^0,c
  2758   003694                     
  2759                           ;salidaPotencia.c: 64:                 salPotencia = salPotenciaAnterior;
  2760   003694  C031  F00B         	movff	_salPotenciaAnterior,_salPotencia
  2761   003698  6A0C               	clrf	(_salPotencia+1)^0,c
  2762   00369A                     l7229:
  2763                           
  2764                           ;salidaPotencia.c: 65:                 w = 0;
  2765   00369A  0E00               	movlw	0
  2766   00369C  0100               	movlb	0	; () banked
  2767   00369E  6FDD               	movwf	_w& (0+255),b
  2768   0036A0  EF8A  F01B         	goto	l7251
  2769   0036A4                     l7231:
  2770                           
  2771                           ;salidaPotencia.c: 68:             if((tempDisplay > setPointAUX) && (w >2)){
  2772   0036A4  5037               	movf	_tempDisplay^0,w,c
  2773   0036A6  5C34               	subwf	_setPointAUX^0,w,c
  2774   0036A8  B0D8               	btfsc	status,0,c
  2775   0036AA  EF59  F01B         	goto	u6661
  2776   0036AE  EF5B  F01B         	goto	u6660
  2777   0036B2                     u6661:
  2778   0036B2  EF6E  F01B         	goto	l7241
  2779   0036B6                     u6660:
  2780   0036B6  0E02               	movlw	2
  2781   0036B8  0100               	movlb	0	; () banked
  2782   0036BA  65DD               	cpfsgt	_w& (0+255),b
  2783   0036BC  EF62  F01B         	goto	u6671
  2784   0036C0  EF64  F01B         	goto	u6670
  2785   0036C4                     u6671:
  2786   0036C4  EF6E  F01B         	goto	l7241
  2787   0036C8                     u6670:
  2788   0036C8                     
  2789                           ; BSR set to: 0
  2790                           ;salidaPotencia.c: 69:                 salPotencia = salPotencia - 3;
  2791   0036C8  0EFD               	movlw	253
  2792   0036CA  240B               	addwf	_salPotencia^0,w,c
  2793   0036CC  6E0B               	movwf	_salPotencia^0,c
  2794   0036CE  0EFF               	movlw	255
  2795   0036D0  200C               	addwfc	(_salPotencia+1)^0,w,c
  2796   0036D2  6E0C               	movwf	(_salPotencia+1)^0,c
  2797   0036D4                     
  2798                           ; BSR set to: 0
  2799                           ;salidaPotencia.c: 70:                 salPotenciaAnterior = salPotencia;
  2800   0036D4  C00B  F031         	movff	_salPotencia,_salPotenciaAnterior
  2801   0036D8                     
  2802                           ; BSR set to: 0
  2803                           ;salidaPotencia.c: 71:                 w=0;
  2804   0036D8  0E00               	movlw	0
  2805   0036DA  6FDD               	movwf	_w& (0+255),b
  2806   0036DC                     l7241:
  2807                           
  2808                           ;salidaPotencia.c: 73:             if((tempDisplay < setPointAUX) && (w >2)){
  2809   0036DC  5034               	movf	_setPointAUX^0,w,c
  2810   0036DE  5C37               	subwf	_tempDisplay^0,w,c
  2811   0036E0  B0D8               	btfsc	status,0,c
  2812   0036E2  EF75  F01B         	goto	u6681
  2813   0036E6  EF77  F01B         	goto	u6680
  2814   0036EA                     u6681:
  2815   0036EA  EF8A  F01B         	goto	l7251
  2816   0036EE                     u6680:
  2817   0036EE  0E02               	movlw	2
  2818   0036F0  0100               	movlb	0	; () banked
  2819   0036F2  65DD               	cpfsgt	_w& (0+255),b
  2820   0036F4  EF7E  F01B         	goto	u6691
  2821   0036F8  EF80  F01B         	goto	u6690
  2822   0036FC                     u6691:
  2823   0036FC  EF8A  F01B         	goto	l7251
  2824   003700                     u6690:
  2825   003700                     
  2826                           ; BSR set to: 0
  2827                           ;salidaPotencia.c: 74:                 salPotencia = salPotencia + 3;
  2828   003700  0E03               	movlw	3
  2829   003702  240B               	addwf	_salPotencia^0,w,c
  2830   003704  6E0B               	movwf	_salPotencia^0,c
  2831   003706  0E00               	movlw	0
  2832   003708  200C               	addwfc	(_salPotencia+1)^0,w,c
  2833   00370A  6E0C               	movwf	(_salPotencia+1)^0,c
  2834   00370C                     
  2835                           ; BSR set to: 0
  2836                           ;salidaPotencia.c: 75:                 salPotenciaAnterior = salPotencia;
  2837   00370C  C00B  F031         	movff	_salPotencia,_salPotenciaAnterior
  2838   003710  EF4D  F01B         	goto	l7229
  2839   003714                     l7251:
  2840                           
  2841                           ;salidaPotencia.c: 90:     if(salPotencia > 99){
  2842   003714  500C               	movf	(_salPotencia+1)^0,w,c
  2843   003716  E109               	bnz	u6700
  2844   003718  0E64               	movlw	100
  2845   00371A  5C0B               	subwf	_salPotencia^0,w,c
  2846   00371C  A0D8               	btfss	status,0,c
  2847   00371E  EF93  F01B         	goto	u6701
  2848   003722  EF95  F01B         	goto	u6700
  2849   003726                     u6701:
  2850   003726  EF99  F01B         	goto	l7255
  2851   00372A                     u6700:
  2852   00372A                     
  2853                           ;salidaPotencia.c: 91:         salPotencia = 99;
  2854   00372A  0E00               	movlw	0
  2855   00372C  6E0C               	movwf	(_salPotencia+1)^0,c
  2856   00372E  0E63               	movlw	99
  2857   003730  6E0B               	movwf	_salPotencia^0,c
  2858   003732                     l7255:
  2859                           
  2860                           ;salidaPotencia.c: 94:     if(salPotencia < 15){
  2861   003732  500C               	movf	(_salPotencia+1)^0,w,c
  2862   003734  E107               	bnz	u6711
  2863   003736  0E0F               	movlw	15
  2864   003738  5C0B               	subwf	_salPotencia^0,w,c
  2865   00373A  B0D8               	btfsc	status,0,c
  2866   00373C  EFA2  F01B         	goto	u6711
  2867   003740  EFA4  F01B         	goto	u6710
  2868   003744                     u6711:
  2869   003744  EFA8  F01B         	goto	l7259
  2870   003748                     u6710:
  2871   003748                     
  2872                           ;salidaPotencia.c: 95:         salPotencia = 15;
  2873   003748  0E00               	movlw	0
  2874   00374A  6E0C               	movwf	(_salPotencia+1)^0,c
  2875   00374C  0E0F               	movlw	15
  2876   00374E  6E0B               	movwf	_salPotencia^0,c
  2877   003750                     l7259:
  2878                           
  2879                           ;salidaPotencia.c: 97:     if(salPotencia > 93){
  2880   003750  500C               	movf	(_salPotencia+1)^0,w,c
  2881   003752  E109               	bnz	u6720
  2882   003754  0E5E               	movlw	94
  2883   003756  5C0B               	subwf	_salPotencia^0,w,c
  2884   003758  A0D8               	btfss	status,0,c
  2885   00375A  EFB1  F01B         	goto	u6721
  2886   00375E  EFB3  F01B         	goto	u6720
  2887   003762                     u6721:
  2888   003762  EFBA  F01B         	goto	l7263
  2889   003766                     u6720:
  2890   003766                     
  2891                           ;salidaPotencia.c: 100:         salPotenciaAux = 0x0258;
  2892   003766  0E02               	movlw	2
  2893   003768  0100               	movlb	0	; () banked
  2894   00376A  6F9B               	movwf	(_salPotenciaAux+1)& (0+255),b
  2895   00376C  0E58               	movlw	88
  2896   00376E  6F9A               	movwf	_salPotenciaAux& (0+255),b
  2897                           
  2898                           ;salidaPotencia.c: 101:     }else{
  2899   003770  EFCB  F01B         	goto	l7265
  2900   003774                     l7263:
  2901                           
  2902                           ;salidaPotencia.c: 102:             salPotenciaAux = 10000 - (salPotencia * 100) ;
  2903   003774  C00B  F049         	movff	_salPotencia,___wmul@multiplier
  2904   003778  C00C  F04A         	movff	_salPotencia+1,___wmul@multiplier+1
  2905   00377C  0EFF               	movlw	255
  2906   00377E  6E4C               	movwf	(___wmul@multiplicand+1)^0,c
  2907   003780  0E9C               	movlw	156
  2908   003782  6E4B               	movwf	___wmul@multiplicand^0,c
  2909   003784  EC35  F024         	call	___wmul	;wreg free
  2910   003788  0E10               	movlw	16
  2911   00378A  2449               	addwf	?___wmul^0,w,c
  2912   00378C  0100               	movlb	0	; () banked
  2913   00378E  6F9A               	movwf	_salPotenciaAux& (0+255),b
  2914   003790  0E27               	movlw	39
  2915   003792  204A               	addwfc	(?___wmul+1)^0,w,c
  2916   003794  6F9B               	movwf	(_salPotenciaAux+1)& (0+255),b
  2917   003796                     l7265:
  2918                           
  2919                           ; BSR set to: 0
  2920                           ;salidaPotencia.c: 107:     salPotenciaAux = (0xffff - salPotenciaAux);
  2921   003796  1F9A               	comf	_salPotenciaAux& (0+255),f,b
  2922   003798  1F9B               	comf	(_salPotenciaAux+1)& (0+255),f,b
  2923   00379A                     
  2924                           ; BSR set to: 0
  2925                           ;salidaPotencia.c: 109:     salPotenciaAux0 = salPotenciaAux;
  2926   00379A  C09A  F0E0         	movff	_salPotenciaAux,_salPotenciaAux0
  2927   00379E                     
  2928                           ; BSR set to: 0
  2929                           ;salidaPotencia.c: 111:     salPotenciaAux1 = salPotenciaAux>>8;
  2930   00379E  519B               	movf	(_salPotenciaAux+1)& (0+255),w,b
  2931   0037A0  6FDF               	movwf	_salPotenciaAux1& (0+255),b
  2932   0037A2                     l7271:
  2933                           
  2934                           ; BSR set to: 0
  2935                           ;salidaPotencia.c: 114:     if(CTRauto == 1){
  2936   0037A2  043E               	decf	_CTRauto^0,w,c
  2937   0037A4  A4D8               	btfss	status,2,c
  2938   0037A6  EFD7  F01B         	goto	u6731
  2939   0037AA  EFD9  F01B         	goto	u6730
  2940   0037AE                     u6731:
  2941   0037AE  EF04  F01C         	goto	l7287
  2942   0037B2                     u6730:
  2943   0037B2                     
  2944                           ; BSR set to: 0
  2945                           ;salidaPotencia.c: 115:         salPotencia = setPotMan;
  2946   0037B2  C033  F00B         	movff	_setPotMan,_salPotencia
  2947   0037B6  6A0C               	clrf	(_salPotencia+1)^0,c
  2948   0037B8                     
  2949                           ; BSR set to: 0
  2950                           ;salidaPotencia.c: 116:         if(salPotencia > 93){
  2951   0037B8  500C               	movf	(_salPotencia+1)^0,w,c
  2952   0037BA  E109               	bnz	u6740
  2953   0037BC  0E5E               	movlw	94
  2954   0037BE  5C0B               	subwf	_salPotencia^0,w,c
  2955   0037C0  A0D8               	btfss	status,0,c
  2956   0037C2  EFE5  F01B         	goto	u6741
  2957   0037C6  EFE7  F01B         	goto	u6740
  2958   0037CA                     u6741:
  2959   0037CA  EFED  F01B         	goto	l7279
  2960   0037CE                     u6740:
  2961   0037CE                     
  2962                           ; BSR set to: 0
  2963                           ;salidaPotencia.c: 119:         salPotenciaAux = 0x0258;
  2964   0037CE  0E02               	movlw	2
  2965   0037D0  6F9B               	movwf	(_salPotenciaAux+1)& (0+255),b
  2966   0037D2  0E58               	movlw	88
  2967   0037D4  6F9A               	movwf	_salPotenciaAux& (0+255),b
  2968                           
  2969                           ;salidaPotencia.c: 120:     }else{
  2970   0037D6  EFFE  F01B         	goto	l7281
  2971   0037DA                     l7279:
  2972                           
  2973                           ; BSR set to: 0
  2974                           ;salidaPotencia.c: 121:             salPotenciaAux = 10000 - (salPotencia * 100) ;
  2975   0037DA  C00B  F049         	movff	_salPotencia,___wmul@multiplier
  2976   0037DE  C00C  F04A         	movff	_salPotencia+1,___wmul@multiplier+1
  2977   0037E2  0EFF               	movlw	255
  2978   0037E4  6E4C               	movwf	(___wmul@multiplicand+1)^0,c
  2979   0037E6  0E9C               	movlw	156
  2980   0037E8  6E4B               	movwf	___wmul@multiplicand^0,c
  2981   0037EA  EC35  F024         	call	___wmul	;wreg free
  2982   0037EE  0E10               	movlw	16
  2983   0037F0  2449               	addwf	?___wmul^0,w,c
  2984   0037F2  0100               	movlb	0	; () banked
  2985   0037F4  6F9A               	movwf	_salPotenciaAux& (0+255),b
  2986   0037F6  0E27               	movlw	39
  2987   0037F8  204A               	addwfc	(?___wmul+1)^0,w,c
  2988   0037FA  6F9B               	movwf	(_salPotenciaAux+1)& (0+255),b
  2989   0037FC                     l7281:
  2990                           
  2991                           ; BSR set to: 0
  2992                           ;salidaPotencia.c: 125:         salPotenciaAux = (0xffff - salPotenciaAux);
  2993   0037FC  1F9A               	comf	_salPotenciaAux& (0+255),f,b
  2994   0037FE  1F9B               	comf	(_salPotenciaAux+1)& (0+255),f,b
  2995   003800                     
  2996                           ; BSR set to: 0
  2997                           ;salidaPotencia.c: 127:     salPotenciaAux0 = salPotenciaAux;
  2998   003800  C09A  F0E0         	movff	_salPotenciaAux,_salPotenciaAux0
  2999   003804                     
  3000                           ; BSR set to: 0
  3001                           ;salidaPotencia.c: 129:     salPotenciaAux1 = salPotenciaAux>>8;
  3002   003804  519B               	movf	(_salPotenciaAux+1)& (0+255),w,b
  3003   003806  6FDF               	movwf	_salPotenciaAux1& (0+255),b
  3004   003808                     l7287:
  3005                           
  3006                           ; BSR set to: 0
  3007                           ;salidaPotencia.c: 132:     resetWatch = 0;
  3008   003808  0E00               	movlw	0
  3009   00380A  6F9F               	movwf	(_resetWatch+1)& (0+255),b
  3010   00380C  0E00               	movlw	0
  3011   00380E  6F9E               	movwf	_resetWatch& (0+255),b
  3012   003810                     
  3013                           ; BSR set to: 0
  3014   003810  0012               	return		;funcret
  3015   003812                     __end_of_salidaPotencia:
  3016                           	callstack 0
  3017                           
  3018 ;; *************** function ___wmul *****************
  3019 ;; Defined at:
  3020 ;;		line 15 in file "C:\Program Files\Microchip\xc8\v2.40\pic\sources\c99\common\Umul16.c"
  3021 ;; Parameters:    Size  Location     Type
  3022 ;;  multiplier      2    8[COMRAM] unsigned int 
  3023 ;;  multiplicand    2   10[COMRAM] unsigned int 
  3024 ;; Auto vars:     Size  Location     Type
  3025 ;;  product         2   12[COMRAM] unsigned int 
  3026 ;; Return value:  Size  Location     Type
  3027 ;;                  2    8[COMRAM] unsigned int 
  3028 ;; Registers used:
  3029 ;;		wreg, status,2, status,0, prodl, prodh
  3030 ;; Tracked objects:
  3031 ;;		On entry : 0/0
  3032 ;;		On exit  : 0/0
  3033 ;;		Unchanged: 0/0
  3034 ;; Data sizes:     COMRAM   BANK0   BANK1   BANK2   BANK3   BANK4   BANK5
  3035 ;;      Params:         4       0       0       0       0       0       0
  3036 ;;      Locals:         2       0       0       0       0       0       0
  3037 ;;      Temps:          0       0       0       0       0       0       0
  3038 ;;      Totals:         6       0       0       0       0       0       0
  3039 ;;Total ram usage:        6 bytes
  3040 ;; Hardware stack levels used: 1
  3041 ;; Hardware stack levels required when called: 2
  3042 ;; This function calls:
  3043 ;;		Nothing
  3044 ;; This function is called by:
  3045 ;;		_salidaPotencia
  3046 ;; This function uses a non-reentrant model
  3047 ;;
  3048                           
  3049                           	psect	text3
  3050   00486A                     __ptext3:
  3051                           	callstack 0
  3052   00486A                     ___wmul:
  3053                           	callstack 27
  3054   00486A  5049               	movf	___wmul@multiplier^0,w,c
  3055   00486C  024B               	mulwf	___wmul@multiplicand^0,c
  3056   00486E  CFF3 F04D          	movff	prodl,___wmul@product
  3057   004872  CFF4 F04E          	movff	prodh,___wmul@product+1
  3058   004876  5049               	movf	___wmul@multiplier^0,w,c
  3059   004878  024C               	mulwf	(___wmul@multiplicand+1)^0,c
  3060   00487A  50F3               	movf	243,w,c
  3061   00487C  264E               	addwf	(___wmul@product+1)^0,f,c
  3062   00487E  504A               	movf	(___wmul@multiplier+1)^0,w,c
  3063   004880  024B               	mulwf	___wmul@multiplicand^0,c
  3064   004882  50F3               	movf	243,w,c
  3065   004884  264E               	addwf	(___wmul@product+1)^0,f,c
  3066   004886  C04D  F049         	movff	___wmul@product,?___wmul
  3067   00488A  C04E  F04A         	movff	___wmul@product+1,?___wmul+1
  3068   00488E  0012               	return		;funcret
  3069   004890                     __end_of___wmul:
  3070                           	callstack 0
  3071                           
  3072 ;; *************** function _menu *****************
  3073 ;; Defined at:
  3074 ;;		line 35 in file "menu.c"
  3075 ;; Parameters:    Size  Location     Type
  3076 ;;		None
  3077 ;; Auto vars:     Size  Location     Type
  3078 ;;		None
  3079 ;; Return value:  Size  Location     Type
  3080 ;;                  1    wreg      void 
  3081 ;; Registers used:
  3082 ;;		wreg, status,2, status,0, cstack
  3083 ;; Tracked objects:
  3084 ;;		On entry : 0/0
  3085 ;;		On exit  : 0/0
  3086 ;;		Unchanged: 0/0
  3087 ;; Data sizes:     COMRAM   BANK0   BANK1   BANK2   BANK3   BANK4   BANK5
  3088 ;;      Params:         0       0       0       0       0       0       0
  3089 ;;      Locals:         0       0       0       0       0       0       0
  3090 ;;      Temps:          2       0       0       0       0       0       0
  3091 ;;      Totals:         2       0       0       0       0       0       0
  3092 ;;Total ram usage:        2 bytes
  3093 ;; Hardware stack levels used: 1
  3094 ;; Hardware stack levels required when called: 3
  3095 ;; This function calls:
  3096 ;;		_wrEprom
  3097 ;; This function is called by:
  3098 ;;		_main
  3099 ;; This function uses a non-reentrant model
  3100 ;;
  3101                           
  3102                           	psect	text4
  3103   00111A                     __ptext4:
  3104                           	callstack 0
  3105   00111A                     _menu:
  3106                           	callstack 27
  3107   00111A                     
  3108                           ;menu.c: 36:     INTCONbits.INT0E = 1;
  3109   00111A  88F2               	bsf	242,4,c	;volatile
  3110   00111C                     
  3111                           ;menu.c: 37:     resetWatch = 0;
  3112   00111C  0E00               	movlw	0
  3113   00111E  0100               	movlb	0	; () banked
  3114   001120  6F9F               	movwf	(_resetWatch+1)& (0+255),b
  3115   001122  0E00               	movlw	0
  3116   001124  6F9E               	movwf	_resetWatch& (0+255),b
  3117   001126                     
  3118                           ; BSR set to: 0
  3119                           ;menu.c: 38:     if(selMenu > 8){
  3120   001126  0E08               	movlw	8
  3121   001128  6430               	cpfsgt	_selMenu^0,c
  3122   00112A  EF99  F008         	goto	u6751
  3123   00112E  EF9B  F008         	goto	u6750
  3124   001132                     u6751:
  3125   001132  EF9D  F008         	goto	l173
  3126   001136                     u6750:
  3127   001136                     
  3128                           ; BSR set to: 0
  3129                           ;menu.c: 39:         selMenu = 0;
  3130   001136  0E00               	movlw	0
  3131   001138  6E30               	movwf	_selMenu^0,c
  3132   00113A                     l173:
  3133                           
  3134                           ; BSR set to: 0
  3135                           ;menu.c: 43:     if(selMenu == 0){
  3136   00113A  5030               	movf	_selMenu^0,w,c
  3137   00113C  A4D8               	btfss	status,2,c
  3138   00113E  EFA3  F008         	goto	u6761
  3139   001142  EFA5  F008         	goto	u6760
  3140   001146                     u6761:
  3141   001146  EF78  F009         	goto	l7373
  3142   00114A                     u6760:
  3143   00114A                     
  3144                           ; BSR set to: 0
  3145                           ;menu.c: 44:         resetWatch = 0;
  3146   00114A  0E00               	movlw	0
  3147   00114C  6F9F               	movwf	(_resetWatch+1)& (0+255),b
  3148   00114E  0E00               	movlw	0
  3149   001150  6F9E               	movwf	_resetWatch& (0+255),b
  3150                           
  3151                           ;menu.c: 47:         if(CTRauto == 0){
  3152   001152  503E               	movf	_CTRauto^0,w,c
  3153   001154  A4D8               	btfss	status,2,c
  3154   001156  EFAF  F008         	goto	u6771
  3155   00115A  EFB1  F008         	goto	u6770
  3156   00115E                     u6771:
  3157   00115E  EF1D  F009         	goto	l7341
  3158   001162                     u6770:
  3159   001162                     
  3160                           ; BSR set to: 0
  3161                           ;menu.c: 48:             if((alarmaFxBaj == 1)||(alarmaFxAlt == 1)||(alarmaFxSen == 1)){
  3162   001162  043B               	decf	_alarmaFxBaj^0,w,c
  3163   001164  B4D8               	btfsc	status,2,c
  3164   001166  EFB7  F008         	goto	u6781
  3165   00116A  EFB9  F008         	goto	u6780
  3166   00116E                     u6781:
  3167   00116E  EF1D  F009         	goto	l7341
  3168   001172                     u6780:
  3169   001172                     
  3170                           ; BSR set to: 0
  3171   001172  0439               	decf	_alarmaFxAlt^0,w,c
  3172   001174  B4D8               	btfsc	status,2,c
  3173   001176  EFBF  F008         	goto	u6791
  3174   00117A  EFC1  F008         	goto	u6790
  3175   00117E                     u6791:
  3176   00117E  EF1D  F009         	goto	l7341
  3177   001182                     u6790:
  3178   001182                     
  3179                           ; BSR set to: 0
  3180   001182  043D               	decf	_alarmaFxSen^0,w,c
  3181   001184  A4D8               	btfss	status,2,c
  3182   001186  EFC7  F008         	goto	u6801
  3183   00118A  EFC9  F008         	goto	u6800
  3184   00118E                     u6801:
  3185   00118E  EFCB  F008         	goto	l7307
  3186   001192                     u6800:
  3187   001192  EF1D  F009         	goto	l7341
  3188   001196                     l7307:
  3189                           
  3190                           ; BSR set to: 0
  3191                           ;menu.c: 55:                 if(tecla == 0x01){
  3192   001196  043F               	decf	_tecla^0,w,c
  3193   001198  A4D8               	btfss	status,2,c
  3194   00119A  EFD1  F008         	goto	u6811
  3195   00119E  EFD3  F008         	goto	u6810
  3196   0011A2                     u6811:
  3197   0011A2  EFE5  F008         	goto	l7319
  3198   0011A6                     u6810:
  3199   0011A6                     
  3200                           ; BSR set to: 0
  3201                           ;menu.c: 56:                     setPoint++;
  3202   0011A6  2A40               	incf	_setPoint^0,f,c
  3203   0011A8                     
  3204                           ; BSR set to: 0
  3205                           ;menu.c: 57:                     if(setPoint > 199){
  3206   0011A8  0EC7               	movlw	199
  3207   0011AA  6440               	cpfsgt	_setPoint^0,c
  3208   0011AC  EFDA  F008         	goto	u6821
  3209   0011B0  EFDC  F008         	goto	u6820
  3210   0011B4                     u6821:
  3211   0011B4  EFDE  F008         	goto	l7315
  3212   0011B8                     u6820:
  3213   0011B8                     
  3214                           ; BSR set to: 0
  3215                           ;menu.c: 58:                         setPoint = 0;
  3216   0011B8  0E00               	movlw	0
  3217   0011BA  6E40               	movwf	_setPoint^0,c
  3218   0011BC                     l7315:
  3219                           
  3220                           ; BSR set to: 0
  3221                           ;menu.c: 60:                     wrEprom( 0x00 , setPoint);
  3222   0011BC  C040  F049         	movff	_setPoint,wrEprom@dato
  3223   0011C0  0E00               	movlw	0
  3224   0011C2  EC1B  F024         	call	_wrEprom
  3225   0011C6                     
  3226                           ;menu.c: 61:                 tecla = 0x00;
  3227   0011C6  0E00               	movlw	0
  3228   0011C8  6E3F               	movwf	_tecla^0,c
  3229   0011CA                     l7319:
  3230                           
  3231                           ;menu.c: 63:                 if(tecla == 0x02){
  3232   0011CA  0E02               	movlw	2
  3233   0011CC  183F               	xorwf	_tecla^0,w,c
  3234   0011CE  A4D8               	btfss	status,2,c
  3235   0011D0  EFEC  F008         	goto	u6831
  3236   0011D4  EFEE  F008         	goto	u6830
  3237   0011D8                     u6831:
  3238   0011D8  EF08  F009         	goto	l7333
  3239   0011DC                     u6830:
  3240   0011DC                     
  3241                           ;menu.c: 64:                     setPoint--;
  3242   0011DC  0640               	decf	_setPoint^0,f,c
  3243   0011DE                     
  3244                           ;menu.c: 65:                     if((setPoint == 0)||(setPoint > 199)){
  3245   0011DE  5040               	movf	_setPoint^0,w,c
  3246   0011E0  B4D8               	btfsc	status,2,c
  3247   0011E2  EFF5  F008         	goto	u6841
  3248   0011E6  EFF7  F008         	goto	u6840
  3249   0011EA                     u6841:
  3250   0011EA  EFFF  F008         	goto	l7327
  3251   0011EE                     u6840:
  3252   0011EE  0EC7               	movlw	199
  3253   0011F0  6440               	cpfsgt	_setPoint^0,c
  3254   0011F2  EFFD  F008         	goto	u6851
  3255   0011F6  EFFF  F008         	goto	u6850
  3256   0011FA                     u6851:
  3257   0011FA  EF01  F009         	goto	l7329
  3258   0011FE                     u6850:
  3259   0011FE                     l7327:
  3260                           
  3261                           ;menu.c: 66:                         setPoint = 199;
  3262   0011FE  0EC7               	movlw	199
  3263   001200  6E40               	movwf	_setPoint^0,c
  3264   001202                     l7329:
  3265                           
  3266                           ;menu.c: 68:                     wrEprom( 0x00 , setPoint);
  3267   001202  C040  F049         	movff	_setPoint,wrEprom@dato
  3268   001206  0E00               	movlw	0
  3269   001208  EC1B  F024         	call	_wrEprom
  3270   00120C                     
  3271                           ;menu.c: 69:                 tecla = 0x00;
  3272   00120C  0E00               	movlw	0
  3273   00120E  6E3F               	movwf	_tecla^0,c
  3274   001210                     l7333:
  3275                           
  3276                           ;menu.c: 71:                 if(tecla == 0x04){
  3277   001210  0E04               	movlw	4
  3278   001212  183F               	xorwf	_tecla^0,w,c
  3279   001214  A4D8               	btfss	status,2,c
  3280   001216  EF0F  F009         	goto	u6861
  3281   00121A  EF11  F009         	goto	u6860
  3282   00121E                     u6861:
  3283   00121E  EF1D  F009         	goto	l7341
  3284   001222                     u6860:
  3285   001222                     
  3286                           ;menu.c: 72:                         pilotoSensor = 0;
  3287   001222  0E00               	movlw	0
  3288   001224  0100               	movlb	0	; () banked
  3289   001226  6FDC               	movwf	_pilotoSensor& (0+255),b
  3290                           
  3291                           ;menu.c: 73:                         pilotoAlarma = 0;
  3292   001228  0E00               	movlw	0
  3293   00122A  6FDB               	movwf	_pilotoAlarma& (0+255),b
  3294   00122C                     
  3295                           ; BSR set to: 0
  3296                           ;menu.c: 74:                     wrEprom( 0x00 , setPoint);
  3297   00122C  C040  F049         	movff	_setPoint,wrEprom@dato
  3298   001230  0E00               	movlw	0
  3299   001232  EC1B  F024         	call	_wrEprom
  3300   001236                     
  3301                           ;menu.c: 75:                     tecla = 0x00;
  3302   001236  0E00               	movlw	0
  3303   001238  6E3F               	movwf	_tecla^0,c
  3304   00123A                     l7341:
  3305                           
  3306                           ;menu.c: 82:         if(CTRauto == 1){
  3307   00123A  043E               	decf	_CTRauto^0,w,c
  3308   00123C  A4D8               	btfss	status,2,c
  3309   00123E  EF23  F009         	goto	u6871
  3310   001242  EF25  F009         	goto	u6870
  3311   001246                     u6871:
  3312   001246  EF60  F009         	goto	l7365
  3313   00124A                     u6870:
  3314   00124A                     
  3315                           ;menu.c: 84:             if(tecla == 0x01){
  3316   00124A  043F               	decf	_tecla^0,w,c
  3317   00124C  A4D8               	btfss	status,2,c
  3318   00124E  EF2B  F009         	goto	u6881
  3319   001252  EF2D  F009         	goto	u6880
  3320   001256                     u6881:
  3321   001256  EF3A  F009         	goto	l7351
  3322   00125A                     u6880:
  3323   00125A                     
  3324                           ;menu.c: 85:                 setPotMan++;
  3325   00125A  2A33               	incf	_setPotMan^0,f,c
  3326   00125C                     
  3327                           ;menu.c: 86:                 if(setPotMan > 99){
  3328   00125C  0E63               	movlw	99
  3329   00125E  6433               	cpfsgt	_setPotMan^0,c
  3330   001260  EF34  F009         	goto	u6891
  3331   001264  EF36  F009         	goto	u6890
  3332   001268                     u6891:
  3333   001268  EF38  F009         	goto	l189
  3334   00126C                     u6890:
  3335   00126C                     
  3336                           ;menu.c: 87:                     setPotMan = 99;
  3337   00126C  0E63               	movlw	99
  3338   00126E  6E33               	movwf	_setPotMan^0,c
  3339   001270                     l189:
  3340                           
  3341                           ;menu.c: 89:             tecla = 0x00;
  3342   001270  0E00               	movlw	0
  3343   001272  6E3F               	movwf	_tecla^0,c
  3344   001274                     l7351:
  3345                           
  3346                           ;menu.c: 91:             if(tecla == 0x02){
  3347   001274  0E02               	movlw	2
  3348   001276  183F               	xorwf	_tecla^0,w,c
  3349   001278  A4D8               	btfss	status,2,c
  3350   00127A  EF41  F009         	goto	u6901
  3351   00127E  EF43  F009         	goto	u6900
  3352   001282                     u6901:
  3353   001282  EF50  F009         	goto	l7359
  3354   001286                     u6900:
  3355   001286                     
  3356                           ;menu.c: 92:                 setPotMan--;
  3357   001286  0633               	decf	_setPotMan^0,f,c
  3358   001288                     
  3359                           ;menu.c: 93:                 if(setPotMan < 15){
  3360   001288  0E0F               	movlw	15
  3361   00128A  6033               	cpfslt	_setPotMan^0,c
  3362   00128C  EF4A  F009         	goto	u6911
  3363   001290  EF4C  F009         	goto	u6910
  3364   001294                     u6911:
  3365   001294  EF4E  F009         	goto	l191
  3366   001298                     u6910:
  3367   001298                     
  3368                           ;menu.c: 94:                     setPotMan = 15;
  3369   001298  0E0F               	movlw	15
  3370   00129A  6E33               	movwf	_setPotMan^0,c
  3371   00129C                     l191:
  3372                           
  3373                           ;menu.c: 96:                 tecla = 0x00;
  3374   00129C  0E00               	movlw	0
  3375   00129E  6E3F               	movwf	_tecla^0,c
  3376   0012A0                     l7359:
  3377                           
  3378                           ;menu.c: 98:             if(tecla == 0x04){
  3379   0012A0  0E04               	movlw	4
  3380   0012A2  183F               	xorwf	_tecla^0,w,c
  3381   0012A4  A4D8               	btfss	status,2,c
  3382   0012A6  EF57  F009         	goto	u6921
  3383   0012AA  EF59  F009         	goto	u6920
  3384   0012AE                     u6921:
  3385   0012AE  EF60  F009         	goto	l7365
  3386   0012B2                     u6920:
  3387   0012B2                     
  3388                           ;menu.c: 99:                 wrEprom( 0x05 , setPotMan);
  3389   0012B2  C033  F049         	movff	_setPotMan,wrEprom@dato
  3390   0012B6  0E05               	movlw	5
  3391   0012B8  EC1B  F024         	call	_wrEprom
  3392   0012BC                     
  3393                           ;menu.c: 100:                 tecla = 0x00;
  3394   0012BC  0E00               	movlw	0
  3395   0012BE  6E3F               	movwf	_tecla^0,c
  3396   0012C0                     l7365:
  3397                           
  3398                           ;menu.c: 103:         if(tecla == 0x08){
  3399   0012C0  0E08               	movlw	8
  3400   0012C2  183F               	xorwf	_tecla^0,w,c
  3401   0012C4  A4D8               	btfss	status,2,c
  3402   0012C6  EF67  F009         	goto	u6931
  3403   0012CA  EF69  F009         	goto	u6930
  3404   0012CE                     u6931:
  3405   0012CE  EF6B  F009         	goto	l7369
  3406   0012D2                     u6930:
  3407   0012D2                     
  3408                           ;menu.c: 104:             tecla = 0x00;
  3409   0012D2  0E00               	movlw	0
  3410   0012D4  6E3F               	movwf	_tecla^0,c
  3411   0012D6                     l7369:
  3412                           
  3413                           ;menu.c: 106:             if(tecla == 0x10){
  3414   0012D6  0E10               	movlw	16
  3415   0012D8  183F               	xorwf	_tecla^0,w,c
  3416   0012DA  A4D8               	btfss	status,2,c
  3417   0012DC  EF72  F009         	goto	u6941
  3418   0012E0  EF74  F009         	goto	u6940
  3419   0012E4                     u6941:
  3420   0012E4  EF78  F009         	goto	l7373
  3421   0012E8                     u6940:
  3422   0012E8                     
  3423                           ;menu.c: 107:                 selMenu = 8;
  3424   0012E8  0E08               	movlw	8
  3425   0012EA  6E30               	movwf	_selMenu^0,c
  3426                           
  3427                           ;menu.c: 108:                 tecla = 0x00;
  3428   0012EC  0E00               	movlw	0
  3429   0012EE  6E3F               	movwf	_tecla^0,c
  3430   0012F0                     l7373:
  3431                           
  3432                           ;menu.c: 114:     if(selMenu == 1){
  3433   0012F0  0430               	decf	_selMenu^0,w,c
  3434   0012F2  A4D8               	btfss	status,2,c
  3435   0012F4  EF7E  F009         	goto	u6951
  3436   0012F8  EF80  F009         	goto	u6950
  3437   0012FC                     u6951:
  3438   0012FC  EFDB  F009         	goto	l7411
  3439   001300                     u6950:
  3440   001300                     
  3441                           ;menu.c: 115:         resetWatch = 0;
  3442   001300  0E00               	movlw	0
  3443   001302  0100               	movlb	0	; () banked
  3444   001304  6F9F               	movwf	(_resetWatch+1)& (0+255),b
  3445   001306  0E00               	movlw	0
  3446   001308  6F9E               	movwf	_resetWatch& (0+255),b
  3447   00130A                     
  3448                           ; BSR set to: 0
  3449                           ;menu.c: 116:         if(tecla == 0x01){
  3450   00130A  043F               	decf	_tecla^0,w,c
  3451   00130C  A4D8               	btfss	status,2,c
  3452   00130E  EF8B  F009         	goto	u6961
  3453   001312  EF8D  F009         	goto	u6960
  3454   001316                     u6961:
  3455   001316  EF9A  F009         	goto	l7385
  3456   00131A                     u6960:
  3457   00131A                     
  3458                           ; BSR set to: 0
  3459                           ;menu.c: 117:             SPFxBaj++;
  3460   00131A  2A3A               	incf	_SPFxBaj^0,f,c
  3461   00131C                     
  3462                           ; BSR set to: 0
  3463                           ;menu.c: 118:             if(SPFxBaj > 99){
  3464   00131C  0E63               	movlw	99
  3465   00131E  643A               	cpfsgt	_SPFxBaj^0,c
  3466   001320  EF94  F009         	goto	u6971
  3467   001324  EF96  F009         	goto	u6970
  3468   001328                     u6971:
  3469   001328  EF98  F009         	goto	l197
  3470   00132C                     u6970:
  3471   00132C                     
  3472                           ; BSR set to: 0
  3473                           ;menu.c: 119:                SPFxBaj = 15;
  3474   00132C  0E0F               	movlw	15
  3475   00132E  6E3A               	movwf	_SPFxBaj^0,c
  3476   001330                     l197:
  3477                           
  3478                           ; BSR set to: 0
  3479                           ;menu.c: 121:         tecla = 0x00;
  3480   001330  0E00               	movlw	0
  3481   001332  6E3F               	movwf	_tecla^0,c
  3482   001334                     l7385:
  3483                           
  3484                           ; BSR set to: 0
  3485                           ;menu.c: 123:         if(tecla == 0x02){
  3486   001334  0E02               	movlw	2
  3487   001336  183F               	xorwf	_tecla^0,w,c
  3488   001338  A4D8               	btfss	status,2,c
  3489   00133A  EFA1  F009         	goto	u6981
  3490   00133E  EFA3  F009         	goto	u6980
  3491   001342                     u6981:
  3492   001342  EFB0  F009         	goto	l7393
  3493   001346                     u6980:
  3494   001346                     
  3495                           ; BSR set to: 0
  3496                           ;menu.c: 124:             SPFxBaj--;
  3497   001346  063A               	decf	_SPFxBaj^0,f,c
  3498   001348                     
  3499                           ; BSR set to: 0
  3500                           ;menu.c: 125:             if(SPFxBaj < 15){
  3501   001348  0E0F               	movlw	15
  3502   00134A  603A               	cpfslt	_SPFxBaj^0,c
  3503   00134C  EFAA  F009         	goto	u6991
  3504   001350  EFAC  F009         	goto	u6990
  3505   001354                     u6991:
  3506   001354  EFAE  F009         	goto	l199
  3507   001358                     u6990:
  3508   001358                     
  3509                           ; BSR set to: 0
  3510                           ;menu.c: 126:                 SPFxBaj = 99;
  3511   001358  0E63               	movlw	99
  3512   00135A  6E3A               	movwf	_SPFxBaj^0,c
  3513   00135C                     l199:
  3514                           
  3515                           ; BSR set to: 0
  3516                           ;menu.c: 128:         tecla = 0x00;
  3517   00135C  0E00               	movlw	0
  3518   00135E  6E3F               	movwf	_tecla^0,c
  3519   001360                     l7393:
  3520                           
  3521                           ; BSR set to: 0
  3522                           ;menu.c: 130:         if(tecla == 0x04){
  3523   001360  0E04               	movlw	4
  3524   001362  183F               	xorwf	_tecla^0,w,c
  3525   001364  A4D8               	btfss	status,2,c
  3526   001366  EFB7  F009         	goto	u7001
  3527   00136A  EFB9  F009         	goto	u7000
  3528   00136E                     u7001:
  3529   00136E  EFBC  F009         	goto	l7399
  3530   001372                     u7000:
  3531   001372                     
  3532                           ; BSR set to: 0
  3533                           ;menu.c: 131:             selMenu++;
  3534   001372  2A30               	incf	_selMenu^0,f,c
  3535   001374                     
  3536                           ; BSR set to: 0
  3537                           ;menu.c: 132:             tecla = 0x00;
  3538   001374  0E00               	movlw	0
  3539   001376  6E3F               	movwf	_tecla^0,c
  3540   001378                     l7399:
  3541                           
  3542                           ; BSR set to: 0
  3543                           ;menu.c: 134:         if(tecla == 0x08){
  3544   001378  0E08               	movlw	8
  3545   00137A  183F               	xorwf	_tecla^0,w,c
  3546   00137C  A4D8               	btfss	status,2,c
  3547   00137E  EFC3  F009         	goto	u7011
  3548   001382  EFC5  F009         	goto	u7010
  3549   001386                     u7011:
  3550   001386  EFCE  F009         	goto	l7407
  3551   00138A                     u7010:
  3552   00138A                     
  3553                           ; BSR set to: 0
  3554                           ;menu.c: 135:             wrEprom(0x01 ,SPFxBaj);
  3555   00138A  C03A  F049         	movff	_SPFxBaj,wrEprom@dato
  3556   00138E  0E01               	movlw	1
  3557   001390  EC1B  F024         	call	_wrEprom
  3558   001394                     
  3559                           ;menu.c: 136:             selMenu = 1;
  3560   001394  0E01               	movlw	1
  3561   001396  6E30               	movwf	_selMenu^0,c
  3562   001398                     
  3563                           ;menu.c: 137:             tecla = 0x00;
  3564   001398  0E00               	movlw	0
  3565   00139A  6E3F               	movwf	_tecla^0,c
  3566   00139C                     l7407:
  3567                           
  3568                           ;menu.c: 139:         if(tecla == 0x10){
  3569   00139C  0E10               	movlw	16
  3570   00139E  183F               	xorwf	_tecla^0,w,c
  3571   0013A0  A4D8               	btfss	status,2,c
  3572   0013A2  EFD5  F009         	goto	u7021
  3573   0013A6  EFD7  F009         	goto	u7020
  3574   0013AA                     u7021:
  3575   0013AA  EFDB  F009         	goto	l7411
  3576   0013AE                     u7020:
  3577   0013AE                     
  3578                           ;menu.c: 140:             selMenu = 0x00;
  3579   0013AE  0E00               	movlw	0
  3580   0013B0  6E30               	movwf	_selMenu^0,c
  3581                           
  3582                           ;menu.c: 141:             tecla = 0x00;
  3583   0013B2  0E00               	movlw	0
  3584   0013B4  6E3F               	movwf	_tecla^0,c
  3585   0013B6                     l7411:
  3586                           
  3587                           ;menu.c: 147:     if(selMenu == 2){
  3588   0013B6  0E02               	movlw	2
  3589   0013B8  1830               	xorwf	_selMenu^0,w,c
  3590   0013BA  A4D8               	btfss	status,2,c
  3591   0013BC  EFE2  F009         	goto	u7031
  3592   0013C0  EFE4  F009         	goto	u7030
  3593   0013C4                     u7031:
  3594   0013C4  EF3F  F00A         	goto	l7449
  3595   0013C8                     u7030:
  3596   0013C8                     
  3597                           ;menu.c: 148:         resetWatch = 0;
  3598   0013C8  0E00               	movlw	0
  3599   0013CA  0100               	movlb	0	; () banked
  3600   0013CC  6F9F               	movwf	(_resetWatch+1)& (0+255),b
  3601   0013CE  0E00               	movlw	0
  3602   0013D0  6F9E               	movwf	_resetWatch& (0+255),b
  3603   0013D2                     
  3604                           ; BSR set to: 0
  3605                           ;menu.c: 149:         if(tecla == 0x01){
  3606   0013D2  043F               	decf	_tecla^0,w,c
  3607   0013D4  A4D8               	btfss	status,2,c
  3608   0013D6  EFEF  F009         	goto	u7041
  3609   0013DA  EFF1  F009         	goto	u7040
  3610   0013DE                     u7041:
  3611   0013DE  EFFE  F009         	goto	l7423
  3612   0013E2                     u7040:
  3613   0013E2                     
  3614                           ; BSR set to: 0
  3615                           ;menu.c: 150:             SPFxAlt++;
  3616   0013E2  2A38               	incf	_SPFxAlt^0,f,c
  3617   0013E4                     
  3618                           ; BSR set to: 0
  3619                           ;menu.c: 151:             if(SPFxAlt > 99){
  3620   0013E4  0E63               	movlw	99
  3621   0013E6  6438               	cpfsgt	_SPFxAlt^0,c
  3622   0013E8  EFF8  F009         	goto	u7051
  3623   0013EC  EFFA  F009         	goto	u7050
  3624   0013F0                     u7051:
  3625   0013F0  EFFC  F009         	goto	l205
  3626   0013F4                     u7050:
  3627   0013F4                     
  3628                           ; BSR set to: 0
  3629                           ;menu.c: 152:                SPFxAlt = 0;
  3630   0013F4  0E00               	movlw	0
  3631   0013F6  6E38               	movwf	_SPFxAlt^0,c
  3632   0013F8                     l205:
  3633                           
  3634                           ; BSR set to: 0
  3635                           ;menu.c: 154:         tecla = 0x00;
  3636   0013F8  0E00               	movlw	0
  3637   0013FA  6E3F               	movwf	_tecla^0,c
  3638   0013FC                     l7423:
  3639                           
  3640                           ; BSR set to: 0
  3641                           ;menu.c: 156:         if(tecla == 0x02){
  3642   0013FC  0E02               	movlw	2
  3643   0013FE  183F               	xorwf	_tecla^0,w,c
  3644   001400  A4D8               	btfss	status,2,c
  3645   001402  EF05  F00A         	goto	u7061
  3646   001406  EF07  F00A         	goto	u7060
  3647   00140A                     u7061:
  3648   00140A  EF14  F00A         	goto	l7431
  3649   00140E                     u7060:
  3650   00140E                     
  3651                           ; BSR set to: 0
  3652                           ;menu.c: 157:             SPFxAlt--;
  3653   00140E  0638               	decf	_SPFxAlt^0,f,c
  3654   001410                     
  3655                           ; BSR set to: 0
  3656                           ;menu.c: 158:             if(SPFxAlt < 15){
  3657   001410  0E0F               	movlw	15
  3658   001412  6038               	cpfslt	_SPFxAlt^0,c
  3659   001414  EF0E  F00A         	goto	u7071
  3660   001418  EF10  F00A         	goto	u7070
  3661   00141C                     u7071:
  3662   00141C  EF12  F00A         	goto	l207
  3663   001420                     u7070:
  3664   001420                     
  3665                           ; BSR set to: 0
  3666                           ;menu.c: 159:                 SPFxAlt = 99;
  3667   001420  0E63               	movlw	99
  3668   001422  6E38               	movwf	_SPFxAlt^0,c
  3669   001424                     l207:
  3670                           
  3671                           ; BSR set to: 0
  3672                           ;menu.c: 161:         tecla = 0x00;
  3673   001424  0E00               	movlw	0
  3674   001426  6E3F               	movwf	_tecla^0,c
  3675   001428                     l7431:
  3676                           
  3677                           ; BSR set to: 0
  3678                           ;menu.c: 163:         if(tecla == 0x04){
  3679   001428  0E04               	movlw	4
  3680   00142A  183F               	xorwf	_tecla^0,w,c
  3681   00142C  A4D8               	btfss	status,2,c
  3682   00142E  EF1B  F00A         	goto	u7081
  3683   001432  EF1D  F00A         	goto	u7080
  3684   001436                     u7081:
  3685   001436  EF20  F00A         	goto	l7437
  3686   00143A                     u7080:
  3687   00143A                     
  3688                           ; BSR set to: 0
  3689                           ;menu.c: 164:             selMenu++;
  3690   00143A  2A30               	incf	_selMenu^0,f,c
  3691   00143C                     
  3692                           ; BSR set to: 0
  3693                           ;menu.c: 165:             tecla = 0x00;
  3694   00143C  0E00               	movlw	0
  3695   00143E  6E3F               	movwf	_tecla^0,c
  3696   001440                     l7437:
  3697                           
  3698                           ; BSR set to: 0
  3699                           ;menu.c: 167:         if(tecla == 0x08){
  3700   001440  0E08               	movlw	8
  3701   001442  183F               	xorwf	_tecla^0,w,c
  3702   001444  A4D8               	btfss	status,2,c
  3703   001446  EF27  F00A         	goto	u7091
  3704   00144A  EF29  F00A         	goto	u7090
  3705   00144E                     u7091:
  3706   00144E  EF32  F00A         	goto	l7445
  3707   001452                     u7090:
  3708   001452                     
  3709                           ; BSR set to: 0
  3710                           ;menu.c: 168:             wrEprom(0x02 ,SPFxAlt);
  3711   001452  C038  F049         	movff	_SPFxAlt,wrEprom@dato
  3712   001456  0E02               	movlw	2
  3713   001458  EC1B  F024         	call	_wrEprom
  3714   00145C                     
  3715                           ;menu.c: 169:             selMenu=1;
  3716   00145C  0E01               	movlw	1
  3717   00145E  6E30               	movwf	_selMenu^0,c
  3718   001460                     
  3719                           ;menu.c: 170:             tecla = 0x00;
  3720   001460  0E00               	movlw	0
  3721   001462  6E3F               	movwf	_tecla^0,c
  3722   001464                     l7445:
  3723                           
  3724                           ;menu.c: 172:         if(tecla == 0x10){
  3725   001464  0E10               	movlw	16
  3726   001466  183F               	xorwf	_tecla^0,w,c
  3727   001468  A4D8               	btfss	status,2,c
  3728   00146A  EF39  F00A         	goto	u7101
  3729   00146E  EF3B  F00A         	goto	u7100
  3730   001472                     u7101:
  3731   001472  EF3F  F00A         	goto	l7449
  3732   001476                     u7100:
  3733   001476                     
  3734                           ;menu.c: 173:             selMenu = 0x00;
  3735   001476  0E00               	movlw	0
  3736   001478  6E30               	movwf	_selMenu^0,c
  3737                           
  3738                           ;menu.c: 174:             tecla = 0x00;
  3739   00147A  0E00               	movlw	0
  3740   00147C  6E3F               	movwf	_tecla^0,c
  3741   00147E                     l7449:
  3742                           
  3743                           ;menu.c: 180:     if(selMenu == 3){
  3744   00147E  0E03               	movlw	3
  3745   001480  1830               	xorwf	_selMenu^0,w,c
  3746   001482  A4D8               	btfss	status,2,c
  3747   001484  EF46  F00A         	goto	u7111
  3748   001488  EF48  F00A         	goto	u7110
  3749   00148C                     u7111:
  3750   00148C  EFA3  F00A         	goto	l7487
  3751   001490                     u7110:
  3752   001490                     
  3753                           ;menu.c: 181:         resetWatch = 0;
  3754   001490  0E00               	movlw	0
  3755   001492  0100               	movlb	0	; () banked
  3756   001494  6F9F               	movwf	(_resetWatch+1)& (0+255),b
  3757   001496  0E00               	movlw	0
  3758   001498  6F9E               	movwf	_resetWatch& (0+255),b
  3759   00149A                     
  3760                           ; BSR set to: 0
  3761                           ;menu.c: 182:         if(tecla == 0x01){
  3762   00149A  043F               	decf	_tecla^0,w,c
  3763   00149C  A4D8               	btfss	status,2,c
  3764   00149E  EF53  F00A         	goto	u7121
  3765   0014A2  EF55  F00A         	goto	u7120
  3766   0014A6                     u7121:
  3767   0014A6  EF62  F00A         	goto	l7461
  3768   0014AA                     u7120:
  3769   0014AA                     
  3770                           ; BSR set to: 0
  3771                           ;menu.c: 183:             SPFxSen++;
  3772   0014AA  2A3C               	incf	_SPFxSen^0,f,c
  3773   0014AC                     
  3774                           ; BSR set to: 0
  3775                           ;menu.c: 184:             if(SPFxSen > 99){
  3776   0014AC  0E63               	movlw	99
  3777   0014AE  643C               	cpfsgt	_SPFxSen^0,c
  3778   0014B0  EF5C  F00A         	goto	u7131
  3779   0014B4  EF5E  F00A         	goto	u7130
  3780   0014B8                     u7131:
  3781   0014B8  EF60  F00A         	goto	l213
  3782   0014BC                     u7130:
  3783   0014BC                     
  3784                           ; BSR set to: 0
  3785                           ;menu.c: 185:                SPFxSen = 0;
  3786   0014BC  0E00               	movlw	0
  3787   0014BE  6E3C               	movwf	_SPFxSen^0,c
  3788   0014C0                     l213:
  3789                           
  3790                           ; BSR set to: 0
  3791                           ;menu.c: 187:         tecla = 0x00;
  3792   0014C0  0E00               	movlw	0
  3793   0014C2  6E3F               	movwf	_tecla^0,c
  3794   0014C4                     l7461:
  3795                           
  3796                           ; BSR set to: 0
  3797                           ;menu.c: 189:         if(tecla == 0x02){
  3798   0014C4  0E02               	movlw	2
  3799   0014C6  183F               	xorwf	_tecla^0,w,c
  3800   0014C8  A4D8               	btfss	status,2,c
  3801   0014CA  EF69  F00A         	goto	u7141
  3802   0014CE  EF6B  F00A         	goto	u7140
  3803   0014D2                     u7141:
  3804   0014D2  EF78  F00A         	goto	l7469
  3805   0014D6                     u7140:
  3806   0014D6                     
  3807                           ; BSR set to: 0
  3808                           ;menu.c: 190:             SPFxSen--;
  3809   0014D6  063C               	decf	_SPFxSen^0,f,c
  3810   0014D8                     
  3811                           ; BSR set to: 0
  3812                           ;menu.c: 191:             if(SPFxSen < 15){
  3813   0014D8  0E0F               	movlw	15
  3814   0014DA  603C               	cpfslt	_SPFxSen^0,c
  3815   0014DC  EF72  F00A         	goto	u7151
  3816   0014E0  EF74  F00A         	goto	u7150
  3817   0014E4                     u7151:
  3818   0014E4  EF76  F00A         	goto	l215
  3819   0014E8                     u7150:
  3820   0014E8                     
  3821                           ; BSR set to: 0
  3822                           ;menu.c: 192:                 SPFxSen = 99;
  3823   0014E8  0E63               	movlw	99
  3824   0014EA  6E3C               	movwf	_SPFxSen^0,c
  3825   0014EC                     l215:
  3826                           
  3827                           ; BSR set to: 0
  3828                           ;menu.c: 194:         tecla = 0x00;
  3829   0014EC  0E00               	movlw	0
  3830   0014EE  6E3F               	movwf	_tecla^0,c
  3831   0014F0                     l7469:
  3832                           
  3833                           ; BSR set to: 0
  3834                           ;menu.c: 196:         if(tecla == 0x04){
  3835   0014F0  0E04               	movlw	4
  3836   0014F2  183F               	xorwf	_tecla^0,w,c
  3837   0014F4  A4D8               	btfss	status,2,c
  3838   0014F6  EF7F  F00A         	goto	u7161
  3839   0014FA  EF81  F00A         	goto	u7160
  3840   0014FE                     u7161:
  3841   0014FE  EF84  F00A         	goto	l7475
  3842   001502                     u7160:
  3843   001502                     
  3844                           ; BSR set to: 0
  3845                           ;menu.c: 197:             selMenu++;
  3846   001502  2A30               	incf	_selMenu^0,f,c
  3847   001504                     
  3848                           ; BSR set to: 0
  3849                           ;menu.c: 198:             tecla = 0x00;
  3850   001504  0E00               	movlw	0
  3851   001506  6E3F               	movwf	_tecla^0,c
  3852   001508                     l7475:
  3853                           
  3854                           ; BSR set to: 0
  3855                           ;menu.c: 200:         if(tecla == 0x08){
  3856   001508  0E08               	movlw	8
  3857   00150A  183F               	xorwf	_tecla^0,w,c
  3858   00150C  A4D8               	btfss	status,2,c
  3859   00150E  EF8B  F00A         	goto	u7171
  3860   001512  EF8D  F00A         	goto	u7170
  3861   001516                     u7171:
  3862   001516  EF96  F00A         	goto	l7483
  3863   00151A                     u7170:
  3864   00151A                     
  3865                           ; BSR set to: 0
  3866                           ;menu.c: 201:             wrEprom(0x03 ,SPFxSen);
  3867   00151A  C03C  F049         	movff	_SPFxSen,wrEprom@dato
  3868   00151E  0E03               	movlw	3
  3869   001520  EC1B  F024         	call	_wrEprom
  3870   001524                     
  3871                           ;menu.c: 202:             selMenu = 1;
  3872   001524  0E01               	movlw	1
  3873   001526  6E30               	movwf	_selMenu^0,c
  3874   001528                     
  3875                           ;menu.c: 203:             tecla = 0x00;
  3876   001528  0E00               	movlw	0
  3877   00152A  6E3F               	movwf	_tecla^0,c
  3878   00152C                     l7483:
  3879                           
  3880                           ;menu.c: 205:         if(tecla == 0x10){
  3881   00152C  0E10               	movlw	16
  3882   00152E  183F               	xorwf	_tecla^0,w,c
  3883   001530  A4D8               	btfss	status,2,c
  3884   001532  EF9D  F00A         	goto	u7181
  3885   001536  EF9F  F00A         	goto	u7180
  3886   00153A                     u7181:
  3887   00153A  EFA3  F00A         	goto	l7487
  3888   00153E                     u7180:
  3889   00153E                     
  3890                           ;menu.c: 206:             selMenu = 0x00;
  3891   00153E  0E00               	movlw	0
  3892   001540  6E30               	movwf	_selMenu^0,c
  3893                           
  3894                           ;menu.c: 207:             tecla = 0x00;
  3895   001542  0E00               	movlw	0
  3896   001544  6E3F               	movwf	_tecla^0,c
  3897   001546                     l7487:
  3898                           
  3899                           ;menu.c: 213:     if(selMenu == 4){
  3900   001546  0E04               	movlw	4
  3901   001548  1830               	xorwf	_selMenu^0,w,c
  3902   00154A  A4D8               	btfss	status,2,c
  3903   00154C  EFAA  F00A         	goto	u7191
  3904   001550  EFAC  F00A         	goto	u7190
  3905   001554                     u7191:
  3906   001554  EF0B  F00B         	goto	l7525
  3907   001558                     u7190:
  3908   001558                     
  3909                           ;menu.c: 214:         resetWatch = 0;
  3910   001558  0E00               	movlw	0
  3911   00155A  0100               	movlb	0	; () banked
  3912   00155C  6F9F               	movwf	(_resetWatch+1)& (0+255),b
  3913   00155E  0E00               	movlw	0
  3914   001560  6F9E               	movwf	_resetWatch& (0+255),b
  3915   001562                     
  3916                           ; BSR set to: 0
  3917                           ;menu.c: 215:         if((tecla == 0x01) || (tecla == 0x02)){
  3918   001562  043F               	decf	_tecla^0,w,c
  3919   001564  B4D8               	btfsc	status,2,c
  3920   001566  EFB7  F00A         	goto	u7201
  3921   00156A  EFB9  F00A         	goto	u7200
  3922   00156E                     u7201:
  3923   00156E  EFC2  F00A         	goto	l7495
  3924   001572                     u7200:
  3925   001572                     
  3926                           ; BSR set to: 0
  3927   001572  0E02               	movlw	2
  3928   001574  183F               	xorwf	_tecla^0,w,c
  3929   001576  A4D8               	btfss	status,2,c
  3930   001578  EFC0  F00A         	goto	u7211
  3931   00157C  EFC2  F00A         	goto	u7210
  3932   001580                     u7211:
  3933   001580  EFE0  F00A         	goto	l7507
  3934   001584                     u7210:
  3935   001584                     l7495:
  3936                           
  3937                           ; BSR set to: 0
  3938                           ;menu.c: 216:             if(CTRauto == 0){
  3939   001584  503E               	movf	_CTRauto^0,w,c
  3940   001586  A4D8               	btfss	status,2,c
  3941   001588  EFC8  F00A         	goto	u7221
  3942   00158C  EFCA  F00A         	goto	u7220
  3943   001590                     u7221:
  3944   001590  EFDC  F00A         	goto	l7505
  3945   001594                     u7220:
  3946   001594                     
  3947                           ; BSR set to: 0
  3948                           ;menu.c: 217:                 CTRauto = 1;
  3949   001594  0E01               	movlw	1
  3950   001596  6E3E               	movwf	_CTRauto^0,c
  3951                           
  3952                           ;menu.c: 218:                 EEADR = 0x05 ;
  3953   001598  0E05               	movlw	5
  3954   00159A  6EA9               	movwf	169,c	;volatile
  3955   00159C                     
  3956                           ; BSR set to: 0
  3957                           ;menu.c: 219:             EECON1bits.EEPGD = 0;
  3958   00159C  9EA6               	bcf	166,7,c	;volsfr
  3959   00159E                     
  3960                           ; BSR set to: 0
  3961                           ;menu.c: 220:         EECON1bits.CFGS = 0;
  3962   00159E  9CA6               	bcf	166,6,c	;volsfr
  3963   0015A0                     
  3964                           ; BSR set to: 0
  3965                           ;menu.c: 221:         EECON1bits.RD = 1;
  3966   0015A0  80A6               	bsf	166,0,c	;volsfr
  3967   0015A2                     l224:
  3968                           
  3969                           ;menu.c: 222:         while(EECON1bits.RD == 1){
  3970   0015A2  B0A6               	btfsc	166,0,c	;volsfr
  3971   0015A4  EFD6  F00A         	goto	u7231
  3972   0015A8  EFD8  F00A         	goto	u7230
  3973   0015AC                     u7231:
  3974   0015AC  EFD1  F00A         	goto	l224
  3975   0015B0                     u7230:
  3976   0015B0                     
  3977                           ;menu.c: 224:         setPotMan = EEDATA;
  3978   0015B0  CFA8 F033          	movff	4008,_setPotMan	;volatile
  3979                           
  3980                           ;menu.c: 225:             }else{
  3981   0015B4  EFDE  F00A         	goto	l227
  3982   0015B8                     l7505:
  3983                           
  3984                           ; BSR set to: 0
  3985                           ;menu.c: 226:                 CTRauto = 0;
  3986   0015B8  0E00               	movlw	0
  3987   0015BA  6E3E               	movwf	_CTRauto^0,c
  3988   0015BC                     l227:
  3989                           
  3990                           ;menu.c: 229:         tecla = 0x00;
  3991   0015BC  0E00               	movlw	0
  3992   0015BE  6E3F               	movwf	_tecla^0,c
  3993   0015C0                     l7507:
  3994                           
  3995                           ;menu.c: 232:         if(tecla == 0x04){
  3996   0015C0  0E04               	movlw	4
  3997   0015C2  183F               	xorwf	_tecla^0,w,c
  3998   0015C4  A4D8               	btfss	status,2,c
  3999   0015C6  EFE7  F00A         	goto	u7241
  4000   0015CA  EFE9  F00A         	goto	u7240
  4001   0015CE                     u7241:
  4002   0015CE  EFEC  F00A         	goto	l7513
  4003   0015D2                     u7240:
  4004   0015D2                     
  4005                           ;menu.c: 233:             selMenu++;
  4006   0015D2  2A30               	incf	_selMenu^0,f,c
  4007   0015D4                     
  4008                           ;menu.c: 234:             tecla = 0x00;
  4009   0015D4  0E00               	movlw	0
  4010   0015D6  6E3F               	movwf	_tecla^0,c
  4011   0015D8                     l7513:
  4012                           
  4013                           ;menu.c: 236:         if(tecla == 0x08){
  4014   0015D8  0E08               	movlw	8
  4015   0015DA  183F               	xorwf	_tecla^0,w,c
  4016   0015DC  A4D8               	btfss	status,2,c
  4017   0015DE  EFF3  F00A         	goto	u7251
  4018   0015E2  EFF5  F00A         	goto	u7250
  4019   0015E6                     u7251:
  4020   0015E6  EFFE  F00A         	goto	l7521
  4021   0015EA                     u7250:
  4022   0015EA                     
  4023                           ;menu.c: 237:             wrEprom(0x04,CTRauto);
  4024   0015EA  C03E  F049         	movff	_CTRauto,wrEprom@dato
  4025   0015EE  0E04               	movlw	4
  4026   0015F0  EC1B  F024         	call	_wrEprom
  4027   0015F4                     
  4028                           ;menu.c: 239:             selMenu = 1;
  4029   0015F4  0E01               	movlw	1
  4030   0015F6  6E30               	movwf	_selMenu^0,c
  4031   0015F8                     
  4032                           ;menu.c: 240:             tecla = 0x00;
  4033   0015F8  0E00               	movlw	0
  4034   0015FA  6E3F               	movwf	_tecla^0,c
  4035   0015FC                     l7521:
  4036                           
  4037                           ;menu.c: 242:         if(tecla == 0x10){
  4038   0015FC  0E10               	movlw	16
  4039   0015FE  183F               	xorwf	_tecla^0,w,c
  4040   001600  A4D8               	btfss	status,2,c
  4041   001602  EF05  F00B         	goto	u7261
  4042   001606  EF07  F00B         	goto	u7260
  4043   00160A                     u7261:
  4044   00160A  EF0B  F00B         	goto	l7525
  4045   00160E                     u7260:
  4046   00160E                     
  4047                           ;menu.c: 243:             selMenu = 0x00;
  4048   00160E  0E00               	movlw	0
  4049   001610  6E30               	movwf	_selMenu^0,c
  4050                           
  4051                           ;menu.c: 244:             tecla = 0x00;
  4052   001612  0E00               	movlw	0
  4053   001614  6E3F               	movwf	_tecla^0,c
  4054   001616                     l7525:
  4055                           
  4056                           ;menu.c: 251:     if(selMenu == 5){
  4057   001616  0E05               	movlw	5
  4058   001618  1830               	xorwf	_selMenu^0,w,c
  4059   00161A  A4D8               	btfss	status,2,c
  4060   00161C  EF12  F00B         	goto	u7271
  4061   001620  EF14  F00B         	goto	u7270
  4062   001624                     u7271:
  4063   001624  EF6F  F00B         	goto	l7563
  4064   001628                     u7270:
  4065   001628                     
  4066                           ;menu.c: 252:         resetWatch = 0;
  4067   001628  0E00               	movlw	0
  4068   00162A  0100               	movlb	0	; () banked
  4069   00162C  6F9F               	movwf	(_resetWatch+1)& (0+255),b
  4070   00162E  0E00               	movlw	0
  4071   001630  6F9E               	movwf	_resetWatch& (0+255),b
  4072   001632                     
  4073                           ; BSR set to: 0
  4074                           ;menu.c: 253:         if(tecla == 0x01){
  4075   001632  043F               	decf	_tecla^0,w,c
  4076   001634  A4D8               	btfss	status,2,c
  4077   001636  EF1F  F00B         	goto	u7281
  4078   00163A  EF21  F00B         	goto	u7280
  4079   00163E                     u7281:
  4080   00163E  EF2E  F00B         	goto	l7537
  4081   001642                     u7280:
  4082   001642                     
  4083                           ; BSR set to: 0
  4084                           ;menu.c: 254:             setPotMan++;
  4085   001642  2A33               	incf	_setPotMan^0,f,c
  4086   001644                     
  4087                           ; BSR set to: 0
  4088                           ;menu.c: 255:             if(setPotMan > 99){
  4089   001644  0E63               	movlw	99
  4090   001646  6433               	cpfsgt	_setPotMan^0,c
  4091   001648  EF28  F00B         	goto	u7291
  4092   00164C  EF2A  F00B         	goto	u7290
  4093   001650                     u7291:
  4094   001650  EF2C  F00B         	goto	l233
  4095   001654                     u7290:
  4096   001654                     
  4097                           ; BSR set to: 0
  4098                           ;menu.c: 256:                setPotMan = 0;
  4099   001654  0E00               	movlw	0
  4100   001656  6E33               	movwf	_setPotMan^0,c
  4101   001658                     l233:
  4102                           
  4103                           ; BSR set to: 0
  4104                           ;menu.c: 258:         tecla = 0x00;
  4105   001658  0E00               	movlw	0
  4106   00165A  6E3F               	movwf	_tecla^0,c
  4107   00165C                     l7537:
  4108                           
  4109                           ; BSR set to: 0
  4110                           ;menu.c: 260:         if(tecla == 0x02){
  4111   00165C  0E02               	movlw	2
  4112   00165E  183F               	xorwf	_tecla^0,w,c
  4113   001660  A4D8               	btfss	status,2,c
  4114   001662  EF35  F00B         	goto	u7301
  4115   001666  EF37  F00B         	goto	u7300
  4116   00166A                     u7301:
  4117   00166A  EF44  F00B         	goto	l7545
  4118   00166E                     u7300:
  4119   00166E                     
  4120                           ; BSR set to: 0
  4121                           ;menu.c: 261:             setPotMan--;
  4122   00166E  0633               	decf	_setPotMan^0,f,c
  4123   001670                     
  4124                           ; BSR set to: 0
  4125                           ;menu.c: 262:             if(setPotMan < 15){
  4126   001670  0E0F               	movlw	15
  4127   001672  6033               	cpfslt	_setPotMan^0,c
  4128   001674  EF3E  F00B         	goto	u7311
  4129   001678  EF40  F00B         	goto	u7310
  4130   00167C                     u7311:
  4131   00167C  EF42  F00B         	goto	l235
  4132   001680                     u7310:
  4133   001680                     
  4134                           ; BSR set to: 0
  4135                           ;menu.c: 263:                 setPotMan = 99;
  4136   001680  0E63               	movlw	99
  4137   001682  6E33               	movwf	_setPotMan^0,c
  4138   001684                     l235:
  4139                           
  4140                           ; BSR set to: 0
  4141                           ;menu.c: 265:         tecla = 0x00;
  4142   001684  0E00               	movlw	0
  4143   001686  6E3F               	movwf	_tecla^0,c
  4144   001688                     l7545:
  4145                           
  4146                           ; BSR set to: 0
  4147                           ;menu.c: 267:         if(tecla == 0x04){
  4148   001688  0E04               	movlw	4
  4149   00168A  183F               	xorwf	_tecla^0,w,c
  4150   00168C  A4D8               	btfss	status,2,c
  4151   00168E  EF4B  F00B         	goto	u7321
  4152   001692  EF4D  F00B         	goto	u7320
  4153   001696                     u7321:
  4154   001696  EF50  F00B         	goto	l7551
  4155   00169A                     u7320:
  4156   00169A                     
  4157                           ; BSR set to: 0
  4158                           ;menu.c: 268:             selMenu++;
  4159   00169A  2A30               	incf	_selMenu^0,f,c
  4160   00169C                     
  4161                           ; BSR set to: 0
  4162                           ;menu.c: 269:             tecla = 0x00;
  4163   00169C  0E00               	movlw	0
  4164   00169E  6E3F               	movwf	_tecla^0,c
  4165   0016A0                     l7551:
  4166                           
  4167                           ; BSR set to: 0
  4168                           ;menu.c: 271:         if(tecla == 0x08){
  4169   0016A0  0E08               	movlw	8
  4170   0016A2  183F               	xorwf	_tecla^0,w,c
  4171   0016A4  A4D8               	btfss	status,2,c
  4172   0016A6  EF57  F00B         	goto	u7331
  4173   0016AA  EF59  F00B         	goto	u7330
  4174   0016AE                     u7331:
  4175   0016AE  EF62  F00B         	goto	l7559
  4176   0016B2                     u7330:
  4177   0016B2                     
  4178                           ; BSR set to: 0
  4179                           ;menu.c: 272:             wrEprom(0x05 , setPotMan);
  4180   0016B2  C033  F049         	movff	_setPotMan,wrEprom@dato
  4181   0016B6  0E05               	movlw	5
  4182   0016B8  EC1B  F024         	call	_wrEprom
  4183   0016BC                     
  4184                           ;menu.c: 273:             selMenu = 1;
  4185   0016BC  0E01               	movlw	1
  4186   0016BE  6E30               	movwf	_selMenu^0,c
  4187   0016C0                     
  4188                           ;menu.c: 274:             tecla = 0x00;
  4189   0016C0  0E00               	movlw	0
  4190   0016C2  6E3F               	movwf	_tecla^0,c
  4191   0016C4                     l7559:
  4192                           
  4193                           ;menu.c: 276:         if(tecla == 0x10){
  4194   0016C4  0E10               	movlw	16
  4195   0016C6  183F               	xorwf	_tecla^0,w,c
  4196   0016C8  A4D8               	btfss	status,2,c
  4197   0016CA  EF69  F00B         	goto	u7341
  4198   0016CE  EF6B  F00B         	goto	u7340
  4199   0016D2                     u7341:
  4200   0016D2  EF6F  F00B         	goto	l7563
  4201   0016D6                     u7340:
  4202   0016D6                     
  4203                           ;menu.c: 277:             selMenu = 0x00;
  4204   0016D6  0E00               	movlw	0
  4205   0016D8  6E30               	movwf	_selMenu^0,c
  4206                           
  4207                           ;menu.c: 278:             tecla = 0x00;
  4208   0016DA  0E00               	movlw	0
  4209   0016DC  6E3F               	movwf	_tecla^0,c
  4210   0016DE                     l7563:
  4211                           
  4212                           ;menu.c: 284:    if(selMenu == 6){
  4213   0016DE  0E06               	movlw	6
  4214   0016E0  1830               	xorwf	_selMenu^0,w,c
  4215   0016E2  A4D8               	btfss	status,2,c
  4216   0016E4  EF76  F00B         	goto	u7351
  4217   0016E8  EF78  F00B         	goto	u7350
  4218   0016EC                     u7351:
  4219   0016EC  EFED  F00B         	goto	l7611
  4220   0016F0                     u7350:
  4221   0016F0                     
  4222                           ;menu.c: 285:        resetWatch = 0;
  4223   0016F0  0E00               	movlw	0
  4224   0016F2  0100               	movlb	0	; () banked
  4225   0016F4  6F9F               	movwf	(_resetWatch+1)& (0+255),b
  4226   0016F6  0E00               	movlw	0
  4227   0016F8  6F9E               	movwf	_resetWatch& (0+255),b
  4228   0016FA                     
  4229                           ; BSR set to: 0
  4230                           ;menu.c: 286:        if(tecla == 0x01){
  4231   0016FA  043F               	decf	_tecla^0,w,c
  4232   0016FC  A4D8               	btfss	status,2,c
  4233   0016FE  EF83  F00B         	goto	u7361
  4234   001702  EF85  F00B         	goto	u7360
  4235   001706                     u7361:
  4236   001706  EF9B  F00B         	goto	l7579
  4237   00170A                     u7360:
  4238   00170A                     
  4239                           ; BSR set to: 0
  4240                           ;menu.c: 287:             offSet++;
  4241   00170A  2A2F               	incf	_offSet^0,f,c
  4242   00170C                     
  4243                           ; BSR set to: 0
  4244                           ;menu.c: 288:              if(offSet < 20){
  4245   00170C  0E14               	movlw	20
  4246   00170E  602F               	cpfslt	_offSet^0,c
  4247   001710  EF8C  F00B         	goto	u7371
  4248   001714  EF8E  F00B         	goto	u7370
  4249   001718                     u7371:
  4250   001718  EF8F  F00B         	goto	l7575
  4251   00171C                     u7370:
  4252   00171C                     
  4253                           ; BSR set to: 0
  4254                           ;menu.c: 289:                  offSet++;
  4255   00171C  2A2F               	incf	_offSet^0,f,c
  4256   00171E                     l7575:
  4257                           
  4258                           ; BSR set to: 0
  4259                           ;menu.c: 291:             if(offSet > 40){
  4260   00171E  0E28               	movlw	40
  4261   001720  642F               	cpfsgt	_offSet^0,c
  4262   001722  EF95  F00B         	goto	u7381
  4263   001726  EF97  F00B         	goto	u7380
  4264   00172A                     u7381:
  4265   00172A  EF99  F00B         	goto	l242
  4266   00172E                     u7380:
  4267   00172E                     
  4268                           ; BSR set to: 0
  4269                           ;menu.c: 292:                offSet = 20;
  4270   00172E  0E14               	movlw	20
  4271   001730  6E2F               	movwf	_offSet^0,c
  4272   001732                     l242:
  4273                           
  4274                           ; BSR set to: 0
  4275                           ;menu.c: 294:         tecla = 0x00;
  4276   001732  0E00               	movlw	0
  4277   001734  6E3F               	movwf	_tecla^0,c
  4278   001736                     l7579:
  4279                           
  4280                           ; BSR set to: 0
  4281                           ;menu.c: 296:         if(tecla == 0x02){
  4282   001736  0E02               	movlw	2
  4283   001738  183F               	xorwf	_tecla^0,w,c
  4284   00173A  A4D8               	btfss	status,2,c
  4285   00173C  EFA2  F00B         	goto	u7391
  4286   001740  EFA4  F00B         	goto	u7390
  4287   001744                     u7391:
  4288   001744  EFC2  F00B         	goto	l7593
  4289   001748                     u7390:
  4290   001748                     
  4291                           ; BSR set to: 0
  4292                           ;menu.c: 297:             offSet--;
  4293   001748  062F               	decf	_offSet^0,f,c
  4294   00174A                     
  4295                           ; BSR set to: 0
  4296                           ;menu.c: 298:                  if(offSet < 21){
  4297   00174A  0E15               	movlw	21
  4298   00174C  602F               	cpfslt	_offSet^0,c
  4299   00174E  EFAB  F00B         	goto	u7401
  4300   001752  EFAD  F00B         	goto	u7400
  4301   001756                     u7401:
  4302   001756  EFAE  F00B         	goto	l7587
  4303   00175A                     u7400:
  4304   00175A                     
  4305                           ; BSR set to: 0
  4306                           ;menu.c: 299:                  offSet--;
  4307   00175A  062F               	decf	_offSet^0,f,c
  4308   00175C                     l7587:
  4309                           
  4310                           ; BSR set to: 0
  4311                           ;menu.c: 301:             if((offSet == 0)||(offSet > 40)){
  4312   00175C  502F               	movf	_offSet^0,w,c
  4313   00175E  B4D8               	btfsc	status,2,c
  4314   001760  EFB4  F00B         	goto	u7411
  4315   001764  EFB6  F00B         	goto	u7410
  4316   001768                     u7411:
  4317   001768  EFBE  F00B         	goto	l7591
  4318   00176C                     u7410:
  4319   00176C                     
  4320                           ; BSR set to: 0
  4321   00176C  0E28               	movlw	40
  4322   00176E  642F               	cpfsgt	_offSet^0,c
  4323   001770  EFBC  F00B         	goto	u7421
  4324   001774  EFBE  F00B         	goto	u7420
  4325   001778                     u7421:
  4326   001778  EFC0  F00B         	goto	l245
  4327   00177C                     u7420:
  4328   00177C                     l7591:
  4329                           
  4330                           ; BSR set to: 0
  4331                           ;menu.c: 302:                 offSet = 20;
  4332   00177C  0E14               	movlw	20
  4333   00177E  6E2F               	movwf	_offSet^0,c
  4334   001780                     l245:
  4335                           
  4336                           ; BSR set to: 0
  4337                           ;menu.c: 305:         tecla = 0x00;
  4338   001780  0E00               	movlw	0
  4339   001782  6E3F               	movwf	_tecla^0,c
  4340   001784                     l7593:
  4341                           
  4342                           ; BSR set to: 0
  4343                           ;menu.c: 307:         if(tecla == 0x04){
  4344   001784  0E04               	movlw	4
  4345   001786  183F               	xorwf	_tecla^0,w,c
  4346   001788  A4D8               	btfss	status,2,c
  4347   00178A  EFC9  F00B         	goto	u7431
  4348   00178E  EFCB  F00B         	goto	u7430
  4349   001792                     u7431:
  4350   001792  EFCE  F00B         	goto	l7599
  4351   001796                     u7430:
  4352   001796                     
  4353                           ; BSR set to: 0
  4354                           ;menu.c: 308:             selMenu++;
  4355   001796  2A30               	incf	_selMenu^0,f,c
  4356   001798                     
  4357                           ; BSR set to: 0
  4358                           ;menu.c: 309:             tecla = 0x00;
  4359   001798  0E00               	movlw	0
  4360   00179A  6E3F               	movwf	_tecla^0,c
  4361   00179C                     l7599:
  4362                           
  4363                           ; BSR set to: 0
  4364                           ;menu.c: 311:         if(tecla == 0x08){
  4365   00179C  0E08               	movlw	8
  4366   00179E  183F               	xorwf	_tecla^0,w,c
  4367   0017A0  A4D8               	btfss	status,2,c
  4368   0017A2  EFD5  F00B         	goto	u7441
  4369   0017A6  EFD7  F00B         	goto	u7440
  4370   0017AA                     u7441:
  4371   0017AA  EFE0  F00B         	goto	l7607
  4372   0017AE                     u7440:
  4373   0017AE                     
  4374                           ; BSR set to: 0
  4375                           ;menu.c: 312:             wrEprom(0x03 ,offSet);
  4376   0017AE  C02F  F049         	movff	_offSet,wrEprom@dato
  4377   0017B2  0E03               	movlw	3
  4378   0017B4  EC1B  F024         	call	_wrEprom
  4379   0017B8                     
  4380                           ;menu.c: 313:             selMenu = 1;
  4381   0017B8  0E01               	movlw	1
  4382   0017BA  6E30               	movwf	_selMenu^0,c
  4383   0017BC                     
  4384                           ;menu.c: 314:             tecla = 0x00;
  4385   0017BC  0E00               	movlw	0
  4386   0017BE  6E3F               	movwf	_tecla^0,c
  4387   0017C0                     l7607:
  4388                           
  4389                           ;menu.c: 316:         if(tecla == 0x10){
  4390   0017C0  0E10               	movlw	16
  4391   0017C2  183F               	xorwf	_tecla^0,w,c
  4392   0017C4  A4D8               	btfss	status,2,c
  4393   0017C6  EFE7  F00B         	goto	u7451
  4394   0017CA  EFE9  F00B         	goto	u7450
  4395   0017CE                     u7451:
  4396   0017CE  EFED  F00B         	goto	l7611
  4397   0017D2                     u7450:
  4398   0017D2                     
  4399                           ;menu.c: 317:             selMenu = 0x00;
  4400   0017D2  0E00               	movlw	0
  4401   0017D4  6E30               	movwf	_selMenu^0,c
  4402                           
  4403                           ;menu.c: 318:             tecla = 0x00;
  4404   0017D6  0E00               	movlw	0
  4405   0017D8  6E3F               	movwf	_tecla^0,c
  4406   0017DA                     l7611:
  4407                           
  4408                           ;menu.c: 324:     if(selMenu == 7){
  4409   0017DA  0E07               	movlw	7
  4410   0017DC  1830               	xorwf	_selMenu^0,w,c
  4411   0017DE  A4D8               	btfss	status,2,c
  4412   0017E0  EFF4  F00B         	goto	u7461
  4413   0017E4  EFF6  F00B         	goto	u7460
  4414   0017E8                     u7461:
  4415   0017E8  EFB6  F00C         	goto	l7679
  4416   0017EC                     u7460:
  4417   0017EC                     
  4418                           ;menu.c: 325:         resetWatch = 0;
  4419   0017EC  0E00               	movlw	0
  4420   0017EE  0100               	movlb	0	; () banked
  4421   0017F0  6F9F               	movwf	(_resetWatch+1)& (0+255),b
  4422   0017F2  0E00               	movlw	0
  4423   0017F4  6F9E               	movwf	_resetWatch& (0+255),b
  4424   0017F6                     
  4425                           ; BSR set to: 0
  4426                           ;menu.c: 326:         if((tecla == 0x01) || (tecla == 0x02)){
  4427   0017F6  043F               	decf	_tecla^0,w,c
  4428   0017F8  B4D8               	btfsc	status,2,c
  4429   0017FA  EF01  F00C         	goto	u7471
  4430   0017FE  EF03  F00C         	goto	u7470
  4431   001802                     u7471:
  4432   001802  EF0C  F00C         	goto	l7619
  4433   001806                     u7470:
  4434   001806                     
  4435                           ; BSR set to: 0
  4436   001806  0E02               	movlw	2
  4437   001808  183F               	xorwf	_tecla^0,w,c
  4438   00180A  A4D8               	btfss	status,2,c
  4439   00180C  EF0A  F00C         	goto	u7481
  4440   001810  EF0C  F00C         	goto	u7480
  4441   001814                     u7481:
  4442   001814  EF1C  F00C         	goto	l7625
  4443   001818                     u7480:
  4444   001818                     l7619:
  4445                           
  4446                           ; BSR set to: 0
  4447                           ;menu.c: 327:             if(setDefault == 0){
  4448   001818  502E               	movf	_setDefault^0,w,c
  4449   00181A  A4D8               	btfss	status,2,c
  4450   00181C  EF12  F00C         	goto	u7491
  4451   001820  EF14  F00C         	goto	u7490
  4452   001824                     u7491:
  4453   001824  EF18  F00C         	goto	l7623
  4454   001828                     u7490:
  4455   001828                     
  4456                           ; BSR set to: 0
  4457                           ;menu.c: 328:                 setDefault = 1;
  4458   001828  0E01               	movlw	1
  4459   00182A  6E2E               	movwf	_setDefault^0,c
  4460                           
  4461                           ;menu.c: 329:             }else{
  4462   00182C  EF1A  F00C         	goto	l256
  4463   001830                     l7623:
  4464                           
  4465                           ; BSR set to: 0
  4466                           ;menu.c: 330:                 setDefault = 0;
  4467   001830  0E00               	movlw	0
  4468   001832  6E2E               	movwf	_setDefault^0,c
  4469   001834                     l256:
  4470                           
  4471                           ; BSR set to: 0
  4472                           ;menu.c: 332:         tecla = 0x00;
  4473   001834  0E00               	movlw	0
  4474   001836  6E3F               	movwf	_tecla^0,c
  4475   001838                     l7625:
  4476                           
  4477                           ; BSR set to: 0
  4478                           ;menu.c: 334:         if(tecla == 0x04){
  4479   001838  0E04               	movlw	4
  4480   00183A  183F               	xorwf	_tecla^0,w,c
  4481   00183C  A4D8               	btfss	status,2,c
  4482   00183E  EF23  F00C         	goto	u7501
  4483   001842  EF25  F00C         	goto	u7500
  4484   001846                     u7501:
  4485   001846  EF29  F00C         	goto	l7629
  4486   00184A                     u7500:
  4487   00184A                     
  4488                           ; BSR set to: 0
  4489                           ;menu.c: 335:             selMenu = 1;
  4490   00184A  0E01               	movlw	1
  4491   00184C  6E30               	movwf	_selMenu^0,c
  4492                           
  4493                           ;menu.c: 336:             tecla = 0x00;
  4494   00184E  0E00               	movlw	0
  4495   001850  6E3F               	movwf	_tecla^0,c
  4496   001852                     l7629:
  4497                           
  4498                           ; BSR set to: 0
  4499                           ;menu.c: 338:         if((tecla == 0x08) && (setDefault == 1)){
  4500   001852  0E08               	movlw	8
  4501   001854  183F               	xorwf	_tecla^0,w,c
  4502   001856  A4D8               	btfss	status,2,c
  4503   001858  EF30  F00C         	goto	u7511
  4504   00185C  EF32  F00C         	goto	u7510
  4505   001860                     u7511:
  4506   001860  EFA9  F00C         	goto	l7675
  4507   001864                     u7510:
  4508   001864                     
  4509                           ; BSR set to: 0
  4510   001864  042E               	decf	_setDefault^0,w,c
  4511   001866  A4D8               	btfss	status,2,c
  4512   001868  EF38  F00C         	goto	u7521
  4513   00186C  EF3A  F00C         	goto	u7520
  4514   001870                     u7521:
  4515   001870  EFA9  F00C         	goto	l7675
  4516   001874                     u7520:
  4517   001874                     
  4518                           ; BSR set to: 0
  4519                           ;menu.c: 340:             setPoint = 50;
  4520   001874  0E32               	movlw	50
  4521   001876  6E40               	movwf	_setPoint^0,c
  4522                           
  4523                           ;menu.c: 341:             SPFxBaj = 99;
  4524   001878  0E63               	movlw	99
  4525   00187A  6E3A               	movwf	_SPFxBaj^0,c
  4526                           
  4527                           ;menu.c: 342:             SPFxAlt = 15;
  4528   00187C  0E0F               	movlw	15
  4529   00187E  6E38               	movwf	_SPFxAlt^0,c
  4530                           
  4531                           ;menu.c: 343:             SPFxSen = 50;
  4532   001880  0E32               	movlw	50
  4533   001882  6E3C               	movwf	_SPFxSen^0,c
  4534                           
  4535                           ;menu.c: 344:             CTRauto = 0;
  4536   001884  0E00               	movlw	0
  4537   001886  6E3E               	movwf	_CTRauto^0,c
  4538                           
  4539                           ;menu.c: 345:             setPotMan = 50;
  4540   001888  0E32               	movlw	50
  4541   00188A  6E33               	movwf	_setPotMan^0,c
  4542                           
  4543                           ;menu.c: 346:             offSet = 16;
  4544   00188C  0E10               	movlw	16
  4545   00188E  6E2F               	movwf	_offSet^0,c
  4546                           
  4547                           ;menu.c: 347:             setDefault = 0;
  4548   001890  0E00               	movlw	0
  4549   001892  6E2E               	movwf	_setDefault^0,c
  4550                           
  4551                           ;menu.c: 349:             for(y = 0 ; y < 7 ; y++ ) {
  4552   001894  0E00               	movlw	0
  4553   001896  6E29               	movwf	_y^0,c
  4554   001898                     l7639:
  4555                           
  4556                           ;menu.c: 350:                 if(y == 0){
  4557   001898  5029               	movf	_y^0,w,c
  4558   00189A  A4D8               	btfss	status,2,c
  4559   00189C  EF52  F00C         	goto	u7531
  4560   0018A0  EF54  F00C         	goto	u7530
  4561   0018A4                     u7531:
  4562   0018A4  EF56  F00C         	goto	l7643
  4563   0018A8                     u7530:
  4564   0018A8                     
  4565                           ;menu.c: 351:                     valMem = setPoint;
  4566   0018A8  C040  F0DA         	movff	_setPoint,_valMem
  4567   0018AC                     l7643:
  4568   0018AC  0429               	decf	_y^0,w,c
  4569   0018AE  A4D8               	btfss	status,2,c
  4570   0018B0  EF5C  F00C         	goto	u7541
  4571   0018B4  EF5E  F00C         	goto	u7540
  4572   0018B8                     u7541:
  4573   0018B8  EF60  F00C         	goto	l7647
  4574   0018BC                     u7540:
  4575   0018BC                     
  4576                           ;menu.c: 353:                     valMem = SPFxBaj;
  4577   0018BC  C03A  F0DA         	movff	_SPFxBaj,_valMem
  4578   0018C0                     l7647:
  4579   0018C0  0E02               	movlw	2
  4580   0018C2  1829               	xorwf	_y^0,w,c
  4581   0018C4  A4D8               	btfss	status,2,c
  4582   0018C6  EF67  F00C         	goto	u7551
  4583   0018CA  EF69  F00C         	goto	u7550
  4584   0018CE                     u7551:
  4585   0018CE  EF6B  F00C         	goto	l7651
  4586   0018D2                     u7550:
  4587   0018D2                     
  4588                           ;menu.c: 355:                     valMem = SPFxAlt;
  4589   0018D2  C038  F0DA         	movff	_SPFxAlt,_valMem
  4590   0018D6                     l7651:
  4591   0018D6  0E03               	movlw	3
  4592   0018D8  1829               	xorwf	_y^0,w,c
  4593   0018DA  A4D8               	btfss	status,2,c
  4594   0018DC  EF72  F00C         	goto	u7561
  4595   0018E0  EF74  F00C         	goto	u7560
  4596   0018E4                     u7561:
  4597   0018E4  EF76  F00C         	goto	l7655
  4598   0018E8                     u7560:
  4599   0018E8                     
  4600                           ;menu.c: 357:                     valMem = SPFxSen;
  4601   0018E8  C03C  F0DA         	movff	_SPFxSen,_valMem
  4602   0018EC                     l7655:
  4603   0018EC  0E04               	movlw	4
  4604   0018EE  1829               	xorwf	_y^0,w,c
  4605   0018F0  A4D8               	btfss	status,2,c
  4606   0018F2  EF7D  F00C         	goto	u7571
  4607   0018F6  EF7F  F00C         	goto	u7570
  4608   0018FA                     u7571:
  4609   0018FA  EF81  F00C         	goto	l7659
  4610   0018FE                     u7570:
  4611   0018FE                     
  4612                           ;menu.c: 359:                     valMem = CTRauto;
  4613   0018FE  C03E  F0DA         	movff	_CTRauto,_valMem
  4614   001902                     l7659:
  4615   001902  0E05               	movlw	5
  4616   001904  1829               	xorwf	_y^0,w,c
  4617   001906  A4D8               	btfss	status,2,c
  4618   001908  EF88  F00C         	goto	u7581
  4619   00190C  EF8A  F00C         	goto	u7580
  4620   001910                     u7581:
  4621   001910  EF8C  F00C         	goto	l7663
  4622   001914                     u7580:
  4623   001914                     
  4624                           ;menu.c: 361:                     valMem = setPotMan;
  4625   001914  C033  F0DA         	movff	_setPotMan,_valMem
  4626   001918                     l7663:
  4627   001918  0E06               	movlw	6
  4628   00191A  1829               	xorwf	_y^0,w,c
  4629   00191C  A4D8               	btfss	status,2,c
  4630   00191E  EF93  F00C         	goto	u7591
  4631   001922  EF95  F00C         	goto	u7590
  4632   001926                     u7591:
  4633   001926  EF97  F00C         	goto	l7667
  4634   00192A                     u7590:
  4635   00192A                     
  4636                           ;menu.c: 363:                     valMem = offSet;
  4637   00192A  C02F  F0DA         	movff	_offSet,_valMem
  4638   00192E                     l7667:
  4639                           
  4640                           ;menu.c: 365:                 wrEprom(y ,valMem);
  4641   00192E  C0DA  F049         	movff	_valMem,wrEprom@dato
  4642   001932  5029               	movf	_y^0,w,c
  4643   001934  EC1B  F024         	call	_wrEprom
  4644   001938                     
  4645                           ;menu.c: 366:             }
  4646   001938  2A29               	incf	_y^0,f,c
  4647   00193A  0E06               	movlw	6
  4648   00193C  6429               	cpfsgt	_y^0,c
  4649   00193E  EFA3  F00C         	goto	u7601
  4650   001942  EFA5  F00C         	goto	u7600
  4651   001946                     u7601:
  4652   001946  EF4C  F00C         	goto	l7639
  4653   00194A                     u7600:
  4654   00194A                     
  4655                           ;menu.c: 367:             selMenu = 1;
  4656   00194A  0E01               	movlw	1
  4657   00194C  6E30               	movwf	_selMenu^0,c
  4658                           
  4659                           ;menu.c: 368:             tecla = 0x00;
  4660   00194E  0E00               	movlw	0
  4661   001950  6E3F               	movwf	_tecla^0,c
  4662   001952                     l7675:
  4663                           
  4664                           ;menu.c: 370:         if (tecla == 0x10){
  4665   001952  0E10               	movlw	16
  4666   001954  183F               	xorwf	_tecla^0,w,c
  4667   001956  A4D8               	btfss	status,2,c
  4668   001958  EFB0  F00C         	goto	u7611
  4669   00195C  EFB2  F00C         	goto	u7610
  4670   001960                     u7611:
  4671   001960  EFB6  F00C         	goto	l7679
  4672   001964                     u7610:
  4673   001964                     
  4674                           ;menu.c: 371:             selMenu = 0x00;
  4675   001964  0E00               	movlw	0
  4676   001966  6E30               	movwf	_selMenu^0,c
  4677                           
  4678                           ;menu.c: 372:             tecla = 0x00;
  4679   001968  0E00               	movlw	0
  4680   00196A  6E3F               	movwf	_tecla^0,c
  4681   00196C                     l7679:
  4682                           
  4683                           ;menu.c: 378:     if(selMenu == 8){
  4684   00196C  0E08               	movlw	8
  4685   00196E  1830               	xorwf	_selMenu^0,w,c
  4686   001970  A4D8               	btfss	status,2,c
  4687   001972  EFBD  F00C         	goto	u7621
  4688   001976  EFBF  F00C         	goto	u7620
  4689   00197A                     u7621:
  4690   00197A  EFAF  F00D         	goto	l293
  4691   00197E                     u7620:
  4692   00197E                     
  4693                           ;menu.c: 379:         resetWatch = 0;
  4694   00197E  0E00               	movlw	0
  4695   001980  0100               	movlb	0	; () banked
  4696   001982  6F9F               	movwf	(_resetWatch+1)& (0+255),b
  4697   001984  0E00               	movlw	0
  4698   001986  6F9E               	movwf	_resetWatch& (0+255),b
  4699   001988                     
  4700                           ; BSR set to: 0
  4701                           ;menu.c: 380:         if(tecla==0x04){
  4702   001988  0E04               	movlw	4
  4703   00198A  183F               	xorwf	_tecla^0,w,c
  4704   00198C  A4D8               	btfss	status,2,c
  4705   00198E  EFCB  F00C         	goto	u7631
  4706   001992  EFCD  F00C         	goto	u7630
  4707   001996                     u7631:
  4708   001996  EFDA  F00C         	goto	l7691
  4709   00199A                     u7630:
  4710   00199A                     
  4711                           ; BSR set to: 0
  4712                           ;menu.c: 381:             pass ++;
  4713   00199A  2A2D               	incf	_pass^0,f,c
  4714   00199C                     
  4715                           ; BSR set to: 0
  4716                           ;menu.c: 382:             if(pass > 2){
  4717   00199C  0E02               	movlw	2
  4718   00199E  642D               	cpfsgt	_pass^0,c
  4719   0019A0  EFD4  F00C         	goto	u7641
  4720   0019A4  EFD6  F00C         	goto	u7640
  4721   0019A8                     u7641:
  4722   0019A8  EFD8  F00C         	goto	l271
  4723   0019AC                     u7640:
  4724   0019AC                     
  4725                           ; BSR set to: 0
  4726                           ;menu.c: 383:                 pass = 0;
  4727   0019AC  0E00               	movlw	0
  4728   0019AE  6E2D               	movwf	_pass^0,c
  4729   0019B0                     l271:
  4730                           
  4731                           ; BSR set to: 0
  4732                           ;menu.c: 385:             tecla = 0x00;
  4733   0019B0  0E00               	movlw	0
  4734   0019B2  6E3F               	movwf	_tecla^0,c
  4735   0019B4                     l7691:
  4736                           
  4737                           ; BSR set to: 0
  4738                           ;menu.c: 387:         if(tecla == 0x01){
  4739   0019B4  043F               	decf	_tecla^0,w,c
  4740   0019B6  A4D8               	btfss	status,2,c
  4741   0019B8  EFE0  F00C         	goto	u7651
  4742   0019BC  EFE2  F00C         	goto	u7650
  4743   0019C0                     u7651:
  4744   0019C0  EF26  F00D         	goto	l7719
  4745   0019C4                     u7650:
  4746   0019C4  EF0B  F00D         	goto	l7715
  4747   0019C8                     l7695:
  4748                           
  4749                           ; BSR set to: 0
  4750                           ;menu.c: 390:                     pass0 ++;
  4751   0019C8  2A2C               	incf	_pass0^0,f,c
  4752   0019CA                     
  4753                           ; BSR set to: 0
  4754                           ;menu.c: 391:                     if(pass0 > 9){
  4755   0019CA  0E09               	movlw	9
  4756   0019CC  642C               	cpfsgt	_pass0^0,c
  4757   0019CE  EFEB  F00C         	goto	u7661
  4758   0019D2  EFED  F00C         	goto	u7660
  4759   0019D6                     u7661:
  4760   0019D6  EF24  F00D         	goto	l7717
  4761   0019DA                     u7660:
  4762   0019DA                     
  4763                           ; BSR set to: 0
  4764                           ;menu.c: 392:                         pass0 = 0;
  4765   0019DA  0E00               	movlw	0
  4766   0019DC  6E2C               	movwf	_pass0^0,c
  4767   0019DE  EF24  F00D         	goto	l7717
  4768   0019E2                     l7701:
  4769                           
  4770                           ; BSR set to: 0
  4771                           ;menu.c: 397:                     pass1 ++;
  4772   0019E2  2A2B               	incf	_pass1^0,f,c
  4773   0019E4                     
  4774                           ; BSR set to: 0
  4775                           ;menu.c: 398:                     if(pass1 > 9){
  4776   0019E4  0E09               	movlw	9
  4777   0019E6  642B               	cpfsgt	_pass1^0,c
  4778   0019E8  EFF8  F00C         	goto	u7671
  4779   0019EC  EFFA  F00C         	goto	u7670
  4780   0019F0                     u7671:
  4781   0019F0  EF24  F00D         	goto	l7717
  4782   0019F4                     u7670:
  4783   0019F4                     
  4784                           ; BSR set to: 0
  4785                           ;menu.c: 399:                         pass1 = 0;
  4786   0019F4  0E00               	movlw	0
  4787   0019F6  6E2B               	movwf	_pass1^0,c
  4788   0019F8  EF24  F00D         	goto	l7717
  4789   0019FC                     l7707:
  4790                           
  4791                           ; BSR set to: 0
  4792                           ;menu.c: 404:                     pass2 ++;
  4793   0019FC  2A2A               	incf	_pass2^0,f,c
  4794   0019FE                     
  4795                           ; BSR set to: 0
  4796                           ;menu.c: 405:                     if(pass2 > 9){
  4797   0019FE  0E09               	movlw	9
  4798   001A00  642A               	cpfsgt	_pass2^0,c
  4799   001A02  EF05  F00D         	goto	u7681
  4800   001A06  EF07  F00D         	goto	u7680
  4801   001A0A                     u7681:
  4802   001A0A  EF24  F00D         	goto	l7717
  4803   001A0E                     u7680:
  4804   001A0E                     
  4805                           ; BSR set to: 0
  4806                           ;menu.c: 406:                         pass2 = 0;
  4807   001A0E  0E00               	movlw	0
  4808   001A10  6E2A               	movwf	_pass2^0,c
  4809   001A12  EF24  F00D         	goto	l7717
  4810   001A16                     l7715:
  4811                           
  4812                           ; BSR set to: 0
  4813   001A16  502D               	movf	_pass^0,w,c
  4814   001A18  6E4B               	movwf	??_menu^0,c
  4815   001A1A  6A4C               	clrf	(??_menu+1)^0,c
  4816                           
  4817                           ; Switch on 2 bytes has been partitioned into a top level switch of size 1, and 1 sub-sw
      +                          itches
  4818                           ; Switch size 1, requested type "simple"
  4819                           ; Number of cases is 1, Range of values is 0 to 0
  4820                           ; switch strategies available:
  4821                           ; Name         Instructions Cycles
  4822                           ; simple_byte            4     3 (average)
  4823                           ;	Chosen strategy is simple_byte
  4824   001A1C  504C               	movf	(??_menu+1)^0,w,c
  4825   001A1E  0A00               	xorlw	0	; case 0
  4826   001A20  B4D8               	btfsc	status,2,c
  4827   001A22  EF15  F00D         	goto	l10325
  4828   001A26  EF24  F00D         	goto	l7717
  4829   001A2A                     l10325:
  4830                           
  4831                           ; BSR set to: 0
  4832                           ; Switch size 1, requested type "simple"
  4833                           ; Number of cases is 3, Range of values is 0 to 2
  4834                           ; switch strategies available:
  4835                           ; Name         Instructions Cycles
  4836                           ; simple_byte           10     6 (average)
  4837                           ;	Chosen strategy is simple_byte
  4838   001A2A  504B               	movf	??_menu^0,w,c
  4839   001A2C  0A00               	xorlw	0	; case 0
  4840   001A2E  B4D8               	btfsc	status,2,c
  4841   001A30  EFE4  F00C         	goto	l7695
  4842   001A34  0A01               	xorlw	1	; case 1
  4843   001A36  B4D8               	btfsc	status,2,c
  4844   001A38  EFF1  F00C         	goto	l7701
  4845   001A3C  0A03               	xorlw	3	; case 2
  4846   001A3E  B4D8               	btfsc	status,2,c
  4847   001A40  EFFE  F00C         	goto	l7707
  4848   001A44  EF24  F00D         	goto	l7717
  4849   001A48                     l7717:
  4850                           
  4851                           ; BSR set to: 0
  4852                           ;menu.c: 411:             tecla = 0x00;
  4853   001A48  0E00               	movlw	0
  4854   001A4A  6E3F               	movwf	_tecla^0,c
  4855   001A4C                     l7719:
  4856                           
  4857                           ; BSR set to: 0
  4858                           ;menu.c: 413:         if(tecla == 0x02){
  4859   001A4C  0E02               	movlw	2
  4860   001A4E  183F               	xorwf	_tecla^0,w,c
  4861   001A50  A4D8               	btfss	status,2,c
  4862   001A52  EF2D  F00D         	goto	u7691
  4863   001A56  EF2F  F00D         	goto	u7690
  4864   001A5A                     u7691:
  4865   001A5A  EF73  F00D         	goto	l7747
  4866   001A5E                     u7690:
  4867   001A5E  EF58  F00D         	goto	l7743
  4868   001A62                     l7723:
  4869                           
  4870                           ; BSR set to: 0
  4871                           ;menu.c: 416:                     pass0 --;
  4872   001A62  062C               	decf	_pass0^0,f,c
  4873   001A64                     
  4874                           ; BSR set to: 0
  4875                           ;menu.c: 417:                     if(pass0 > 9){
  4876   001A64  0E09               	movlw	9
  4877   001A66  642C               	cpfsgt	_pass0^0,c
  4878   001A68  EF38  F00D         	goto	u7701
  4879   001A6C  EF3A  F00D         	goto	u7700
  4880   001A70                     u7701:
  4881   001A70  EF71  F00D         	goto	l7745
  4882   001A74                     u7700:
  4883   001A74                     
  4884                           ; BSR set to: 0
  4885                           ;menu.c: 418:                         pass0 = 9;
  4886   001A74  0E09               	movlw	9
  4887   001A76  6E2C               	movwf	_pass0^0,c
  4888   001A78  EF71  F00D         	goto	l7745
  4889   001A7C                     l7729:
  4890                           
  4891                           ; BSR set to: 0
  4892                           ;menu.c: 423:                     pass1 --;
  4893   001A7C  062B               	decf	_pass1^0,f,c
  4894   001A7E                     
  4895                           ; BSR set to: 0
  4896                           ;menu.c: 424:                     if(pass1 > 9){
  4897   001A7E  0E09               	movlw	9
  4898   001A80  642B               	cpfsgt	_pass1^0,c
  4899   001A82  EF45  F00D         	goto	u7711
  4900   001A86  EF47  F00D         	goto	u7710
  4901   001A8A                     u7711:
  4902   001A8A  EF71  F00D         	goto	l7745
  4903   001A8E                     u7710:
  4904   001A8E                     
  4905                           ; BSR set to: 0
  4906                           ;menu.c: 425:                         pass1 = 9;
  4907   001A8E  0E09               	movlw	9
  4908   001A90  6E2B               	movwf	_pass1^0,c
  4909   001A92  EF71  F00D         	goto	l7745
  4910   001A96                     l7735:
  4911                           
  4912                           ; BSR set to: 0
  4913                           ;menu.c: 430:                     pass2 --;
  4914   001A96  062A               	decf	_pass2^0,f,c
  4915   001A98                     
  4916                           ; BSR set to: 0
  4917                           ;menu.c: 431:                     if(pass2 > 9){
  4918   001A98  0E09               	movlw	9
  4919   001A9A  642A               	cpfsgt	_pass2^0,c
  4920   001A9C  EF52  F00D         	goto	u7721
  4921   001AA0  EF54  F00D         	goto	u7720
  4922   001AA4                     u7721:
  4923   001AA4  EF71  F00D         	goto	l7745
  4924   001AA8                     u7720:
  4925   001AA8                     
  4926                           ; BSR set to: 0
  4927                           ;menu.c: 432:                         pass2 = 9;
  4928   001AA8  0E09               	movlw	9
  4929   001AAA  6E2A               	movwf	_pass2^0,c
  4930   001AAC  EF71  F00D         	goto	l7745
  4931   001AB0                     l7743:
  4932                           
  4933                           ; BSR set to: 0
  4934   001AB0  502D               	movf	_pass^0,w,c
  4935   001AB2  6E4B               	movwf	??_menu^0,c
  4936   001AB4  6A4C               	clrf	(??_menu+1)^0,c
  4937                           
  4938                           ; Switch on 2 bytes has been partitioned into a top level switch of size 1, and 1 sub-sw
      +                          itches
  4939                           ; Switch size 1, requested type "simple"
  4940                           ; Number of cases is 1, Range of values is 0 to 0
  4941                           ; switch strategies available:
  4942                           ; Name         Instructions Cycles
  4943                           ; simple_byte            4     3 (average)
  4944                           ;	Chosen strategy is simple_byte
  4945   001AB6  504C               	movf	(??_menu+1)^0,w,c
  4946   001AB8  0A00               	xorlw	0	; case 0
  4947   001ABA  B4D8               	btfsc	status,2,c
  4948   001ABC  EF62  F00D         	goto	l10327
  4949   001AC0  EF71  F00D         	goto	l7745
  4950   001AC4                     l10327:
  4951                           
  4952                           ; BSR set to: 0
  4953                           ; Switch size 1, requested type "simple"
  4954                           ; Number of cases is 3, Range of values is 0 to 2
  4955                           ; switch strategies available:
  4956                           ; Name         Instructions Cycles
  4957                           ; simple_byte           10     6 (average)
  4958                           ;	Chosen strategy is simple_byte
  4959   001AC4  504B               	movf	??_menu^0,w,c
  4960   001AC6  0A00               	xorlw	0	; case 0
  4961   001AC8  B4D8               	btfsc	status,2,c
  4962   001ACA  EF31  F00D         	goto	l7723
  4963   001ACE  0A01               	xorlw	1	; case 1
  4964   001AD0  B4D8               	btfsc	status,2,c
  4965   001AD2  EF3E  F00D         	goto	l7729
  4966   001AD6  0A03               	xorlw	3	; case 2
  4967   001AD8  B4D8               	btfsc	status,2,c
  4968   001ADA  EF4B  F00D         	goto	l7735
  4969   001ADE  EF71  F00D         	goto	l7745
  4970   001AE2                     l7745:
  4971                           
  4972                           ; BSR set to: 0
  4973                           ;menu.c: 437:             tecla = 0x00;
  4974   001AE2  0E00               	movlw	0
  4975   001AE4  6E3F               	movwf	_tecla^0,c
  4976   001AE6                     l7747:
  4977                           
  4978                           ; BSR set to: 0
  4979                           ;menu.c: 439:         if(tecla == 0x08){
  4980   001AE6  0E08               	movlw	8
  4981   001AE8  183F               	xorwf	_tecla^0,w,c
  4982   001AEA  A4D8               	btfss	status,2,c
  4983   001AEC  EF7A  F00D         	goto	u7731
  4984   001AF0  EF7C  F00D         	goto	u7730
  4985   001AF4                     u7731:
  4986   001AF4  EFA2  F00D         	goto	l7757
  4987   001AF8                     u7730:
  4988   001AF8                     
  4989                           ; BSR set to: 0
  4990                           ;menu.c: 440:             if((pass0 == 1)&&(pass1 == 5)&&(pass2 == 2)){
  4991   001AF8  042C               	decf	_pass0^0,w,c
  4992   001AFA  A4D8               	btfss	status,2,c
  4993   001AFC  EF82  F00D         	goto	u7741
  4994   001B00  EF84  F00D         	goto	u7740
  4995   001B04                     u7741:
  4996   001B04  EFA0  F00D         	goto	l291
  4997   001B08                     u7740:
  4998   001B08                     
  4999                           ; BSR set to: 0
  5000   001B08  0E05               	movlw	5
  5001   001B0A  182B               	xorwf	_pass1^0,w,c
  5002   001B0C  A4D8               	btfss	status,2,c
  5003   001B0E  EF8B  F00D         	goto	u7751
  5004   001B12  EF8D  F00D         	goto	u7750
  5005   001B16                     u7751:
  5006   001B16  EFA0  F00D         	goto	l291
  5007   001B1A                     u7750:
  5008   001B1A                     
  5009                           ; BSR set to: 0
  5010   001B1A  0E02               	movlw	2
  5011   001B1C  182A               	xorwf	_pass2^0,w,c
  5012   001B1E  A4D8               	btfss	status,2,c
  5013   001B20  EF94  F00D         	goto	u7761
  5014   001B24  EF96  F00D         	goto	u7760
  5015   001B28                     u7761:
  5016   001B28  EFA0  F00D         	goto	l291
  5017   001B2C                     u7760:
  5018   001B2C                     
  5019                           ; BSR set to: 0
  5020                           ;menu.c: 441:                 selMenu = 1;
  5021   001B2C  0E01               	movlw	1
  5022   001B2E  6E30               	movwf	_selMenu^0,c
  5023                           
  5024                           ;menu.c: 442:                 pass = 0;
  5025   001B30  0E00               	movlw	0
  5026   001B32  6E2D               	movwf	_pass^0,c
  5027                           
  5028                           ;menu.c: 443:                 pass0 = 0;
  5029   001B34  0E00               	movlw	0
  5030   001B36  6E2C               	movwf	_pass0^0,c
  5031                           
  5032                           ;menu.c: 444:                 pass1 = 0;
  5033   001B38  0E00               	movlw	0
  5034   001B3A  6E2B               	movwf	_pass1^0,c
  5035                           
  5036                           ;menu.c: 445:                 pass2 = 0;
  5037   001B3C  0E00               	movlw	0
  5038   001B3E  6E2A               	movwf	_pass2^0,c
  5039   001B40                     l291:
  5040                           
  5041                           ; BSR set to: 0
  5042                           ;menu.c: 447:         tecla = 0x00;
  5043   001B40  0E00               	movlw	0
  5044   001B42  6E3F               	movwf	_tecla^0,c
  5045   001B44                     l7757:
  5046                           
  5047                           ; BSR set to: 0
  5048                           ;menu.c: 449:         if(tecla == 0x10){
  5049   001B44  0E10               	movlw	16
  5050   001B46  183F               	xorwf	_tecla^0,w,c
  5051   001B48  A4D8               	btfss	status,2,c
  5052   001B4A  EFA9  F00D         	goto	u7771
  5053   001B4E  EFAB  F00D         	goto	u7770
  5054   001B52                     u7771:
  5055   001B52  EFAF  F00D         	goto	l293
  5056   001B56                     u7770:
  5057   001B56                     
  5058                           ; BSR set to: 0
  5059                           ;menu.c: 450:             selMenu=0x00;
  5060   001B56  0E00               	movlw	0
  5061   001B58  6E30               	movwf	_selMenu^0,c
  5062                           
  5063                           ;menu.c: 451:             tecla = 0x00;
  5064   001B5A  0E00               	movlw	0
  5065   001B5C  6E3F               	movwf	_tecla^0,c
  5066   001B5E                     l293:
  5067   001B5E  0012               	return		;funcret
  5068   001B60                     __end_of_menu:
  5069                           	callstack 0
  5070                           
  5071 ;; *************** function _wrEprom *****************
  5072 ;; Defined at:
  5073 ;;		line 15 in file "menu.c"
  5074 ;; Parameters:    Size  Location     Type
  5075 ;;  dir             1    wreg     unsigned char 
  5076 ;;  dato            1    8[COMRAM] unsigned char 
  5077 ;; Auto vars:     Size  Location     Type
  5078 ;;  dir             1    9[COMRAM] unsigned char 
  5079 ;; Return value:  Size  Location     Type
  5080 ;;                  1    wreg      void 
  5081 ;; Registers used:
  5082 ;;		wreg, status,2
  5083 ;; Tracked objects:
  5084 ;;		On entry : 0/0
  5085 ;;		On exit  : 0/0
  5086 ;;		Unchanged: 0/0
  5087 ;; Data sizes:     COMRAM   BANK0   BANK1   BANK2   BANK3   BANK4   BANK5
  5088 ;;      Params:         1       0       0       0       0       0       0
  5089 ;;      Locals:         1       0       0       0       0       0       0
  5090 ;;      Temps:          0       0       0       0       0       0       0
  5091 ;;      Totals:         2       0       0       0       0       0       0
  5092 ;;Total ram usage:        2 bytes
  5093 ;; Hardware stack levels used: 1
  5094 ;; Hardware stack levels required when called: 2
  5095 ;; This function calls:
  5096 ;;		Nothing
  5097 ;; This function is called by:
  5098 ;;		_menu
  5099 ;; This function uses a non-reentrant model
  5100 ;;
  5101                           
  5102                           	psect	text5
  5103   004836                     __ptext5:
  5104                           	callstack 0
  5105   004836                     _wrEprom:
  5106                           	callstack 27
  5107                           
  5108                           ;incstack = 0
  5109                           ;wrEprom@dir stored from wreg
  5110   004836  6E4A               	movwf	wrEprom@dir^0,c
  5111   004838                     
  5112                           ;menu.c: 17:     EEADR = dir;
  5113   004838  C04A  FFA9         	movff	wrEprom@dir,4009	;volatile
  5114   00483C                     
  5115                           ;menu.c: 18:     EEDATA = dato;
  5116   00483C  C049  FFA8         	movff	wrEprom@dato,4008	;volatile
  5117   004840                     
  5118                           ;menu.c: 19:     EECON1bits.CFGS = 0;
  5119   004840  9CA6               	bcf	166,6,c	;volsfr
  5120   004842                     
  5121                           ;menu.c: 20:     EECON1bits.EEPGD = 0;
  5122   004842  9EA6               	bcf	166,7,c	;volsfr
  5123   004844                     
  5124                           ;menu.c: 21:     EECON1bits.WRERR = 0;
  5125   004844  96A6               	bcf	166,3,c	;volsfr
  5126   004846                     
  5127                           ;menu.c: 22:     EECON1bits.WREN = 1;
  5128   004846  84A6               	bsf	166,2,c	;volsfr
  5129   004848                     
  5130                           ;menu.c: 23:     INTCONbits.GIE = 0;
  5131   004848  9EF2               	bcf	242,7,c	;volatile
  5132   00484A                     
  5133                           ;menu.c: 24:     EECON2 = 0x55;
  5134   00484A  0E55               	movlw	85
  5135   00484C  6EA7               	movwf	167,c	;volsfr
  5136   00484E                     
  5137                           ;menu.c: 25:     EECON2 = 0xAA;
  5138   00484E  0EAA               	movlw	170
  5139   004850  6EA7               	movwf	167,c	;volsfr
  5140   004852                     
  5141                           ;menu.c: 26:     EECON1bits.WR = 1;
  5142   004852  82A6               	bsf	166,1,c	;volsfr
  5143   004854                     
  5144                           ;menu.c: 27:     INTCONbits.GIE = 1;
  5145   004854  8EF2               	bsf	242,7,c	;volatile
  5146   004856                     
  5147                           ;menu.c: 28:     INTCONbits.PEIE =1;
  5148   004856  8CF2               	bsf	242,6,c	;volatile
  5149   004858                     
  5150                           ;menu.c: 29:     EECON1bits.WREN = 0;
  5151   004858  94A6               	bcf	166,2,c	;volsfr
  5152   00485A                     l167:
  5153                           
  5154                           ;menu.c: 30:     while (EECON1bits.WR){
  5155   00485A  B2A6               	btfsc	166,1,c	;volsfr
  5156   00485C  EF32  F024         	goto	u5881
  5157   004860  EF34  F024         	goto	u5880
  5158   004864                     u5881:
  5159   004864  EF2D  F024         	goto	l167
  5160   004868                     u5880:
  5161   004868  0012               	return		;funcret
  5162   00486A                     __end_of_wrEprom:
  5163                           	callstack 0
  5164                           
  5165 ;; *************** function _inicializacion *****************
  5166 ;; Defined at:
  5167 ;;		line 19 in file "inicializacion.c"
  5168 ;; Parameters:    Size  Location     Type
  5169 ;;		None
  5170 ;; Auto vars:     Size  Location     Type
  5171 ;;		None
  5172 ;; Return value:  Size  Location     Type
  5173 ;;                  1    wreg      void 
  5174 ;; Registers used:
  5175 ;;		wreg, fsr2l, fsr2h, status,2, status,0, cstack
  5176 ;; Tracked objects:
  5177 ;;		On entry : 0/0
  5178 ;;		On exit  : 0/0
  5179 ;;		Unchanged: 0/0
  5180 ;; Data sizes:     COMRAM   BANK0   BANK1   BANK2   BANK3   BANK4   BANK5
  5181 ;;      Params:         0       0       0       0       0       0       0
  5182 ;;      Locals:         0       0       0       0       0       0       0
  5183 ;;      Temps:          2       0       0       0       0       0       0
  5184 ;;      Totals:         2       0       0       0       0       0       0
  5185 ;;Total ram usage:        2 bytes
  5186 ;; Hardware stack levels used: 1
  5187 ;; Hardware stack levels required when called: 6
  5188 ;; This function calls:
  5189 ;;		_calibracion
  5190 ;;		_ds1820
  5191 ;; This function is called by:
  5192 ;;		_main
  5193 ;; This function uses a non-reentrant model
  5194 ;;
  5195                           
  5196                           	psect	text6
  5197   003B6A                     __ptext6:
  5198                           	callstack 0
  5199   003B6A                     _inicializacion:
  5200                           	callstack 24
  5201   003B6A                     
  5202                           ;inicializacion.c: 23:     resetWatch = 0;
  5203   003B6A  0E00               	movlw	0
  5204   003B6C  0100               	movlb	0	; () banked
  5205   003B6E  6F9F               	movwf	(_resetWatch+1)& (0+255),b
  5206   003B70  0E00               	movlw	0
  5207   003B72  6F9E               	movwf	_resetWatch& (0+255),b
  5208                           
  5209                           ;inicializacion.c: 24:     for(q = 0; q < 8 ; q++){
  5210   003B74  0E00               	movlw	0
  5211   003B76  6E26               	movwf	_q^0,c
  5212   003B78                     l7781:
  5213   003B78  0E07               	movlw	7
  5214   003B7A  6426               	cpfsgt	_q^0,c
  5215   003B7C  EFC2  F01D         	goto	u7781
  5216   003B80  EFC4  F01D         	goto	u7780
  5217   003B84                     u7781:
  5218   003B84  EFC6  F01D         	goto	l803
  5219   003B88                     u7780:
  5220   003B88  EF1C  F01E         	goto	l7793
  5221   003B8C                     l803:
  5222                           
  5223                           ;inicializacion.c: 25:         EEADR = q ;
  5224   003B8C  C026  FFA9         	movff	_q,4009	;volatile
  5225                           
  5226                           ;inicializacion.c: 26:         EECON1bits.EEPGD = 0;
  5227   003B90  9EA6               	bcf	166,7,c	;volsfr
  5228                           
  5229                           ;inicializacion.c: 27:         EECON1bits.CFGS = 0;
  5230   003B92  9CA6               	bcf	166,6,c	;volsfr
  5231                           
  5232                           ;inicializacion.c: 28:         EECON1bits.RD = 1;
  5233   003B94  80A6               	bsf	166,0,c	;volsfr
  5234   003B96                     l805:
  5235                           
  5236                           ;inicializacion.c: 29:         while(EECON1bits.RD == 1){
  5237   003B96  B0A6               	btfsc	166,0,c	;volsfr
  5238   003B98  EFD0  F01D         	goto	u7791
  5239   003B9C  EFD2  F01D         	goto	u7790
  5240   003BA0                     u7791:
  5241   003BA0  EFCB  F01D         	goto	l805
  5242   003BA4                     u7790:
  5243   003BA4  EFF0  F01D         	goto	l7787
  5244   003BA8                     l809:
  5245                           
  5246                           ;inicializacion.c: 33:                setPoint = EEDATA;
  5247   003BA8  CFA8 F040          	movff	4008,_setPoint	;volatile
  5248                           
  5249                           ;inicializacion.c: 34:                break;
  5250   003BAC  EF19  F01E         	goto	l7789
  5251   003BB0                     l811:
  5252                           
  5253                           ;inicializacion.c: 37:                 SPFxBaj = EEDATA;
  5254   003BB0  CFA8 F03A          	movff	4008,_SPFxBaj	;volatile
  5255                           
  5256                           ;inicializacion.c: 38:                 break;
  5257   003BB4  EF19  F01E         	goto	l7789
  5258   003BB8                     l812:
  5259                           
  5260                           ;inicializacion.c: 41:                 SPFxAlt = EEDATA;
  5261   003BB8  CFA8 F038          	movff	4008,_SPFxAlt	;volatile
  5262                           
  5263                           ;inicializacion.c: 42:             break;
  5264   003BBC  EF19  F01E         	goto	l7789
  5265   003BC0                     l813:
  5266                           
  5267                           ;inicializacion.c: 45:                 SPFxSen = EEDATA;
  5268   003BC0  CFA8 F03C          	movff	4008,_SPFxSen	;volatile
  5269                           
  5270                           ;inicializacion.c: 46:             break;
  5271   003BC4  EF19  F01E         	goto	l7789
  5272   003BC8                     l814:
  5273                           
  5274                           ;inicializacion.c: 49:                 CTRauto = EEDATA;
  5275   003BC8  CFA8 F03E          	movff	4008,_CTRauto	;volatile
  5276                           
  5277                           ;inicializacion.c: 50:             break;
  5278   003BCC  EF19  F01E         	goto	l7789
  5279   003BD0                     l815:
  5280                           
  5281                           ;inicializacion.c: 53:                 setPotMan = EEDATA;
  5282   003BD0  CFA8 F033          	movff	4008,_setPotMan	;volatile
  5283                           
  5284                           ;inicializacion.c: 54:             break;
  5285   003BD4  EF19  F01E         	goto	l7789
  5286   003BD8                     l816:
  5287                           
  5288                           ;inicializacion.c: 57:                 offSet = EEDATA;
  5289   003BD8  CFA8 F02F          	movff	4008,_offSet	;volatile
  5290                           
  5291                           ;inicializacion.c: 58:             break;
  5292   003BDC  EF19  F01E         	goto	l7789
  5293   003BE0                     l7787:
  5294   003BE0  5026               	movf	_q^0,w,c
  5295   003BE2  6E53               	movwf	??_inicializacion^0,c
  5296   003BE4  6A54               	clrf	(??_inicializacion+1)^0,c
  5297                           
  5298                           ; Switch on 2 bytes has been partitioned into a top level switch of size 1, and 1 sub-sw
      +                          itches
  5299                           ; Switch size 1, requested type "simple"
  5300                           ; Number of cases is 1, Range of values is 0 to 0
  5301                           ; switch strategies available:
  5302                           ; Name         Instructions Cycles
  5303                           ; simple_byte            4     3 (average)
  5304                           ;	Chosen strategy is simple_byte
  5305   003BE6  5054               	movf	(??_inicializacion+1)^0,w,c
  5306   003BE8  0A00               	xorlw	0	; case 0
  5307   003BEA  B4D8               	btfsc	status,2,c
  5308   003BEC  EFFA  F01D         	goto	l10329
  5309   003BF0  EF19  F01E         	goto	l7789
  5310   003BF4                     l10329:
  5311                           
  5312                           ; Switch size 1, requested type "simple"
  5313                           ; Number of cases is 7, Range of values is 0 to 6
  5314                           ; switch strategies available:
  5315                           ; Name         Instructions Cycles
  5316                           ; simple_byte           22    12 (average)
  5317                           ;	Chosen strategy is simple_byte
  5318   003BF4  5053               	movf	??_inicializacion^0,w,c
  5319   003BF6  0A00               	xorlw	0	; case 0
  5320   003BF8  B4D8               	btfsc	status,2,c
  5321   003BFA  EFD4  F01D         	goto	l809
  5322   003BFE  0A01               	xorlw	1	; case 1
  5323   003C00  B4D8               	btfsc	status,2,c
  5324   003C02  EFD8  F01D         	goto	l811
  5325   003C06  0A03               	xorlw	3	; case 2
  5326   003C08  B4D8               	btfsc	status,2,c
  5327   003C0A  EFDC  F01D         	goto	l812
  5328   003C0E  0A01               	xorlw	1	; case 3
  5329   003C10  B4D8               	btfsc	status,2,c
  5330   003C12  EFE0  F01D         	goto	l813
  5331   003C16  0A07               	xorlw	7	; case 4
  5332   003C18  B4D8               	btfsc	status,2,c
  5333   003C1A  EFE4  F01D         	goto	l814
  5334   003C1E  0A01               	xorlw	1	; case 5
  5335   003C20  B4D8               	btfsc	status,2,c
  5336   003C22  EFE8  F01D         	goto	l815
  5337   003C26  0A03               	xorlw	3	; case 6
  5338   003C28  B4D8               	btfsc	status,2,c
  5339   003C2A  EFEC  F01D         	goto	l816
  5340   003C2E  EF19  F01E         	goto	l7789
  5341   003C32                     l7789:
  5342                           
  5343                           ;inicializacion.c: 62:     }
  5344   003C32  2A26               	incf	_q^0,f,c
  5345   003C34  EFBC  F01D         	goto	l7781
  5346   003C38                     l7793:
  5347                           
  5348                           ;inicializacion.c: 63:     q = 0;
  5349   003C38  0E00               	movlw	0
  5350   003C3A  6E26               	movwf	_q^0,c
  5351                           
  5352                           ;inicializacion.c: 66:     resetWatch = 0;
  5353   003C3C  0E00               	movlw	0
  5354   003C3E  0100               	movlb	0	; () banked
  5355   003C40  6F9F               	movwf	(_resetWatch+1)& (0+255),b
  5356   003C42  0E00               	movlw	0
  5357   003C44  6F9E               	movwf	_resetWatch& (0+255),b
  5358                           
  5359                           ;inicializacion.c: 67:     TRISA = 0x3f;
  5360   003C46  0E3F               	movlw	63
  5361   003C48  6E92               	movwf	146,c	;volatile
  5362                           
  5363                           ;inicializacion.c: 68:     TRISB = 0b000001;
  5364   003C4A  0E01               	movlw	1
  5365   003C4C  6E93               	movwf	147,c	;volatile
  5366                           
  5367                           ;inicializacion.c: 69:     TRISC = 0x00;
  5368   003C4E  0E00               	movlw	0
  5369   003C50  6E94               	movwf	148,c	;volatile
  5370                           
  5371                           ;inicializacion.c: 70:     ANSELA= 0x00;
  5372   003C52  0E00               	movlw	0
  5373   003C54  010F               	movlb	15	; () banked
  5374   003C56  6F38               	movwf	56,b	;volatile
  5375                           
  5376                           ;inicializacion.c: 71:     ANSELB = 0x00;
  5377   003C58  0E00               	movlw	0
  5378   003C5A  6F39               	movwf	57,b	;volatile
  5379                           
  5380                           ;inicializacion.c: 72:     ANSELC = 0x00;
  5381   003C5C  0E00               	movlw	0
  5382   003C5E  6F3A               	movwf	58,b	;volatile
  5383                           
  5384                           ;inicializacion.c: 73:     PORTA = 0;
  5385   003C60  0E00               	movlw	0
  5386   003C62  6E80               	movwf	128,c	;volatile
  5387                           
  5388                           ;inicializacion.c: 74:     PORTB = 0b000000;
  5389   003C64  0E00               	movlw	0
  5390   003C66  6E81               	movwf	129,c	;volatile
  5391   003C68                     
  5392                           ; BSR set to: 15
  5393                           ;inicializacion.c: 75:     PORTC =0xff;
  5394   003C68  6882               	setf	130,c	;volatile
  5395                           
  5396                           ;inicializacion.c: 78:     resetWatch = 0;
  5397   003C6A  0E00               	movlw	0
  5398   003C6C  0100               	movlb	0	; () banked
  5399   003C6E  6F9F               	movwf	(_resetWatch+1)& (0+255),b
  5400   003C70  0E00               	movlw	0
  5401   003C72  6F9E               	movwf	_resetWatch& (0+255),b
  5402   003C74                     
  5403                           ; BSR set to: 0
  5404                           ;inicializacion.c: 79:     T0CONbits.TMR0ON = 0;
  5405   003C74  9ED5               	bcf	213,7,c	;volatile
  5406   003C76                     
  5407                           ; BSR set to: 0
  5408                           ;inicializacion.c: 80:     T0CONbits.T08BIT = 1;
  5409   003C76  8CD5               	bsf	213,6,c	;volatile
  5410   003C78                     
  5411                           ; BSR set to: 0
  5412                           ;inicializacion.c: 81:     T0CONbits.T0CS = 0;
  5413   003C78  9AD5               	bcf	213,5,c	;volatile
  5414   003C7A                     
  5415                           ; BSR set to: 0
  5416                           ;inicializacion.c: 82:     T0CONbits.T0SE = 0;
  5417   003C7A  98D5               	bcf	213,4,c	;volatile
  5418   003C7C                     
  5419                           ; BSR set to: 0
  5420                           ;inicializacion.c: 83:     T0CONbits.PSA = 0;
  5421   003C7C  96D5               	bcf	213,3,c	;volatile
  5422                           
  5423                           ;inicializacion.c: 84:     T0CONbits.T0PS = 0b010;
  5424   003C7E  50D5               	movf	213,w,c	;volatile
  5425   003C80  0BF8               	andlw	-8
  5426   003C82  0902               	iorlw	2
  5427   003C84  6ED5               	movwf	213,c	;volatile
  5428                           
  5429                           ;inicializacion.c: 85:     TMR0H = 0x00;
  5430   003C86  0E00               	movlw	0
  5431   003C88  6ED7               	movwf	215,c	;volatile
  5432                           
  5433                           ;inicializacion.c: 86:     TMR0L = 0x06;
  5434   003C8A  0E06               	movlw	6
  5435   003C8C  6ED6               	movwf	214,c	;volatile
  5436   003C8E                     
  5437                           ; BSR set to: 0
  5438                           ;inicializacion.c: 87:     INTCONbits.TMR0IF = 0;
  5439   003C8E  94F2               	bcf	242,2,c	;volatile
  5440   003C90                     
  5441                           ; BSR set to: 0
  5442                           ;inicializacion.c: 88:     INTCONbits.TMR0IE = 1;
  5443   003C90  8AF2               	bsf	242,5,c	;volatile
  5444   003C92                     
  5445                           ; BSR set to: 0
  5446                           ;inicializacion.c: 89:     INTCON2bits.TMR0IP = 0;
  5447   003C92  94F1               	bcf	241,2,c	;volatile
  5448   003C94                     
  5449                           ; BSR set to: 0
  5450                           ;inicializacion.c: 90:     RCONbits.IPEN = 1;
  5451   003C94  8ED0               	bsf	208,7,c	;volatile
  5452   003C96                     
  5453                           ; BSR set to: 0
  5454                           ;inicializacion.c: 91:     INTCONbits.GIEH = 1;
  5455   003C96  8EF2               	bsf	242,7,c	;volatile
  5456   003C98                     
  5457                           ; BSR set to: 0
  5458                           ;inicializacion.c: 92:     INTCONbits.GIEL = 1;
  5459   003C98  8CF2               	bsf	242,6,c	;volatile
  5460   003C9A                     
  5461                           ; BSR set to: 0
  5462                           ;inicializacion.c: 95:     if((PORTAbits.RA3==0)&&(PORTAbits.RA4==0)&&(PORTAbits.RA5==0)
      +                          ){
  5463   003C9A  B680               	btfsc	128,3,c	;volatile
  5464   003C9C  EF52  F01E         	goto	u7801
  5465   003CA0  EF54  F01E         	goto	u7800
  5466   003CA4                     u7801:
  5467   003CA4  EF92  F01E         	goto	l7841
  5468   003CA8                     u7800:
  5469   003CA8                     
  5470                           ; BSR set to: 0
  5471   003CA8  B880               	btfsc	128,4,c	;volatile
  5472   003CAA  EF59  F01E         	goto	u7811
  5473   003CAE  EF5B  F01E         	goto	u7810
  5474   003CB2                     u7811:
  5475   003CB2  EF92  F01E         	goto	l7841
  5476   003CB6                     u7810:
  5477   003CB6                     
  5478                           ; BSR set to: 0
  5479   003CB6  BA80               	btfsc	128,5,c	;volatile
  5480   003CB8  EF60  F01E         	goto	u7821
  5481   003CBC  EF62  F01E         	goto	u7820
  5482   003CC0                     u7821:
  5483   003CC0  EF92  F01E         	goto	l7841
  5484   003CC4                     u7820:
  5485   003CC4                     
  5486                           ; BSR set to: 0
  5487                           ;inicializacion.c: 96:         for(l=0 ; l < 10 ; l++){
  5488   003CC4  0E00               	movlw	0
  5489   003CC6  6E25               	movwf	_l^0,c
  5490   003CC8                     
  5491                           ; BSR set to: 0
  5492   003CC8  0E09               	movlw	9
  5493   003CCA  6425               	cpfsgt	_l^0,c
  5494   003CCC  EF6A  F01E         	goto	u7831
  5495   003CD0  EF6C  F01E         	goto	u7830
  5496   003CD4                     u7831:
  5497   003CD4  EF6E  F01E         	goto	l7831
  5498   003CD8                     u7830:
  5499   003CD8  EF7B  F01E         	goto	l819
  5500   003CDC                     l7831:
  5501                           
  5502                           ;inicializacion.c: 97:             _delay((unsigned long)((1)*(4000000/4000.0)));
  5503   003CDC  0EC8               	movlw	200
  5504   003CDE                     u11457:
  5505   003CDE  D000               	nop2	
  5506   003CE0  2EE8               	decfsz	wreg,f,c
  5507   003CE2  D7FD               	bra	u11457
  5508   003CE4                     
  5509                           ;inicializacion.c: 98:         }
  5510   003CE4  2A25               	incf	_l^0,f,c
  5511   003CE6  0E09               	movlw	9
  5512   003CE8  6425               	cpfsgt	_l^0,c
  5513   003CEA  EF79  F01E         	goto	u7841
  5514   003CEE  EF7B  F01E         	goto	u7840
  5515   003CF2                     u7841:
  5516   003CF2  EF6E  F01E         	goto	l7831
  5517   003CF6                     u7840:
  5518   003CF6                     l819:
  5519                           
  5520                           ;inicializacion.c: 99:         if((PORTAbits.RA3==0)&&(PORTAbits.RA4==0)&&(PORTAbits.RA5
      +                          ==0)){
  5521   003CF6  B680               	btfsc	128,3,c	;volatile
  5522   003CF8  EF80  F01E         	goto	u7851
  5523   003CFC  EF82  F01E         	goto	u7850
  5524   003D00                     u7851:
  5525   003D00  EF92  F01E         	goto	l7841
  5526   003D04                     u7850:
  5527   003D04  B880               	btfsc	128,4,c	;volatile
  5528   003D06  EF87  F01E         	goto	u7861
  5529   003D0A  EF89  F01E         	goto	u7860
  5530   003D0E                     u7861:
  5531   003D0E  EF92  F01E         	goto	l7841
  5532   003D12                     u7860:
  5533   003D12  BA80               	btfsc	128,5,c	;volatile
  5534   003D14  EF8E  F01E         	goto	u7871
  5535   003D18  EF90  F01E         	goto	u7870
  5536   003D1C                     u7871:
  5537   003D1C  EF92  F01E         	goto	l7841
  5538   003D20                     u7870:
  5539   003D20                     
  5540                           ;inicializacion.c: 100:             calibracion();
  5541   003D20  ECC0  F002         	call	_calibracion	;wreg free
  5542   003D24                     l7841:
  5543                           
  5544                           ;inicializacion.c: 104:     resetWatch = 0;
  5545   003D24  0E00               	movlw	0
  5546   003D26  0100               	movlb	0	; () banked
  5547   003D28  6F9F               	movwf	(_resetWatch+1)& (0+255),b
  5548   003D2A  0E00               	movlw	0
  5549   003D2C  6F9E               	movwf	_resetWatch& (0+255),b
  5550   003D2E                     
  5551                           ; BSR set to: 0
  5552                           ;inicializacion.c: 105:     INTCONbits.PEIE = 1;
  5553   003D2E  8CF2               	bsf	242,6,c	;volatile
  5554   003D30                     
  5555                           ; BSR set to: 0
  5556                           ;inicializacion.c: 106:     INTCONbits.INT0IE = 0;
  5557   003D30  98F2               	bcf	242,4,c	;volatile
  5558   003D32                     
  5559                           ; BSR set to: 0
  5560                           ;inicializacion.c: 107:     INTCONbits.INT0IF = 0;
  5561   003D32  92F2               	bcf	242,1,c	;volatile
  5562   003D34                     
  5563                           ; BSR set to: 0
  5564                           ;inicializacion.c: 108:     INTCON2bits.INTEDG0 = 1;
  5565   003D34  8CF1               	bsf	241,6,c	;volatile
  5566   003D36                     
  5567                           ; BSR set to: 0
  5568                           ;inicializacion.c: 109:     T1CONbits.TMR1CS = 0b00;
  5569   003D36  0E3F               	movlw	-193
  5570   003D38  16CD               	andwf	205,f,c	;volatile
  5571   003D3A                     
  5572                           ; BSR set to: 0
  5573                           ;inicializacion.c: 110:     T1CONbits.T1CKPS= 0b00;
  5574   003D3A  0ECF               	movlw	-49
  5575   003D3C  16CD               	andwf	205,f,c	;volatile
  5576   003D3E                     
  5577                           ; BSR set to: 0
  5578                           ;inicializacion.c: 111:     T1CONbits.T1SOSCEN = 0;
  5579   003D3E  96CD               	bcf	205,3,c	;volatile
  5580   003D40                     
  5581                           ; BSR set to: 0
  5582                           ;inicializacion.c: 112:     T1CONbits.T1RD16 = 0;
  5583   003D40  92CD               	bcf	205,1,c	;volatile
  5584   003D42                     
  5585                           ; BSR set to: 0
  5586                           ;inicializacion.c: 113:     PIR1bits.TMR1IF = 0;
  5587   003D42  909E               	bcf	158,0,c	;volatile
  5588   003D44                     
  5589                           ; BSR set to: 0
  5590                           ;inicializacion.c: 114:     PIE1bits.TMR1IE = 0;
  5591   003D44  909D               	bcf	157,0,c	;volatile
  5592   003D46                     
  5593                           ; BSR set to: 0
  5594                           ;inicializacion.c: 115:     IPR1bits.TMR1IP = 1;
  5595   003D46  809F               	bsf	159,0,c	;volatile
  5596   003D48                     
  5597                           ; BSR set to: 0
  5598                           ;inicializacion.c: 116:     TMR1L = 0x78;
  5599   003D48  0E78               	movlw	120
  5600   003D4A  6ECE               	movwf	206,c	;volatile
  5601   003D4C                     
  5602                           ; BSR set to: 0
  5603                           ;inicializacion.c: 117:     TMR1H = 0xec;
  5604   003D4C  0EEC               	movlw	236
  5605   003D4E  6ECF               	movwf	207,c	;volatile
  5606   003D50                     
  5607                           ; BSR set to: 0
  5608                           ;inicializacion.c: 135:     PORTC = 0xff;
  5609   003D50  6882               	setf	130,c	;volatile
  5610   003D52                     
  5611                           ; BSR set to: 0
  5612                           ;inicializacion.c: 136:     PORTB= 0b11110;
  5613   003D52  0E1E               	movlw	30
  5614   003D54  6E81               	movwf	129,c	;volatile
  5615   003D56                     
  5616                           ; BSR set to: 0
  5617                           ;inicializacion.c: 171:     resetWatch = 0;
  5618   003D56  0E00               	movlw	0
  5619   003D58  6F9F               	movwf	(_resetWatch+1)& (0+255),b
  5620   003D5A  0E00               	movlw	0
  5621   003D5C  6F9E               	movwf	_resetWatch& (0+255),b
  5622   003D5E                     
  5623                           ; BSR set to: 0
  5624                           ;inicializacion.c: 172:     ds1820(1,1);
  5625   003D5E  0E01               	movlw	1
  5626   003D60  6E4D               	movwf	ds1820@nsen^0,c
  5627   003D62  0E01               	movlw	1
  5628   003D64  EC09  F01C         	call	_ds1820
  5629   003D68                     
  5630                           ;inicializacion.c: 173:     ds1820(1,2);
  5631   003D68  0E02               	movlw	2
  5632   003D6A  6E4D               	movwf	ds1820@nsen^0,c
  5633   003D6C  0E01               	movlw	1
  5634   003D6E  EC09  F01C         	call	_ds1820
  5635   003D72                     
  5636                           ;inicializacion.c: 175:     T0CONbits.TMR0ON = 1;
  5637   003D72  8ED5               	bsf	213,7,c	;volatile
  5638   003D74                     
  5639                           ;inicializacion.c: 176:     INTCONbits.INT0IE = 1;
  5640   003D74  88F2               	bsf	242,4,c	;volatile
  5641   003D76  0012               	return		;funcret
  5642   003D78                     __end_of_inicializacion:
  5643                           	callstack 0
  5644                           
  5645 ;; *************** function _calibracion *****************
  5646 ;; Defined at:
  5647 ;;		line 85 in file "calibracion.c"
  5648 ;; Parameters:    Size  Location     Type
  5649 ;;		None
  5650 ;; Auto vars:     Size  Location     Type
  5651 ;;		None
  5652 ;; Return value:  Size  Location     Type
  5653 ;;                  1    wreg      void 
  5654 ;; Registers used:
  5655 ;;		wreg, fsr2l, fsr2h, status,2, status,0, cstack
  5656 ;; Tracked objects:
  5657 ;;		On entry : 0/0
  5658 ;;		On exit  : 0/0
  5659 ;;		Unchanged: 0/0
  5660 ;; Data sizes:     COMRAM   BANK0   BANK1   BANK2   BANK3   BANK4   BANK5
  5661 ;;      Params:         0       0       0       0       0       0       0
  5662 ;;      Locals:         0       0       0       0       0       0       0
  5663 ;;      Temps:          2       0       0       0       0       0       0
  5664 ;;      Totals:         2       0       0       0       0       0       0
  5665 ;;Total ram usage:        2 bytes
  5666 ;; Hardware stack levels used: 1
  5667 ;; Hardware stack levels required when called: 5
  5668 ;; This function calls:
  5669 ;;		_conv
  5670 ;;		_ds1820
  5671 ;; This function is called by:
  5672 ;;		_inicializacion
  5673 ;; This function uses a non-reentrant model
  5674 ;;
  5675                           
  5676                           	psect	text7
  5677   000580                     __ptext7:
  5678                           	callstack 0
  5679   000580                     _calibracion:
  5680                           	callstack 24
  5681   000580                     
  5682                           ;calibracion.c: 86:     resetWatch = 0;
  5683   000580  0E00               	movlw	0
  5684   000582  0100               	movlb	0	; () banked
  5685   000584  6F9F               	movwf	(_resetWatch+1)& (0+255),b
  5686   000586  0E00               	movlw	0
  5687   000588  6F9E               	movwf	_resetWatch& (0+255),b
  5688                           
  5689                           ;calibracion.c: 87:     for(q = 0 ; q <= 8 ; q++ ){
  5690   00058A  0E00               	movlw	0
  5691   00058C  6E26               	movwf	_q^0,c
  5692   00058E                     l6385:
  5693   00058E  0E08               	movlw	8
  5694   000590  6426               	cpfsgt	_q^0,c
  5695   000592  EFCD  F002         	goto	u5891
  5696   000596  EFCF  F002         	goto	u5890
  5697   00059A                     u5891:
  5698   00059A  EFEB  F002         	goto	l6401
  5699   00059E                     u5890:
  5700   00059E  EF06  F003         	goto	l1024
  5701   0005A2                     l6389:
  5702                           
  5703                           ;calibracion.c: 91:         resetWatch = 0;
  5704   0005A2  0E00               	movlw	0
  5705   0005A4  0100               	movlb	0	; () banked
  5706   0005A6  6F9F               	movwf	(_resetWatch+1)& (0+255),b
  5707   0005A8  0E00               	movlw	0
  5708   0005AA  6F9E               	movwf	_resetWatch& (0+255),b
  5709   0005AC                     
  5710                           ; BSR set to: 0
  5711                           ;calibracion.c: 92:             PORTB=r;
  5712   0005AC  C0D1  FF81         	movff	_r,3969	;volatile
  5713   0005B0                     
  5714                           ; BSR set to: 0
  5715                           ;calibracion.c: 93:             _delay((unsigned long)((1)*(4000000/4000.0)));
  5716   0005B0  0EC8               	movlw	200
  5717   0005B2                     u11467:
  5718   0005B2  D000               	nop2	
  5719   0005B4  2EE8               	decfsz	wreg,f,c
  5720   0005B6  D7FD               	bra	u11467
  5721   0005B8                     
  5722                           ;calibracion.c: 94:             r=r+2;
  5723   0005B8  0100               	movlb	0	; () banked
  5724   0005BA  51D1               	movf	_r& (0+255),w,b
  5725   0005BC  0F02               	addlw	2
  5726   0005BE  6FD1               	movwf	_r& (0+255),b
  5727   0005C0                     
  5728                           ; BSR set to: 0
  5729                           ;calibracion.c: 95:             if(r == 0x14){
  5730   0005C0  0E14               	movlw	20
  5731   0005C2  19D1               	xorwf	_r& (0+255),w,b
  5732   0005C4  A4D8               	btfss	status,2,c
  5733   0005C6  EFE7  F002         	goto	u5901
  5734   0005CA  EFE9  F002         	goto	u5900
  5735   0005CE                     u5901:
  5736   0005CE  EFEB  F002         	goto	l6401
  5737   0005D2                     u5900:
  5738   0005D2                     
  5739                           ; BSR set to: 0
  5740                           ;calibracion.c: 96:                 r=0;
  5741   0005D2  0E00               	movlw	0
  5742   0005D4  6FD1               	movwf	_r& (0+255),b
  5743   0005D6                     l6401:
  5744                           
  5745                           ;calibracion.c: 90:         while(PORTAbits.RA3 == 1){
  5746   0005D6  B680               	btfsc	128,3,c	;volatile
  5747   0005D8  EFF0  F002         	goto	u5911
  5748   0005DC  EFF2  F002         	goto	u5910
  5749   0005E0                     u5911:
  5750   0005E0  EFD1  F002         	goto	l6389
  5751   0005E4                     u5910:
  5752   0005E4  EFF9  F002         	goto	l6405
  5753   0005E8                     l6403:
  5754                           
  5755                           ;calibracion.c: 100:            resetWatch = 0;
  5756   0005E8  0E00               	movlw	0
  5757   0005EA  0100               	movlb	0	; () banked
  5758   0005EC  6F9F               	movwf	(_resetWatch+1)& (0+255),b
  5759   0005EE  0E00               	movlw	0
  5760   0005F0  6F9E               	movwf	_resetWatch& (0+255),b
  5761   0005F2                     l6405:
  5762                           
  5763                           ;calibracion.c: 99:         while(PORTAbits.RA3 == 0){
  5764   0005F2  A680               	btfss	128,3,c	;volatile
  5765   0005F4  EFFE  F002         	goto	u5921
  5766   0005F8  EF00  F003         	goto	u5920
  5767   0005FC                     u5921:
  5768   0005FC  EFF4  F002         	goto	l6403
  5769   000600                     u5920:
  5770   000600                     
  5771                           ;calibracion.c: 102:         PORTC=PORTC<<1;
  5772   000600  5082               	movf	130,w,c	;volatile
  5773   000602  2482               	addwf	130,w,c	;volatile
  5774   000604  6E82               	movwf	130,c	;volatile
  5775   000606                     
  5776                           ;calibracion.c: 103:     }
  5777   000606  2A26               	incf	_q^0,f,c
  5778   000608  EFC7  F002         	goto	l6385
  5779   00060C                     l1024:
  5780                           
  5781                           ;calibracion.c: 104:     PORTC=0xFF;
  5782   00060C  6882               	setf	130,c	;volatile
  5783                           
  5784                           ;calibracion.c: 105:     while (PORTAbits.RA4 == 1){
  5785   00060E  EF14  F003         	goto	l6419
  5786   000612                     l6413:
  5787                           
  5788                           ;calibracion.c: 106:         PORTB= 0x01a;
  5789   000612  0E1A               	movlw	26
  5790   000614  6E81               	movwf	129,c	;volatile
  5791   000616                     
  5792                           ;calibracion.c: 107:         _delay((unsigned long)((1)*(4000000/4000.0)));
  5793   000616  0EC8               	movlw	200
  5794   000618                     u11477:
  5795   000618  D000               	nop2	
  5796   00061A  2EE8               	decfsz	wreg,f,c
  5797   00061C  D7FD               	bra	u11477
  5798   00061E                     
  5799                           ;calibracion.c: 108:         resetWatch = 0;
  5800   00061E  0E00               	movlw	0
  5801   000620  0100               	movlb	0	; () banked
  5802   000622  6F9F               	movwf	(_resetWatch+1)& (0+255),b
  5803   000624  0E00               	movlw	0
  5804   000626  6F9E               	movwf	_resetWatch& (0+255),b
  5805   000628                     l6419:
  5806                           
  5807                           ;calibracion.c: 105:     while (PORTAbits.RA4 == 1){
  5808   000628  B880               	btfsc	128,4,c	;volatile
  5809   00062A  EF19  F003         	goto	u5931
  5810   00062E  EF1B  F003         	goto	u5930
  5811   000632                     u5931:
  5812   000632  EF09  F003         	goto	l6413
  5813   000636                     u5930:
  5814   000636  EF22  F003         	goto	l6423
  5815   00063A                     l6421:
  5816                           
  5817                           ;calibracion.c: 111:         resetWatch = 0;
  5818   00063A  0E00               	movlw	0
  5819   00063C  0100               	movlb	0	; () banked
  5820   00063E  6F9F               	movwf	(_resetWatch+1)& (0+255),b
  5821   000640  0E00               	movlw	0
  5822   000642  6F9E               	movwf	_resetWatch& (0+255),b
  5823   000644                     l6423:
  5824                           
  5825                           ;calibracion.c: 110:     while(PORTAbits.RA4 == 0){
  5826   000644  A880               	btfss	128,4,c	;volatile
  5827   000646  EF27  F003         	goto	u5941
  5828   00064A  EF29  F003         	goto	u5940
  5829   00064E                     u5941:
  5830   00064E  EF1D  F003         	goto	l6421
  5831   000652                     u5940:
  5832   000652  EF3C  F003         	goto	l6433
  5833   000656                     l6425:
  5834                           
  5835                           ;calibracion.c: 114:         PORTB= 0x1a;
  5836   000656  0E1A               	movlw	26
  5837   000658  6E81               	movwf	129,c	;volatile
  5838   00065A                     
  5839                           ;calibracion.c: 115:         _delay((unsigned long)((1)*(4000000/4000.0)));
  5840   00065A  0EC8               	movlw	200
  5841   00065C                     u11487:
  5842   00065C  D000               	nop2	
  5843   00065E  2EE8               	decfsz	wreg,f,c
  5844   000660  D7FD               	bra	u11487
  5845   000662                     
  5846                           ;calibracion.c: 116:         PORTB= 0x18;
  5847   000662  0E18               	movlw	24
  5848   000664  6E81               	movwf	129,c	;volatile
  5849                           
  5850                           ;calibracion.c: 117:         _delay((unsigned long)((1)*(4000000/4000.0)));
  5851   000666  0EC8               	movlw	200
  5852   000668                     u11497:
  5853   000668  D000               	nop2	
  5854   00066A  2EE8               	decfsz	wreg,f,c
  5855   00066C  D7FD               	bra	u11497
  5856   00066E                     
  5857                           ;calibracion.c: 118:         resetWatch = 0;
  5858   00066E  0E00               	movlw	0
  5859   000670  0100               	movlb	0	; () banked
  5860   000672  6F9F               	movwf	(_resetWatch+1)& (0+255),b
  5861   000674  0E00               	movlw	0
  5862   000676  6F9E               	movwf	_resetWatch& (0+255),b
  5863   000678                     l6433:
  5864                           
  5865                           ;calibracion.c: 113:     while(PORTAbits.RA4==1){
  5866   000678  B880               	btfsc	128,4,c	;volatile
  5867   00067A  EF41  F003         	goto	u5951
  5868   00067E  EF43  F003         	goto	u5950
  5869   000682                     u5951:
  5870   000682  EF2B  F003         	goto	l6425
  5871   000686                     u5950:
  5872   000686  EF4A  F003         	goto	l6437
  5873   00068A                     l6435:
  5874                           
  5875                           ;calibracion.c: 122:         resetWatch = 0;
  5876   00068A  0E00               	movlw	0
  5877   00068C  0100               	movlb	0	; () banked
  5878   00068E  6F9F               	movwf	(_resetWatch+1)& (0+255),b
  5879   000690  0E00               	movlw	0
  5880   000692  6F9E               	movwf	_resetWatch& (0+255),b
  5881   000694                     l6437:
  5882                           
  5883                           ;calibracion.c: 121:     while(PORTAbits.RA4 == 0){
  5884   000694  A880               	btfss	128,4,c	;volatile
  5885   000696  EF4F  F003         	goto	u5961
  5886   00069A  EF51  F003         	goto	u5960
  5887   00069E                     u5961:
  5888   00069E  EF45  F003         	goto	l6435
  5889   0006A2                     u5960:
  5890   0006A2  EF6A  F003         	goto	l6449
  5891   0006A6                     l6439:
  5892                           
  5893                           ;calibracion.c: 126:         PORTB= 0x1a;
  5894   0006A6  0E1A               	movlw	26
  5895   0006A8  6E81               	movwf	129,c	;volatile
  5896   0006AA                     
  5897                           ;calibracion.c: 127:         _delay((unsigned long)((1)*(4000000/4000.0)));
  5898   0006AA  0EC8               	movlw	200
  5899   0006AC                     u11507:
  5900   0006AC  D000               	nop2	
  5901   0006AE  2EE8               	decfsz	wreg,f,c
  5902   0006B0  D7FD               	bra	u11507
  5903   0006B2                     
  5904                           ;calibracion.c: 128:         PORTB= 0x18;
  5905   0006B2  0E18               	movlw	24
  5906   0006B4  6E81               	movwf	129,c	;volatile
  5907                           
  5908                           ;calibracion.c: 129:         _delay((unsigned long)((1)*(4000000/4000.0)));
  5909   0006B6  0EC8               	movlw	200
  5910   0006B8                     u11517:
  5911   0006B8  D000               	nop2	
  5912   0006BA  2EE8               	decfsz	wreg,f,c
  5913   0006BC  D7FD               	bra	u11517
  5914   0006BE                     
  5915                           ;calibracion.c: 130:         PORTB= 0x16;
  5916   0006BE  0E16               	movlw	22
  5917   0006C0  6E81               	movwf	129,c	;volatile
  5918   0006C2                     
  5919                           ;calibracion.c: 131:         _delay((unsigned long)((1)*(4000000/4000.0)));
  5920   0006C2  0EC8               	movlw	200
  5921   0006C4                     u11527:
  5922   0006C4  D000               	nop2	
  5923   0006C6  2EE8               	decfsz	wreg,f,c
  5924   0006C8  D7FD               	bra	u11527
  5925                           
  5926                           ;calibracion.c: 132:         resetWatch = 0;
  5927   0006CA  0E00               	movlw	0
  5928   0006CC  0100               	movlb	0	; () banked
  5929   0006CE  6F9F               	movwf	(_resetWatch+1)& (0+255),b
  5930   0006D0  0E00               	movlw	0
  5931   0006D2  6F9E               	movwf	_resetWatch& (0+255),b
  5932   0006D4                     l6449:
  5933                           
  5934                           ;calibracion.c: 124:     while(PORTAbits.RA4 ==1){
  5935   0006D4  B880               	btfsc	128,4,c	;volatile
  5936   0006D6  EF6F  F003         	goto	u5971
  5937   0006DA  EF71  F003         	goto	u5970
  5938   0006DE                     u5971:
  5939   0006DE  EF53  F003         	goto	l6439
  5940   0006E2                     u5970:
  5941   0006E2  EF78  F003         	goto	l6453
  5942   0006E6                     l6451:
  5943                           
  5944                           ;calibracion.c: 135:         resetWatch = 0;
  5945   0006E6  0E00               	movlw	0
  5946   0006E8  0100               	movlb	0	; () banked
  5947   0006EA  6F9F               	movwf	(_resetWatch+1)& (0+255),b
  5948   0006EC  0E00               	movlw	0
  5949   0006EE  6F9E               	movwf	_resetWatch& (0+255),b
  5950   0006F0                     l6453:
  5951                           
  5952                           ;calibracion.c: 134:     while(PORTAbits.RA4 == 0){
  5953   0006F0  A880               	btfss	128,4,c	;volatile
  5954   0006F2  EF7D  F003         	goto	u5981
  5955   0006F6  EF7F  F003         	goto	u5980
  5956   0006FA                     u5981:
  5957   0006FA  EF73  F003         	goto	l6451
  5958   0006FE                     u5980:
  5959   0006FE  EF9E  F003         	goto	l6469
  5960   000702                     l6455:
  5961                           
  5962                           ;calibracion.c: 139:         PORTB= 0x1a;
  5963   000702  0E1A               	movlw	26
  5964   000704  6E81               	movwf	129,c	;volatile
  5965   000706                     
  5966                           ;calibracion.c: 140:         _delay((unsigned long)((1)*(4000000/4000.0)));
  5967   000706  0EC8               	movlw	200
  5968   000708                     u11537:
  5969   000708  D000               	nop2	
  5970   00070A  2EE8               	decfsz	wreg,f,c
  5971   00070C  D7FD               	bra	u11537
  5972   00070E                     
  5973                           ;calibracion.c: 141:         PORTB= 0x18;
  5974   00070E  0E18               	movlw	24
  5975   000710  6E81               	movwf	129,c	;volatile
  5976                           
  5977                           ;calibracion.c: 142:         _delay((unsigned long)((1)*(4000000/4000.0)));
  5978   000712  0EC8               	movlw	200
  5979   000714                     u11547:
  5980   000714  D000               	nop2	
  5981   000716  2EE8               	decfsz	wreg,f,c
  5982   000718  D7FD               	bra	u11547
  5983   00071A                     
  5984                           ;calibracion.c: 143:         PORTB= 0x16;
  5985   00071A  0E16               	movlw	22
  5986   00071C  6E81               	movwf	129,c	;volatile
  5987   00071E                     
  5988                           ;calibracion.c: 144:         _delay((unsigned long)((1)*(4000000/4000.0)));
  5989   00071E  0EC8               	movlw	200
  5990   000720                     u11557:
  5991   000720  D000               	nop2	
  5992   000722  2EE8               	decfsz	wreg,f,c
  5993   000724  D7FD               	bra	u11557
  5994                           
  5995                           ;calibracion.c: 145:         PORTB= 0x14;
  5996   000726  0E14               	movlw	20
  5997   000728  6E81               	movwf	129,c	;volatile
  5998   00072A                     
  5999                           ;calibracion.c: 146:         _delay((unsigned long)((1)*(4000000/4000.0)));
  6000   00072A  0EC8               	movlw	200
  6001   00072C                     u11567:
  6002   00072C  D000               	nop2	
  6003   00072E  2EE8               	decfsz	wreg,f,c
  6004   000730  D7FD               	bra	u11567
  6005   000732                     
  6006                           ;calibracion.c: 147:         resetWatch = 0;
  6007   000732  0E00               	movlw	0
  6008   000734  0100               	movlb	0	; () banked
  6009   000736  6F9F               	movwf	(_resetWatch+1)& (0+255),b
  6010   000738  0E00               	movlw	0
  6011   00073A  6F9E               	movwf	_resetWatch& (0+255),b
  6012   00073C                     l6469:
  6013                           
  6014                           ;calibracion.c: 137:     while(PORTAbits.RA4 ==1){
  6015   00073C  B880               	btfsc	128,4,c	;volatile
  6016   00073E  EFA3  F003         	goto	u5991
  6017   000742  EFA5  F003         	goto	u5990
  6018   000746                     u5991:
  6019   000746  EF81  F003         	goto	l6455
  6020   00074A                     u5990:
  6021   00074A  EFAC  F003         	goto	l6473
  6022   00074E                     l6471:
  6023                           
  6024                           ;calibracion.c: 150:         resetWatch = 0;
  6025   00074E  0E00               	movlw	0
  6026   000750  0100               	movlb	0	; () banked
  6027   000752  6F9F               	movwf	(_resetWatch+1)& (0+255),b
  6028   000754  0E00               	movlw	0
  6029   000756  6F9E               	movwf	_resetWatch& (0+255),b
  6030   000758                     l6473:
  6031                           
  6032                           ;calibracion.c: 149:     while(PORTAbits.RA4 == 0){
  6033   000758  A880               	btfss	128,4,c	;volatile
  6034   00075A  EFB1  F003         	goto	u6001
  6035   00075E  EFB3  F003         	goto	u6000
  6036   000762                     u6001:
  6037   000762  EFA7  F003         	goto	l6471
  6038   000766                     u6000:
  6039   000766                     
  6040                           ;calibracion.c: 152:     resetWatch = 0;
  6041   000766  0E00               	movlw	0
  6042   000768  0100               	movlb	0	; () banked
  6043   00076A  6F9F               	movwf	(_resetWatch+1)& (0+255),b
  6044   00076C  0E00               	movlw	0
  6045   00076E  6F9E               	movwf	_resetWatch& (0+255),b
  6046   000770                     
  6047                           ; BSR set to: 0
  6048                           ;calibracion.c: 153:     ds1820(1,1);
  6049   000770  0E01               	movlw	1
  6050   000772  6E4D               	movwf	ds1820@nsen^0,c
  6051   000774  0E01               	movlw	1
  6052   000776  EC09  F01C         	call	_ds1820
  6053   00077A                     
  6054                           ;calibracion.c: 154:     PORTC=0xFF;
  6055   00077A  6882               	setf	130,c	;volatile
  6056                           
  6057                           ;calibracion.c: 155:     while(PORTAbits.RA5 ==1){
  6058   00077C  EFB6  F004         	goto	l6619
  6059   000780                     l6481:
  6060                           
  6061                           ;calibracion.c: 156:         dig[0]=0x92;
  6062   000780  0E92               	movlw	146
  6063   000782  6E01               	movwf	_dig^0,c
  6064   000784                     
  6065                           ;calibracion.c: 157:         PORTC = dig[0];
  6066   000784  C001  FF82         	movff	_dig,3970	;volatile
  6067                           
  6068                           ;calibracion.c: 158:         PORTB=0x00;
  6069   000788  0E00               	movlw	0
  6070   00078A  6E81               	movwf	129,c	;volatile
  6071   00078C                     
  6072                           ;calibracion.c: 159:         _delay((unsigned long)((1)*(4000000/4000.0)));
  6073   00078C  0EC8               	movlw	200
  6074   00078E                     u11577:
  6075   00078E  D000               	nop2	
  6076   000790  2EE8               	decfsz	wreg,f,c
  6077   000792  D7FD               	bra	u11577
  6078   000794                     
  6079                           ;calibracion.c: 160:         PORTB = 0b00011110;
  6080   000794  0E1E               	movlw	30
  6081   000796  6E81               	movwf	129,c	;volatile
  6082   000798                     
  6083                           ;calibracion.c: 161:         dig[1]=0x84;
  6084   000798  0E84               	movlw	132
  6085   00079A  6E02               	movwf	(_dig+1)^0,c
  6086   00079C                     
  6087                           ;calibracion.c: 162:         PORTC = dig[1];
  6088   00079C  C002  FF82         	movff	_dig+1,3970	;volatile
  6089   0007A0                     
  6090                           ;calibracion.c: 163:         PORTB=0x02;
  6091   0007A0  0E02               	movlw	2
  6092   0007A2  6E81               	movwf	129,c	;volatile
  6093                           
  6094                           ;calibracion.c: 164:         _delay((unsigned long)((1)*(4000000/4000.0)));
  6095   0007A4  0EC8               	movlw	200
  6096   0007A6                     u11587:
  6097   0007A6  D000               	nop2	
  6098   0007A8  2EE8               	decfsz	wreg,f,c
  6099   0007AA  D7FD               	bra	u11587
  6100   0007AC                     
  6101                           ;calibracion.c: 165:         PORTB = 0b00011110;
  6102   0007AC  0E1E               	movlw	30
  6103   0007AE  6E81               	movwf	129,c	;volatile
  6104   0007B0                     
  6105                           ;calibracion.c: 166:         dig[2]=0xF9;
  6106   0007B0  0EF9               	movlw	249
  6107   0007B2  6E03               	movwf	(_dig+2)^0,c
  6108   0007B4                     
  6109                           ;calibracion.c: 167:         PORTC = dig[2];
  6110   0007B4  C003  FF82         	movff	_dig+2,3970	;volatile
  6111   0007B8                     
  6112                           ;calibracion.c: 168:         PORTB=0x04;
  6113   0007B8  0E04               	movlw	4
  6114   0007BA  6E81               	movwf	129,c	;volatile
  6115   0007BC                     
  6116                           ;calibracion.c: 169:         _delay((unsigned long)((1)*(4000000/4000.0)));
  6117   0007BC  0EC8               	movlw	200
  6118   0007BE                     u11597:
  6119   0007BE  D000               	nop2	
  6120   0007C0  2EE8               	decfsz	wreg,f,c
  6121   0007C2  D7FD               	bra	u11597
  6122                           
  6123                           ;calibracion.c: 170:         PORTB = 0b00011110;
  6124   0007C4  0E1E               	movlw	30
  6125   0007C6  6E81               	movwf	129,c	;volatile
  6126                           
  6127                           ;calibracion.c: 171:         resetWatch = 0;
  6128   0007C8  0E00               	movlw	0
  6129   0007CA  0100               	movlb	0	; () banked
  6130   0007CC  6F9F               	movwf	(_resetWatch+1)& (0+255),b
  6131   0007CE  0E00               	movlw	0
  6132   0007D0  6F9E               	movwf	_resetWatch& (0+255),b
  6133   0007D2                     
  6134                           ; BSR set to: 0
  6135                           ;calibracion.c: 173:         if(presencia1 == 1){
  6136   0007D2  0413               	decf	_presencia1^0,w,c
  6137   0007D4  A4D8               	btfss	status,2,c
  6138   0007D6  EFEF  F003         	goto	u6011
  6139   0007DA  EFF1  F003         	goto	u6010
  6140   0007DE                     u6011:
  6141   0007DE  EF27  F004         	goto	l6537
  6142   0007E2                     u6010:
  6143   0007E2                     
  6144                           ; BSR set to: 0
  6145                           ;calibracion.c: 174:             resetWatch = 0;
  6146   0007E2  0E00               	movlw	0
  6147   0007E4  6F9F               	movwf	(_resetWatch+1)& (0+255),b
  6148   0007E6  0E00               	movlw	0
  6149   0007E8  6F9E               	movwf	_resetWatch& (0+255),b
  6150                           
  6151                           ;calibracion.c: 175:             dig[4]=0xAB;
  6152   0007EA  0EAB               	movlw	171
  6153   0007EC  6E05               	movwf	(_dig+4)^0,c
  6154   0007EE                     
  6155                           ; BSR set to: 0
  6156                           ;calibracion.c: 176:             PORTC = dig[4];
  6157   0007EE  C005  FF82         	movff	_dig+4,3970	;volatile
  6158                           
  6159                           ;calibracion.c: 177:             PORTB=0x08;
  6160   0007F2  0E08               	movlw	8
  6161   0007F4  6E81               	movwf	129,c	;volatile
  6162   0007F6                     
  6163                           ; BSR set to: 0
  6164                           ;calibracion.c: 178:             _delay((unsigned long)((1)*(4000000/4000.0)));
  6165   0007F6  0EC8               	movlw	200
  6166   0007F8                     u11607:
  6167   0007F8  D000               	nop2	
  6168   0007FA  2EE8               	decfsz	wreg,f,c
  6169   0007FC  D7FD               	bra	u11607
  6170   0007FE                     
  6171                           ;calibracion.c: 179:             PORTB = 0b00011110;
  6172   0007FE  0E1E               	movlw	30
  6173   000800  6E81               	movwf	129,c	;volatile
  6174   000802                     
  6175                           ;calibracion.c: 180:             dig[5]=0xA3;
  6176   000802  0EA3               	movlw	163
  6177   000804  6E06               	movwf	(_dig+5)^0,c
  6178   000806                     
  6179                           ;calibracion.c: 181:             PORTC = dig[5];
  6180   000806  C006  FF82         	movff	_dig+5,3970	;volatile
  6181   00080A                     
  6182                           ;calibracion.c: 182:             PORTB=0x0A;
  6183   00080A  0E0A               	movlw	10
  6184   00080C  6E81               	movwf	129,c	;volatile
  6185                           
  6186                           ;calibracion.c: 183:             _delay((unsigned long)((1)*(4000000/4000.0)));
  6187   00080E  0EC8               	movlw	200
  6188   000810                     u11617:
  6189   000810  D000               	nop2	
  6190   000812  2EE8               	decfsz	wreg,f,c
  6191   000814  D7FD               	bra	u11617
  6192   000816                     
  6193                           ;calibracion.c: 184:             PORTB = 0b00011110;
  6194   000816  0E1E               	movlw	30
  6195   000818  6E81               	movwf	129,c	;volatile
  6196   00081A                     
  6197                           ;calibracion.c: 185:             dig[7]=0x92;
  6198   00081A  0E92               	movlw	146
  6199   00081C  6E08               	movwf	(_dig+7)^0,c
  6200   00081E                     
  6201                           ;calibracion.c: 186:             PORTC = dig[7];
  6202   00081E  C008  FF82         	movff	_dig+7,3970	;volatile
  6203   000822                     
  6204                           ;calibracion.c: 187:             PORTB=0x0E;
  6205   000822  0E0E               	movlw	14
  6206   000824  6E81               	movwf	129,c	;volatile
  6207   000826                     
  6208                           ;calibracion.c: 188:             _delay((unsigned long)((1)*(4000000/4000.0)));
  6209   000826  0EC8               	movlw	200
  6210   000828                     u11627:
  6211   000828  D000               	nop2	
  6212   00082A  2EE8               	decfsz	wreg,f,c
  6213   00082C  D7FD               	bra	u11627
  6214                           
  6215                           ;calibracion.c: 189:             PORTB = 0b00011110;
  6216   00082E  0E1E               	movlw	30
  6217   000830  6E81               	movwf	129,c	;volatile
  6218                           
  6219                           ;calibracion.c: 190:             dig[8]=0x82;
  6220   000832  0E82               	movlw	130
  6221   000834  6E09               	movwf	(_dig+8)^0,c
  6222   000836                     
  6223                           ;calibracion.c: 191:             PORTC = dig[8];
  6224   000836  C009  FF82         	movff	_dig+8,3970	;volatile
  6225                           
  6226                           ;calibracion.c: 192:             PORTB=0x10;
  6227   00083A  0E10               	movlw	16
  6228   00083C  6E81               	movwf	129,c	;volatile
  6229   00083E                     
  6230                           ;calibracion.c: 193:             _delay((unsigned long)((1)*(4000000/4000.0)));
  6231   00083E  0EC8               	movlw	200
  6232   000840                     u11637:
  6233   000840  D000               	nop2	
  6234   000842  2EE8               	decfsz	wreg,f,c
  6235   000844  D7FD               	bra	u11637
  6236   000846                     l6535:
  6237                           
  6238                           ;calibracion.c: 194:             PORTB = 0b00011110;
  6239   000846  0E1E               	movlw	30
  6240   000848  6E81               	movwf	129,c	;volatile
  6241                           
  6242                           ;calibracion.c: 195:         }else{
  6243   00084A  EFB6  F004         	goto	l6619
  6244   00084E                     l6537:
  6245                           
  6246                           ; BSR set to: 0
  6247                           ;calibracion.c: 196:             resetWatch = 0;
  6248   00084E  0E00               	movlw	0
  6249   000850  6F9F               	movwf	(_resetWatch+1)& (0+255),b
  6250   000852  0E00               	movlw	0
  6251   000854  6F9E               	movwf	_resetWatch& (0+255),b
  6252   000856                     
  6253                           ; BSR set to: 0
  6254                           ;calibracion.c: 197:             if(lectRom1[0]== 0x28){
  6255   000856  0E28               	movlw	40
  6256   000858  1982               	xorwf	_lectRom1& (0+255),w,b
  6257   00085A  A4D8               	btfss	status,2,c
  6258   00085C  EF32  F004         	goto	u6021
  6259   000860  EF34  F004         	goto	u6020
  6260   000864                     u6021:
  6261   000864  EF70  F004         	goto	l6579
  6262   000868                     u6020:
  6263   000868                     
  6264                           ; BSR set to: 0
  6265                           ;calibracion.c: 198:                 dig[3]=0xF9;
  6266   000868  0EF9               	movlw	249
  6267   00086A  6E04               	movwf	(_dig+3)^0,c
  6268   00086C                     
  6269                           ; BSR set to: 0
  6270                           ;calibracion.c: 199:                 PORTC = dig[3];
  6271   00086C  C004  FF82         	movff	_dig+3,3970	;volatile
  6272                           
  6273                           ;calibracion.c: 200:                 PORTB=0x06;
  6274   000870  0E06               	movlw	6
  6275   000872  6E81               	movwf	129,c	;volatile
  6276   000874                     
  6277                           ; BSR set to: 0
  6278                           ;calibracion.c: 201:                 _delay((unsigned long)((1)*(4000000/4000.0)));
  6279   000874  0EC8               	movlw	200
  6280   000876                     u11647:
  6281   000876  D000               	nop2	
  6282   000878  2EE8               	decfsz	wreg,f,c
  6283   00087A  D7FD               	bra	u11647
  6284   00087C                     
  6285                           ;calibracion.c: 202:                 PORTB = 0b00011110;
  6286   00087C  0E1E               	movlw	30
  6287   00087E  6E81               	movwf	129,c	;volatile
  6288   000880                     
  6289                           ;calibracion.c: 203:                 dig[4]=0x80;
  6290   000880  0E80               	movlw	128
  6291   000882  6E05               	movwf	(_dig+4)^0,c
  6292   000884                     
  6293                           ;calibracion.c: 204:                 PORTC = dig[4];
  6294   000884  C005  FF82         	movff	_dig+4,3970	;volatile
  6295   000888                     
  6296                           ;calibracion.c: 205:                 PORTB=0x08;
  6297   000888  0E08               	movlw	8
  6298   00088A  6E81               	movwf	129,c	;volatile
  6299                           
  6300                           ;calibracion.c: 206:                 _delay((unsigned long)((1)*(4000000/4000.0)));
  6301   00088C  0EC8               	movlw	200
  6302   00088E                     u11657:
  6303   00088E  D000               	nop2	
  6304   000890  2EE8               	decfsz	wreg,f,c
  6305   000892  D7FD               	bra	u11657
  6306   000894                     
  6307                           ;calibracion.c: 207:                 PORTB = 0b00011110;
  6308   000894  0E1E               	movlw	30
  6309   000896  6E81               	movwf	129,c	;volatile
  6310   000898                     
  6311                           ;calibracion.c: 208:                 dig[5]=0x83;
  6312   000898  0E83               	movlw	131
  6313   00089A  6E06               	movwf	(_dig+5)^0,c
  6314   00089C                     
  6315                           ;calibracion.c: 209:                 PORTC = dig[5];
  6316   00089C  C006  FF82         	movff	_dig+5,3970	;volatile
  6317   0008A0                     
  6318                           ;calibracion.c: 210:                 PORTB=0x0A;
  6319   0008A0  0E0A               	movlw	10
  6320   0008A2  6E81               	movwf	129,c	;volatile
  6321   0008A4                     
  6322                           ;calibracion.c: 211:                 _delay((unsigned long)((1)*(4000000/4000.0)));
  6323   0008A4  0EC8               	movlw	200
  6324   0008A6                     u11667:
  6325   0008A6  D000               	nop2	
  6326   0008A8  2EE8               	decfsz	wreg,f,c
  6327   0008AA  D7FD               	bra	u11667
  6328                           
  6329                           ;calibracion.c: 212:                 PORTB = 0b00011110;
  6330   0008AC  0E1E               	movlw	30
  6331   0008AE  6E81               	movwf	129,c	;volatile
  6332                           
  6333                           ;calibracion.c: 213:                 dig[7]=0xA4;
  6334   0008B0  0EA4               	movlw	164
  6335   0008B2  6E08               	movwf	(_dig+7)^0,c
  6336   0008B4                     
  6337                           ;calibracion.c: 214:                 PORTC = dig[7];
  6338   0008B4  C008  FF82         	movff	_dig+7,3970	;volatile
  6339                           
  6340                           ;calibracion.c: 215:                 PORTB=0x0E;
  6341   0008B8  0E0E               	movlw	14
  6342   0008BA  6E81               	movwf	129,c	;volatile
  6343   0008BC                     
  6344                           ;calibracion.c: 216:                 _delay((unsigned long)((1)*(4000000/4000.0)));
  6345   0008BC  0EC8               	movlw	200
  6346   0008BE                     u11677:
  6347   0008BE  D000               	nop2	
  6348   0008C0  2EE8               	decfsz	wreg,f,c
  6349   0008C2  D7FD               	bra	u11677
  6350   0008C4                     
  6351                           ;calibracion.c: 217:                 PORTB = 0b00011110;
  6352   0008C4  0E1E               	movlw	30
  6353   0008C6  6E81               	movwf	129,c	;volatile
  6354   0008C8                     
  6355                           ;calibracion.c: 218:                 dig[8]=0xC0;
  6356   0008C8  0EC0               	movlw	192
  6357   0008CA  6E09               	movwf	(_dig+8)^0,c
  6358   0008CC                     
  6359                           ;calibracion.c: 219:                 PORTC = dig[8];
  6360   0008CC  C009  FF82         	movff	_dig+8,3970	;volatile
  6361   0008D0                     
  6362                           ;calibracion.c: 220:                 PORTB=0x10;
  6363   0008D0  0E10               	movlw	16
  6364   0008D2  6E81               	movwf	129,c	;volatile
  6365                           
  6366                           ;calibracion.c: 221:                 _delay((unsigned long)((1)*(4000000/4000.0)));
  6367   0008D4  0EC8               	movlw	200
  6368   0008D6                     u11687:
  6369   0008D6  D000               	nop2	
  6370   0008D8  2EE8               	decfsz	wreg,f,c
  6371   0008DA  D7FD               	bra	u11687
  6372   0008DC                     
  6373                           ;calibracion.c: 222:                 PORTB = 0b00011110;
  6374   0008DC  0E1E               	movlw	30
  6375   0008DE  6E81               	movwf	129,c	;volatile
  6376   0008E0                     l6579:
  6377                           
  6378                           ;calibracion.c: 224:             if(lectRom1[0]== 0x10){
  6379   0008E0  0E10               	movlw	16
  6380   0008E2  0100               	movlb	0	; () banked
  6381   0008E4  1982               	xorwf	_lectRom1& (0+255),w,b
  6382   0008E6  A4D8               	btfss	status,2,c
  6383   0008E8  EF78  F004         	goto	u6031
  6384   0008EC  EF7A  F004         	goto	u6030
  6385   0008F0                     u6031:
  6386   0008F0  EFB6  F004         	goto	l6619
  6387   0008F4                     u6030:
  6388   0008F4                     
  6389                           ; BSR set to: 0
  6390                           ;calibracion.c: 225:                 dig[3]=0xF9;
  6391   0008F4  0EF9               	movlw	249
  6392   0008F6  6E04               	movwf	(_dig+3)^0,c
  6393   0008F8                     
  6394                           ; BSR set to: 0
  6395                           ;calibracion.c: 226:                 PORTC = dig[3];
  6396   0008F8  C004  FF82         	movff	_dig+3,3970	;volatile
  6397                           
  6398                           ;calibracion.c: 227:                 PORTB=0x06;
  6399   0008FC  0E06               	movlw	6
  6400   0008FE  6E81               	movwf	129,c	;volatile
  6401   000900                     
  6402                           ; BSR set to: 0
  6403                           ;calibracion.c: 228:                 _delay((unsigned long)((1)*(4000000/4000.0)));
  6404   000900  0EC8               	movlw	200
  6405   000902                     u11697:
  6406   000902  D000               	nop2	
  6407   000904  2EE8               	decfsz	wreg,f,c
  6408   000906  D7FD               	bra	u11697
  6409   000908                     
  6410                           ;calibracion.c: 229:                 PORTB = 0b00011110;
  6411   000908  0E1E               	movlw	30
  6412   00090A  6E81               	movwf	129,c	;volatile
  6413   00090C                     
  6414                           ;calibracion.c: 230:                 dig[4]=0x80;
  6415   00090C  0E80               	movlw	128
  6416   00090E  6E05               	movwf	(_dig+4)^0,c
  6417   000910                     
  6418                           ;calibracion.c: 231:                 PORTC = dig[4];
  6419   000910  C005  FF82         	movff	_dig+4,3970	;volatile
  6420   000914                     
  6421                           ;calibracion.c: 232:                 PORTB=0x08;
  6422   000914  0E08               	movlw	8
  6423   000916  6E81               	movwf	129,c	;volatile
  6424                           
  6425                           ;calibracion.c: 233:                 _delay((unsigned long)((1)*(4000000/4000.0)));
  6426   000918  0EC8               	movlw	200
  6427   00091A                     u11707:
  6428   00091A  D000               	nop2	
  6429   00091C  2EE8               	decfsz	wreg,f,c
  6430   00091E  D7FD               	bra	u11707
  6431   000920                     
  6432                           ;calibracion.c: 234:                 PORTB = 0b00011110;
  6433   000920  0E1E               	movlw	30
  6434   000922  6E81               	movwf	129,c	;volatile
  6435   000924                     
  6436                           ;calibracion.c: 235:                 dig[5]=0x92;
  6437   000924  0E92               	movlw	146
  6438   000926  6E06               	movwf	(_dig+5)^0,c
  6439   000928                     
  6440                           ;calibracion.c: 236:                 PORTC = dig[5];
  6441   000928  C006  FF82         	movff	_dig+5,3970	;volatile
  6442   00092C                     
  6443                           ;calibracion.c: 237:                 PORTB=0x0A;
  6444   00092C  0E0A               	movlw	10
  6445   00092E  6E81               	movwf	129,c	;volatile
  6446   000930                     
  6447                           ;calibracion.c: 238:                 _delay((unsigned long)((1)*(4000000/4000.0)));
  6448   000930  0EC8               	movlw	200
  6449   000932                     u11717:
  6450   000932  D000               	nop2	
  6451   000934  2EE8               	decfsz	wreg,f,c
  6452   000936  D7FD               	bra	u11717
  6453                           
  6454                           ;calibracion.c: 239:                 PORTB = 0b00011110;
  6455   000938  0E1E               	movlw	30
  6456   00093A  6E81               	movwf	129,c	;volatile
  6457                           
  6458                           ;calibracion.c: 240:                 dig[7]=0xA4;
  6459   00093C  0EA4               	movlw	164
  6460   00093E  6E08               	movwf	(_dig+7)^0,c
  6461   000940                     
  6462                           ;calibracion.c: 241:                 PORTC = dig[7];
  6463   000940  C008  FF82         	movff	_dig+7,3970	;volatile
  6464                           
  6465                           ;calibracion.c: 242:                 PORTB=0x0E;
  6466   000944  0E0E               	movlw	14
  6467   000946  6E81               	movwf	129,c	;volatile
  6468   000948                     
  6469                           ;calibracion.c: 243:                 _delay((unsigned long)((1)*(4000000/4000.0)));
  6470   000948  0EC8               	movlw	200
  6471   00094A                     u11727:
  6472   00094A  D000               	nop2	
  6473   00094C  2EE8               	decfsz	wreg,f,c
  6474   00094E  D7FD               	bra	u11727
  6475   000950                     
  6476                           ;calibracion.c: 244:                 PORTB = 0b00011110;
  6477   000950  0E1E               	movlw	30
  6478   000952  6E81               	movwf	129,c	;volatile
  6479   000954                     
  6480                           ;calibracion.c: 245:                 dig[8]=0xC0;
  6481   000954  0EC0               	movlw	192
  6482   000956  6E09               	movwf	(_dig+8)^0,c
  6483   000958                     
  6484                           ;calibracion.c: 246:                 PORTC = dig[8];
  6485   000958  C009  FF82         	movff	_dig+8,3970	;volatile
  6486   00095C                     
  6487                           ;calibracion.c: 247:                 PORTB=0x10;
  6488   00095C  0E10               	movlw	16
  6489   00095E  6E81               	movwf	129,c	;volatile
  6490                           
  6491                           ;calibracion.c: 248:                 _delay((unsigned long)((1)*(4000000/4000.0)));
  6492   000960  0EC8               	movlw	200
  6493   000962                     u11737:
  6494   000962  D000               	nop2	
  6495   000964  2EE8               	decfsz	wreg,f,c
  6496   000966  D7FD               	bra	u11737
  6497   000968  EF23  F004         	goto	l6535
  6498   00096C                     l6619:
  6499                           
  6500                           ;calibracion.c: 155:     while(PORTAbits.RA5 ==1){
  6501   00096C  BA80               	btfsc	128,5,c	;volatile
  6502   00096E  EFBB  F004         	goto	u6041
  6503   000972  EFBD  F004         	goto	u6040
  6504   000976                     u6041:
  6505   000976  EFC0  F003         	goto	l6481
  6506   00097A                     u6040:
  6507   00097A  EFC4  F004         	goto	l6623
  6508   00097E                     l6621:
  6509                           
  6510                           ;calibracion.c: 255:         resetWatch = 0;
  6511   00097E  0E00               	movlw	0
  6512   000980  0100               	movlb	0	; () banked
  6513   000982  6F9F               	movwf	(_resetWatch+1)& (0+255),b
  6514   000984  0E00               	movlw	0
  6515   000986  6F9E               	movwf	_resetWatch& (0+255),b
  6516   000988                     l6623:
  6517                           
  6518                           ;calibracion.c: 254:     while(PORTAbits.RA5 == 0){
  6519   000988  AA80               	btfss	128,5,c	;volatile
  6520   00098A  EFC9  F004         	goto	u6051
  6521   00098E  EFCB  F004         	goto	u6050
  6522   000992                     u6051:
  6523   000992  EFBF  F004         	goto	l6621
  6524   000996                     u6050:
  6525   000996                     
  6526                           ;calibracion.c: 257:  ds1820(2,1);
  6527   000996  0E01               	movlw	1
  6528   000998  6E4D               	movwf	ds1820@nsen^0,c
  6529   00099A  0E02               	movlw	2
  6530   00099C  EC09  F01C         	call	_ds1820
  6531   0009A0                     
  6532                           ;calibracion.c: 258:         _delay((unsigned long)((2000)*(4000000/4000.0)));
  6533   0009A0  0E0B               	movlw	11
  6534   0009A2  6E52               	movwf	(??_calibracion+1)^0,c
  6535   0009A4  0E26               	movlw	38
  6536   0009A6  6E51               	movwf	??_calibracion^0,c
  6537   0009A8  0E5E               	movlw	94
  6538   0009AA                     u11747:
  6539   0009AA  2EE8               	decfsz	wreg,f,c
  6540   0009AC  D7FE               	bra	u11747
  6541   0009AE  2E51               	decfsz	??_calibracion^0,f,c
  6542   0009B0  D7FC               	bra	u11747
  6543   0009B2  2E52               	decfsz	(??_calibracion+1)^0,f,c
  6544   0009B4  D7FA               	bra	u11747
  6545   0009B6                     
  6546                           ;calibracion.c: 259:         ds1820(3,1);
  6547   0009B6  0E01               	movlw	1
  6548   0009B8  6E4D               	movwf	ds1820@nsen^0,c
  6549   0009BA  0E03               	movlw	3
  6550   0009BC  EC09  F01C         	call	_ds1820
  6551                           
  6552                           ;calibracion.c: 260:     while(PORTAbits.RA5 == 1){
  6553   0009C0  EF8C  F005         	goto	l6725
  6554   0009C4                     l6631:
  6555                           
  6556                           ;calibracion.c: 261:         resetWatch = 0;
  6557   0009C4  0E00               	movlw	0
  6558   0009C6  0100               	movlb	0	; () banked
  6559   0009C8  6F9F               	movwf	(_resetWatch+1)& (0+255),b
  6560   0009CA  0E00               	movlw	0
  6561   0009CC  6F9E               	movwf	_resetWatch& (0+255),b
  6562                           
  6563                           ;calibracion.c: 262:         dig[0]=0x92;
  6564   0009CE  0E92               	movlw	146
  6565   0009D0  6E01               	movwf	_dig^0,c
  6566   0009D2                     
  6567                           ; BSR set to: 0
  6568                           ;calibracion.c: 263:         PORTC = dig[0];
  6569   0009D2  C001  FF82         	movff	_dig,3970	;volatile
  6570                           
  6571                           ;calibracion.c: 264:         PORTB=0x00;
  6572   0009D6  0E00               	movlw	0
  6573   0009D8  6E81               	movwf	129,c	;volatile
  6574   0009DA                     
  6575                           ; BSR set to: 0
  6576                           ;calibracion.c: 265:         _delay((unsigned long)((1)*(4000000/4000.0)));
  6577   0009DA  0EC8               	movlw	200
  6578   0009DC                     u11757:
  6579   0009DC  D000               	nop2	
  6580   0009DE  2EE8               	decfsz	wreg,f,c
  6581   0009E0  D7FD               	bra	u11757
  6582   0009E2                     
  6583                           ;calibracion.c: 266:         PORTB = 0b00011110;
  6584   0009E2  0E1E               	movlw	30
  6585   0009E4  6E81               	movwf	129,c	;volatile
  6586   0009E6                     
  6587                           ;calibracion.c: 267:         dig[1]=0x84;
  6588   0009E6  0E84               	movlw	132
  6589   0009E8  6E02               	movwf	(_dig+1)^0,c
  6590   0009EA                     
  6591                           ;calibracion.c: 268:         PORTC = dig[1];
  6592   0009EA  C002  FF82         	movff	_dig+1,3970	;volatile
  6593   0009EE                     
  6594                           ;calibracion.c: 269:         PORTB=0x02;
  6595   0009EE  0E02               	movlw	2
  6596   0009F0  6E81               	movwf	129,c	;volatile
  6597                           
  6598                           ;calibracion.c: 270:         _delay((unsigned long)((1)*(4000000/4000.0)));
  6599   0009F2  0EC8               	movlw	200
  6600   0009F4                     u11767:
  6601   0009F4  D000               	nop2	
  6602   0009F6  2EE8               	decfsz	wreg,f,c
  6603   0009F8  D7FD               	bra	u11767
  6604   0009FA                     
  6605                           ;calibracion.c: 271:         PORTB = 0b00011110;
  6606   0009FA  0E1E               	movlw	30
  6607   0009FC  6E81               	movwf	129,c	;volatile
  6608   0009FE                     
  6609                           ;calibracion.c: 272:         dig[2]=0xF9;
  6610   0009FE  0EF9               	movlw	249
  6611   000A00  6E03               	movwf	(_dig+2)^0,c
  6612   000A02                     
  6613                           ;calibracion.c: 273:         PORTC = dig[2];
  6614   000A02  C003  FF82         	movff	_dig+2,3970	;volatile
  6615   000A06                     
  6616                           ;calibracion.c: 274:         PORTB=0x04;
  6617   000A06  0E04               	movlw	4
  6618   000A08  6E81               	movwf	129,c	;volatile
  6619   000A0A                     
  6620                           ;calibracion.c: 275:         _delay((unsigned long)((1)*(4000000/4000.0)));
  6621   000A0A  0EC8               	movlw	200
  6622   000A0C                     u11777:
  6623   000A0C  D000               	nop2	
  6624   000A0E  2EE8               	decfsz	wreg,f,c
  6625   000A10  D7FD               	bra	u11777
  6626                           
  6627                           ;calibracion.c: 276:         PORTB = 0b00011110;
  6628   000A12  0E1E               	movlw	30
  6629   000A14  6E81               	movwf	129,c	;volatile
  6630                           
  6631                           ;calibracion.c: 277:         resetWatch = 0;
  6632   000A16  0E00               	movlw	0
  6633   000A18  0100               	movlb	0	; () banked
  6634   000A1A  6F9F               	movwf	(_resetWatch+1)& (0+255),b
  6635   000A1C  0E00               	movlw	0
  6636   000A1E  6F9E               	movwf	_resetWatch& (0+255),b
  6637   000A20                     
  6638                           ; BSR set to: 0
  6639                           ;calibracion.c: 278:         if(presencia1 == 1){
  6640   000A20  0413               	decf	_presencia1^0,w,c
  6641   000A22  A4D8               	btfss	status,2,c
  6642   000A24  EF16  F005         	goto	u6061
  6643   000A28  EF18  F005         	goto	u6060
  6644   000A2C                     u6061:
  6645   000A2C  EF4A  F005         	goto	l6687
  6646   000A30                     u6060:
  6647   000A30                     
  6648                           ; BSR set to: 0
  6649                           ;calibracion.c: 279:             dig[4]=0xAB;
  6650   000A30  0EAB               	movlw	171
  6651   000A32  6E05               	movwf	(_dig+4)^0,c
  6652   000A34                     
  6653                           ; BSR set to: 0
  6654                           ;calibracion.c: 280:             PORTC = dig[4];
  6655   000A34  C005  FF82         	movff	_dig+4,3970	;volatile
  6656                           
  6657                           ;calibracion.c: 281:             PORTB=0x08;
  6658   000A38  0E08               	movlw	8
  6659   000A3A  6E81               	movwf	129,c	;volatile
  6660   000A3C                     
  6661                           ; BSR set to: 0
  6662                           ;calibracion.c: 282:             _delay((unsigned long)((1)*(4000000/4000.0)));
  6663   000A3C  0EC8               	movlw	200
  6664   000A3E                     u11787:
  6665   000A3E  D000               	nop2	
  6666   000A40  2EE8               	decfsz	wreg,f,c
  6667   000A42  D7FD               	bra	u11787
  6668   000A44                     
  6669                           ;calibracion.c: 283:             PORTB = 0b00011110;
  6670   000A44  0E1E               	movlw	30
  6671   000A46  6E81               	movwf	129,c	;volatile
  6672   000A48                     
  6673                           ;calibracion.c: 284:             dig[5]=0xA3;
  6674   000A48  0EA3               	movlw	163
  6675   000A4A  6E06               	movwf	(_dig+5)^0,c
  6676   000A4C                     
  6677                           ;calibracion.c: 285:             PORTC = dig[5];
  6678   000A4C  C006  FF82         	movff	_dig+5,3970	;volatile
  6679   000A50                     
  6680                           ;calibracion.c: 286:             PORTB=0x0A;
  6681   000A50  0E0A               	movlw	10
  6682   000A52  6E81               	movwf	129,c	;volatile
  6683                           
  6684                           ;calibracion.c: 287:             _delay((unsigned long)((1)*(4000000/4000.0)));
  6685   000A54  0EC8               	movlw	200
  6686   000A56                     u11797:
  6687   000A56  D000               	nop2	
  6688   000A58  2EE8               	decfsz	wreg,f,c
  6689   000A5A  D7FD               	bra	u11797
  6690   000A5C                     
  6691                           ;calibracion.c: 288:             PORTB = 0b00011110;
  6692   000A5C  0E1E               	movlw	30
  6693   000A5E  6E81               	movwf	129,c	;volatile
  6694   000A60                     
  6695                           ;calibracion.c: 289:             dig[7]=0x92;
  6696   000A60  0E92               	movlw	146
  6697   000A62  6E08               	movwf	(_dig+7)^0,c
  6698   000A64                     
  6699                           ;calibracion.c: 290:             PORTC = dig[7];
  6700   000A64  C008  FF82         	movff	_dig+7,3970	;volatile
  6701   000A68                     
  6702                           ;calibracion.c: 291:             PORTB=0x0E;
  6703   000A68  0E0E               	movlw	14
  6704   000A6A  6E81               	movwf	129,c	;volatile
  6705   000A6C                     
  6706                           ;calibracion.c: 292:             _delay((unsigned long)((1)*(4000000/4000.0)));
  6707   000A6C  0EC8               	movlw	200
  6708   000A6E                     u11807:
  6709   000A6E  D000               	nop2	
  6710   000A70  2EE8               	decfsz	wreg,f,c
  6711   000A72  D7FD               	bra	u11807
  6712                           
  6713                           ;calibracion.c: 293:             PORTB = 0b00011110;
  6714   000A74  0E1E               	movlw	30
  6715   000A76  6E81               	movwf	129,c	;volatile
  6716                           
  6717                           ;calibracion.c: 294:             dig[8]=0x82;
  6718   000A78  0E82               	movlw	130
  6719   000A7A  6E09               	movwf	(_dig+8)^0,c
  6720   000A7C                     
  6721                           ;calibracion.c: 295:             PORTC = dig[8];
  6722   000A7C  C009  FF82         	movff	_dig+8,3970	;volatile
  6723                           
  6724                           ;calibracion.c: 296:             PORTB=0x10;
  6725   000A80  0E10               	movlw	16
  6726   000A82  6E81               	movwf	129,c	;volatile
  6727   000A84                     l6683:
  6728                           
  6729                           ;calibracion.c: 297:             _delay((unsigned long)((1)*(4000000/4000.0)));
  6730   000A84  0EC8               	movlw	200
  6731   000A86                     u11817:
  6732   000A86  D000               	nop2	
  6733   000A88  2EE8               	decfsz	wreg,f,c
  6734   000A8A  D7FD               	bra	u11817
  6735   000A8C                     
  6736                           ;calibracion.c: 298:             PORTB = 0b00011110;
  6737   000A8C  0E1E               	movlw	30
  6738   000A8E  6E81               	movwf	129,c	;volatile
  6739                           
  6740                           ;calibracion.c: 299:         }else{
  6741   000A90  EF8C  F005         	goto	l6725
  6742   000A94                     l6687:
  6743                           
  6744                           ; BSR set to: 0
  6745                           ;calibracion.c: 300:             resetWatch = 0;
  6746   000A94  0E00               	movlw	0
  6747   000A96  6F9F               	movwf	(_resetWatch+1)& (0+255),b
  6748   000A98  0E00               	movlw	0
  6749   000A9A  6F9E               	movwf	_resetWatch& (0+255),b
  6750   000A9C                     
  6751                           ; BSR set to: 0
  6752                           ;calibracion.c: 301:             dig[5]=conv((lectScrat1[0]) & 0x0F);
  6753   000A9C  5169               	movf	_lectScrat1& (0+255),w,b
  6754   000A9E  0B0F               	andlw	15
  6755   000AA0  ECAC  F01F         	call	_conv
  6756   000AA4  6E06               	movwf	(_dig+5)^0,c
  6757   000AA6                     
  6758                           ;calibracion.c: 302:             PORTC = dig[5];
  6759   000AA6  C006  FF82         	movff	_dig+5,3970	;volatile
  6760   000AAA                     
  6761                           ;calibracion.c: 303:             PORTB=0x0A;
  6762   000AAA  0E0A               	movlw	10
  6763   000AAC  6E81               	movwf	129,c	;volatile
  6764   000AAE                     
  6765                           ;calibracion.c: 304:             _delay((unsigned long)((1)*(4000000/4000.0)));
  6766   000AAE  0EC8               	movlw	200
  6767   000AB0                     u11827:
  6768   000AB0  D000               	nop2	
  6769   000AB2  2EE8               	decfsz	wreg,f,c
  6770   000AB4  D7FD               	bra	u11827
  6771   000AB6                     
  6772                           ;calibracion.c: 305:             PORTB = 0b00011110;
  6773   000AB6  0E1E               	movlw	30
  6774   000AB8  6E81               	movwf	129,c	;volatile
  6775   000ABA                     
  6776                           ;calibracion.c: 306:             dig[4]=conv((lectScrat1[0]>>4)& 0x0f);
  6777   000ABA  0100               	movlb	0	; () banked
  6778   000ABC  3969               	swapf	_lectScrat1& (0+255),w,b
  6779   000ABE  0B0F               	andlw	15
  6780   000AC0  0B0F               	andlw	15
  6781   000AC2  ECAC  F01F         	call	_conv
  6782   000AC6  6E05               	movwf	(_dig+4)^0,c
  6783   000AC8                     
  6784                           ;calibracion.c: 307:             PORTC = dig[4];
  6785   000AC8  C005  FF82         	movff	_dig+4,3970	;volatile
  6786   000ACC                     
  6787                           ;calibracion.c: 308:             PORTB=0x08;
  6788   000ACC  0E08               	movlw	8
  6789   000ACE  6E81               	movwf	129,c	;volatile
  6790                           
  6791                           ;calibracion.c: 309:             _delay((unsigned long)((1)*(4000000/4000.0)));
  6792   000AD0  0EC8               	movlw	200
  6793   000AD2                     u11837:
  6794   000AD2  D000               	nop2	
  6795   000AD4  2EE8               	decfsz	wreg,f,c
  6796   000AD6  D7FD               	bra	u11837
  6797   000AD8                     
  6798                           ;calibracion.c: 310:             PORTB = 0b00011110;
  6799   000AD8  0E1E               	movlw	30
  6800   000ADA  6E81               	movwf	129,c	;volatile
  6801   000ADC                     
  6802                           ;calibracion.c: 311:             dig[8]=conv((lectScrat1[1]>>4)& 0x0f);
  6803   000ADC  0100               	movlb	0	; () banked
  6804   000ADE  396A               	swapf	(_lectScrat1+1)& (0+255),w,b
  6805   000AE0  0B0F               	andlw	15
  6806   000AE2  0B0F               	andlw	15
  6807   000AE4  ECAC  F01F         	call	_conv
  6808   000AE8  6E09               	movwf	(_dig+8)^0,c
  6809   000AEA                     
  6810                           ;calibracion.c: 312:             PORTC = dig[8];
  6811   000AEA  C009  FF82         	movff	_dig+8,3970	;volatile
  6812   000AEE                     
  6813                           ;calibracion.c: 313:             PORTB=0x10;
  6814   000AEE  0E10               	movlw	16
  6815   000AF0  6E81               	movwf	129,c	;volatile
  6816   000AF2                     
  6817                           ;calibracion.c: 314:             _delay((unsigned long)((1)*(4000000/4000.0)));
  6818   000AF2  0EC8               	movlw	200
  6819   000AF4                     u11847:
  6820   000AF4  D000               	nop2	
  6821   000AF6  2EE8               	decfsz	wreg,f,c
  6822   000AF8  D7FD               	bra	u11847
  6823   000AFA                     
  6824                           ;calibracion.c: 315:             PORTB = 0b00011110;
  6825   000AFA  0E1E               	movlw	30
  6826   000AFC  6E81               	movwf	129,c	;volatile
  6827   000AFE                     
  6828                           ;calibracion.c: 316:             dig[7]=conv((lectScrat1[1]>>4)& 0x0f);
  6829   000AFE  0100               	movlb	0	; () banked
  6830   000B00  396A               	swapf	(_lectScrat1+1)& (0+255),w,b
  6831   000B02  0B0F               	andlw	15
  6832   000B04  0B0F               	andlw	15
  6833   000B06  ECAC  F01F         	call	_conv
  6834   000B0A  6E08               	movwf	(_dig+7)^0,c
  6835   000B0C                     
  6836                           ;calibracion.c: 317:             PORTC = dig[7];
  6837   000B0C  C008  FF82         	movff	_dig+7,3970	;volatile
  6838                           
  6839                           ;calibracion.c: 318:             PORTB=0x0E;
  6840   000B10  0E0E               	movlw	14
  6841   000B12  6E81               	movwf	129,c	;volatile
  6842   000B14  EF42  F005         	goto	l6683
  6843   000B18                     l6725:
  6844                           
  6845                           ;calibracion.c: 260:     while(PORTAbits.RA5 == 1){
  6846   000B18  BA80               	btfsc	128,5,c	;volatile
  6847   000B1A  EF91  F005         	goto	u6071
  6848   000B1E  EF93  F005         	goto	u6070
  6849   000B22                     u6071:
  6850   000B22  EFE2  F004         	goto	l6631
  6851   000B26                     u6070:
  6852   000B26  EF9A  F005         	goto	l6729
  6853   000B2A                     l6727:
  6854                           
  6855                           ;calibracion.c: 324:             resetWatch = 0;
  6856   000B2A  0E00               	movlw	0
  6857   000B2C  0100               	movlb	0	; () banked
  6858   000B2E  6F9F               	movwf	(_resetWatch+1)& (0+255),b
  6859   000B30  0E00               	movlw	0
  6860   000B32  6F9E               	movwf	_resetWatch& (0+255),b
  6861   000B34                     l6729:
  6862                           
  6863                           ;calibracion.c: 323:         while(PORTAbits.RA5 == 0){
  6864   000B34  AA80               	btfss	128,5,c	;volatile
  6865   000B36  EF9F  F005         	goto	u6081
  6866   000B3A  EFA1  F005         	goto	u6080
  6867   000B3E                     u6081:
  6868   000B3E  EF95  F005         	goto	l6727
  6869   000B42                     u6080:
  6870   000B42                     
  6871                           ;calibracion.c: 326:     ds1820(1,2);
  6872   000B42  0E02               	movlw	2
  6873   000B44  6E4D               	movwf	ds1820@nsen^0,c
  6874   000B46  0E01               	movlw	1
  6875   000B48  EC09  F01C         	call	_ds1820
  6876                           
  6877                           ;calibracion.c: 327:     while(PORTAbits.RA5 ==1){
  6878   000B4C  EFA4  F006         	goto	l6869
  6879   000B50                     l6733:
  6880                           
  6881                           ;calibracion.c: 328:         resetWatch = 0;
  6882   000B50  0E00               	movlw	0
  6883   000B52  0100               	movlb	0	; () banked
  6884   000B54  6F9F               	movwf	(_resetWatch+1)& (0+255),b
  6885   000B56  0E00               	movlw	0
  6886   000B58  6F9E               	movwf	_resetWatch& (0+255),b
  6887                           
  6888                           ;calibracion.c: 329:         dig[0]=0x92;
  6889   000B5A  0E92               	movlw	146
  6890   000B5C  6E01               	movwf	_dig^0,c
  6891   000B5E                     
  6892                           ; BSR set to: 0
  6893                           ;calibracion.c: 330:         PORTC = dig[0];
  6894   000B5E  C001  FF82         	movff	_dig,3970	;volatile
  6895                           
  6896                           ;calibracion.c: 331:         PORTB=0x00;
  6897   000B62  0E00               	movlw	0
  6898   000B64  6E81               	movwf	129,c	;volatile
  6899   000B66                     
  6900                           ; BSR set to: 0
  6901                           ;calibracion.c: 332:         _delay((unsigned long)((1)*(4000000/4000.0)));
  6902   000B66  0EC8               	movlw	200
  6903   000B68                     u11857:
  6904   000B68  D000               	nop2	
  6905   000B6A  2EE8               	decfsz	wreg,f,c
  6906   000B6C  D7FD               	bra	u11857
  6907   000B6E                     
  6908                           ;calibracion.c: 333:         PORTB = 0b00011110;
  6909   000B6E  0E1E               	movlw	30
  6910   000B70  6E81               	movwf	129,c	;volatile
  6911   000B72                     
  6912                           ;calibracion.c: 334:         dig[1]=0x84;
  6913   000B72  0E84               	movlw	132
  6914   000B74  6E02               	movwf	(_dig+1)^0,c
  6915   000B76                     
  6916                           ;calibracion.c: 335:         PORTC = dig[1];
  6917   000B76  C002  FF82         	movff	_dig+1,3970	;volatile
  6918   000B7A                     
  6919                           ;calibracion.c: 336:         PORTB=0x02;
  6920   000B7A  0E02               	movlw	2
  6921   000B7C  6E81               	movwf	129,c	;volatile
  6922                           
  6923                           ;calibracion.c: 337:         _delay((unsigned long)((1)*(4000000/4000.0)));
  6924   000B7E  0EC8               	movlw	200
  6925   000B80                     u11867:
  6926   000B80  D000               	nop2	
  6927   000B82  2EE8               	decfsz	wreg,f,c
  6928   000B84  D7FD               	bra	u11867
  6929   000B86                     
  6930                           ;calibracion.c: 338:         PORTB = 0b00011110;
  6931   000B86  0E1E               	movlw	30
  6932   000B88  6E81               	movwf	129,c	;volatile
  6933   000B8A                     
  6934                           ;calibracion.c: 339:         dig[2]=0xA4;
  6935   000B8A  0EA4               	movlw	164
  6936   000B8C  6E03               	movwf	(_dig+2)^0,c
  6937   000B8E                     
  6938                           ;calibracion.c: 340:         PORTC = dig[2];
  6939   000B8E  C003  FF82         	movff	_dig+2,3970	;volatile
  6940   000B92                     
  6941                           ;calibracion.c: 341:         PORTB=0x04;
  6942   000B92  0E04               	movlw	4
  6943   000B94  6E81               	movwf	129,c	;volatile
  6944   000B96                     
  6945                           ;calibracion.c: 342:         _delay((unsigned long)((1)*(4000000/4000.0)));
  6946   000B96  0EC8               	movlw	200
  6947   000B98                     u11877:
  6948   000B98  D000               	nop2	
  6949   000B9A  2EE8               	decfsz	wreg,f,c
  6950   000B9C  D7FD               	bra	u11877
  6951                           
  6952                           ;calibracion.c: 343:         PORTB = 0b00011110;
  6953   000B9E  0E1E               	movlw	30
  6954   000BA0  6E81               	movwf	129,c	;volatile
  6955   000BA2                     
  6956                           ;calibracion.c: 345:         if(presencia2 == 1){
  6957   000BA2  0412               	decf	_presencia2^0,w,c
  6958   000BA4  A4D8               	btfss	status,2,c
  6959   000BA6  EFD7  F005         	goto	u6091
  6960   000BAA  EFD9  F005         	goto	u6090
  6961   000BAE                     u6091:
  6962   000BAE  EF10  F006         	goto	l6789
  6963   000BB2                     u6090:
  6964   000BB2                     
  6965                           ;calibracion.c: 346:             resetWatch = 0;
  6966   000BB2  0E00               	movlw	0
  6967   000BB4  0100               	movlb	0	; () banked
  6968   000BB6  6F9F               	movwf	(_resetWatch+1)& (0+255),b
  6969   000BB8  0E00               	movlw	0
  6970   000BBA  6F9E               	movwf	_resetWatch& (0+255),b
  6971                           
  6972                           ;calibracion.c: 347:             dig[4]=0xAB;
  6973   000BBC  0EAB               	movlw	171
  6974   000BBE  6E05               	movwf	(_dig+4)^0,c
  6975   000BC0                     
  6976                           ; BSR set to: 0
  6977                           ;calibracion.c: 348:             PORTC = dig[4];
  6978   000BC0  C005  FF82         	movff	_dig+4,3970	;volatile
  6979                           
  6980                           ;calibracion.c: 349:             PORTB=0x08;
  6981   000BC4  0E08               	movlw	8
  6982   000BC6  6E81               	movwf	129,c	;volatile
  6983   000BC8                     
  6984                           ; BSR set to: 0
  6985                           ;calibracion.c: 350:             _delay((unsigned long)((1)*(4000000/4000.0)));
  6986   000BC8  0EC8               	movlw	200
  6987   000BCA                     u11887:
  6988   000BCA  D000               	nop2	
  6989   000BCC  2EE8               	decfsz	wreg,f,c
  6990   000BCE  D7FD               	bra	u11887
  6991   000BD0                     
  6992                           ;calibracion.c: 351:             PORTB = 0b00011110;
  6993   000BD0  0E1E               	movlw	30
  6994   000BD2  6E81               	movwf	129,c	;volatile
  6995   000BD4                     
  6996                           ;calibracion.c: 352:             dig[5]=0xA3;
  6997   000BD4  0EA3               	movlw	163
  6998   000BD6  6E06               	movwf	(_dig+5)^0,c
  6999   000BD8                     
  7000                           ;calibracion.c: 353:             PORTC = dig[5];
  7001   000BD8  C006  FF82         	movff	_dig+5,3970	;volatile
  7002   000BDC                     
  7003                           ;calibracion.c: 354:             PORTB=0x0A;
  7004   000BDC  0E0A               	movlw	10
  7005   000BDE  6E81               	movwf	129,c	;volatile
  7006                           
  7007                           ;calibracion.c: 355:             _delay((unsigned long)((1)*(4000000/4000.0)));
  7008   000BE0  0EC8               	movlw	200
  7009   000BE2                     u11897:
  7010   000BE2  D000               	nop2	
  7011   000BE4  2EE8               	decfsz	wreg,f,c
  7012   000BE6  D7FD               	bra	u11897
  7013   000BE8                     
  7014                           ;calibracion.c: 356:             PORTB = 0b00011110;
  7015   000BE8  0E1E               	movlw	30
  7016   000BEA  6E81               	movwf	129,c	;volatile
  7017   000BEC                     
  7018                           ;calibracion.c: 357:             dig[7]=0x92;
  7019   000BEC  0E92               	movlw	146
  7020   000BEE  6E08               	movwf	(_dig+7)^0,c
  7021   000BF0                     
  7022                           ;calibracion.c: 358:             PORTC = dig[7];
  7023   000BF0  C008  FF82         	movff	_dig+7,3970	;volatile
  7024   000BF4                     
  7025                           ;calibracion.c: 359:             PORTB=0x0E;
  7026   000BF4  0E0E               	movlw	14
  7027   000BF6  6E81               	movwf	129,c	;volatile
  7028   000BF8                     
  7029                           ;calibracion.c: 360:             _delay((unsigned long)((1)*(4000000/4000.0)));
  7030   000BF8  0EC8               	movlw	200
  7031   000BFA                     u11907:
  7032   000BFA  D000               	nop2	
  7033   000BFC  2EE8               	decfsz	wreg,f,c
  7034   000BFE  D7FD               	bra	u11907
  7035                           
  7036                           ;calibracion.c: 361:             PORTB = 0b00011110;
  7037   000C00  0E1E               	movlw	30
  7038   000C02  6E81               	movwf	129,c	;volatile
  7039                           
  7040                           ;calibracion.c: 362:             dig[8]=0x82;
  7041   000C04  0E82               	movlw	130
  7042   000C06  6E09               	movwf	(_dig+8)^0,c
  7043   000C08                     
  7044                           ;calibracion.c: 363:             PORTC = dig[8];
  7045   000C08  C009  FF82         	movff	_dig+8,3970	;volatile
  7046                           
  7047                           ;calibracion.c: 364:             PORTB=0x10;
  7048   000C0C  0E10               	movlw	16
  7049   000C0E  6E81               	movwf	129,c	;volatile
  7050   000C10                     
  7051                           ;calibracion.c: 365:             _delay((unsigned long)((1)*(4000000/4000.0)));
  7052   000C10  0EC8               	movlw	200
  7053   000C12                     u11917:
  7054   000C12  D000               	nop2	
  7055   000C14  2EE8               	decfsz	wreg,f,c
  7056   000C16  D7FD               	bra	u11917
  7057   000C18                     l6787:
  7058                           
  7059                           ;calibracion.c: 366:             PORTB = 0b00011110;
  7060   000C18  0E1E               	movlw	30
  7061   000C1A  6E81               	movwf	129,c	;volatile
  7062                           
  7063                           ;calibracion.c: 367:         }else{
  7064   000C1C  EFA4  F006         	goto	l6869
  7065   000C20                     l6789:
  7066                           
  7067                           ;calibracion.c: 368:             if(lectRom2[0]== 0x28){
  7068   000C20  0E28               	movlw	40
  7069   000C22  0100               	movlb	0	; () banked
  7070   000C24  197A               	xorwf	_lectRom2& (0+255),w,b
  7071   000C26  A4D8               	btfss	status,2,c
  7072   000C28  EF18  F006         	goto	u6101
  7073   000C2C  EF1A  F006         	goto	u6100
  7074   000C30                     u6101:
  7075   000C30  EF5A  F006         	goto	l6829
  7076   000C34                     u6100:
  7077   000C34                     
  7078                           ; BSR set to: 0
  7079                           ;calibracion.c: 369:                 resetWatch = 0;
  7080   000C34  0E00               	movlw	0
  7081   000C36  6F9F               	movwf	(_resetWatch+1)& (0+255),b
  7082   000C38  0E00               	movlw	0
  7083   000C3A  6F9E               	movwf	_resetWatch& (0+255),b
  7084                           
  7085                           ;calibracion.c: 370:                 dig[3]=0xF9;
  7086   000C3C  0EF9               	movlw	249
  7087   000C3E  6E04               	movwf	(_dig+3)^0,c
  7088   000C40                     
  7089                           ; BSR set to: 0
  7090                           ;calibracion.c: 371:                 PORTC = dig[3];
  7091   000C40  C004  FF82         	movff	_dig+3,3970	;volatile
  7092                           
  7093                           ;calibracion.c: 372:                 PORTB=0x06;
  7094   000C44  0E06               	movlw	6
  7095   000C46  6E81               	movwf	129,c	;volatile
  7096   000C48                     
  7097                           ; BSR set to: 0
  7098                           ;calibracion.c: 373:                 _delay((unsigned long)((1)*(4000000/4000.0)));
  7099   000C48  0EC8               	movlw	200
  7100   000C4A                     u11927:
  7101   000C4A  D000               	nop2	
  7102   000C4C  2EE8               	decfsz	wreg,f,c
  7103   000C4E  D7FD               	bra	u11927
  7104   000C50                     
  7105                           ;calibracion.c: 374:                 PORTB = 0b00011110;
  7106   000C50  0E1E               	movlw	30
  7107   000C52  6E81               	movwf	129,c	;volatile
  7108   000C54                     
  7109                           ;calibracion.c: 375:                 dig[4]=0x80;
  7110   000C54  0E80               	movlw	128
  7111   000C56  6E05               	movwf	(_dig+4)^0,c
  7112   000C58                     
  7113                           ;calibracion.c: 376:                 PORTC = dig[4];
  7114   000C58  C005  FF82         	movff	_dig+4,3970	;volatile
  7115   000C5C                     
  7116                           ;calibracion.c: 377:                 PORTB=0x08;
  7117   000C5C  0E08               	movlw	8
  7118   000C5E  6E81               	movwf	129,c	;volatile
  7119                           
  7120                           ;calibracion.c: 378:                 _delay((unsigned long)((1)*(4000000/4000.0)));
  7121   000C60  0EC8               	movlw	200
  7122   000C62                     u11937:
  7123   000C62  D000               	nop2	
  7124   000C64  2EE8               	decfsz	wreg,f,c
  7125   000C66  D7FD               	bra	u11937
  7126   000C68                     
  7127                           ;calibracion.c: 379:                 PORTB = 0b00011110;
  7128   000C68  0E1E               	movlw	30
  7129   000C6A  6E81               	movwf	129,c	;volatile
  7130   000C6C                     
  7131                           ;calibracion.c: 380:                 dig[5]=0x83;
  7132   000C6C  0E83               	movlw	131
  7133   000C6E  6E06               	movwf	(_dig+5)^0,c
  7134   000C70                     
  7135                           ;calibracion.c: 381:                 PORTC = dig[5];
  7136   000C70  C006  FF82         	movff	_dig+5,3970	;volatile
  7137   000C74                     
  7138                           ;calibracion.c: 382:                 PORTB=0x0A;
  7139   000C74  0E0A               	movlw	10
  7140   000C76  6E81               	movwf	129,c	;volatile
  7141   000C78                     
  7142                           ;calibracion.c: 383:                 _delay((unsigned long)((1)*(4000000/4000.0)));
  7143   000C78  0EC8               	movlw	200
  7144   000C7A                     u11947:
  7145   000C7A  D000               	nop2	
  7146   000C7C  2EE8               	decfsz	wreg,f,c
  7147   000C7E  D7FD               	bra	u11947
  7148                           
  7149                           ;calibracion.c: 384:                 PORTB = 0b00011110;
  7150   000C80  0E1E               	movlw	30
  7151   000C82  6E81               	movwf	129,c	;volatile
  7152                           
  7153                           ;calibracion.c: 385:                 dig[7]=0xA4;
  7154   000C84  0EA4               	movlw	164
  7155   000C86  6E08               	movwf	(_dig+7)^0,c
  7156   000C88                     
  7157                           ;calibracion.c: 386:                 PORTC = dig[7];
  7158   000C88  C008  FF82         	movff	_dig+7,3970	;volatile
  7159                           
  7160                           ;calibracion.c: 387:                 PORTB=0x0E;
  7161   000C8C  0E0E               	movlw	14
  7162   000C8E  6E81               	movwf	129,c	;volatile
  7163   000C90                     
  7164                           ;calibracion.c: 388:                 _delay((unsigned long)((1)*(4000000/4000.0)));
  7165   000C90  0EC8               	movlw	200
  7166   000C92                     u11957:
  7167   000C92  D000               	nop2	
  7168   000C94  2EE8               	decfsz	wreg,f,c
  7169   000C96  D7FD               	bra	u11957
  7170   000C98                     
  7171                           ;calibracion.c: 389:                 PORTB = 0b00011110;
  7172   000C98  0E1E               	movlw	30
  7173   000C9A  6E81               	movwf	129,c	;volatile
  7174   000C9C                     
  7175                           ;calibracion.c: 390:                 dig[8]=0xC0;
  7176   000C9C  0EC0               	movlw	192
  7177   000C9E  6E09               	movwf	(_dig+8)^0,c
  7178   000CA0                     
  7179                           ;calibracion.c: 391:                 PORTC = dig[8];
  7180   000CA0  C009  FF82         	movff	_dig+8,3970	;volatile
  7181   000CA4                     
  7182                           ;calibracion.c: 392:                 PORTB=0x10;
  7183   000CA4  0E10               	movlw	16
  7184   000CA6  6E81               	movwf	129,c	;volatile
  7185                           
  7186                           ;calibracion.c: 393:                 _delay((unsigned long)((1)*(4000000/4000.0)));
  7187   000CA8  0EC8               	movlw	200
  7188   000CAA                     u11967:
  7189   000CAA  D000               	nop2	
  7190   000CAC  2EE8               	decfsz	wreg,f,c
  7191   000CAE  D7FD               	bra	u11967
  7192   000CB0                     
  7193                           ;calibracion.c: 394:                 PORTB = 0b00011110;
  7194   000CB0  0E1E               	movlw	30
  7195   000CB2  6E81               	movwf	129,c	;volatile
  7196   000CB4                     l6829:
  7197                           
  7198                           ;calibracion.c: 396:             if(lectRom2[0]== 0x10){
  7199   000CB4  0E10               	movlw	16
  7200   000CB6  0100               	movlb	0	; () banked
  7201   000CB8  197A               	xorwf	_lectRom2& (0+255),w,b
  7202   000CBA  A4D8               	btfss	status,2,c
  7203   000CBC  EF62  F006         	goto	u6111
  7204   000CC0  EF64  F006         	goto	u6110
  7205   000CC4                     u6111:
  7206   000CC4  EFA4  F006         	goto	l6869
  7207   000CC8                     u6110:
  7208   000CC8                     
  7209                           ; BSR set to: 0
  7210                           ;calibracion.c: 397:                 resetWatch = 0;
  7211   000CC8  0E00               	movlw	0
  7212   000CCA  6F9F               	movwf	(_resetWatch+1)& (0+255),b
  7213   000CCC  0E00               	movlw	0
  7214   000CCE  6F9E               	movwf	_resetWatch& (0+255),b
  7215                           
  7216                           ;calibracion.c: 398:                 dig[3]=0xF9;
  7217   000CD0  0EF9               	movlw	249
  7218   000CD2  6E04               	movwf	(_dig+3)^0,c
  7219   000CD4                     
  7220                           ; BSR set to: 0
  7221                           ;calibracion.c: 399:                 PORTC = dig[3];
  7222   000CD4  C004  FF82         	movff	_dig+3,3970	;volatile
  7223                           
  7224                           ;calibracion.c: 400:                 PORTB=0x06;
  7225   000CD8  0E06               	movlw	6
  7226   000CDA  6E81               	movwf	129,c	;volatile
  7227   000CDC                     
  7228                           ; BSR set to: 0
  7229                           ;calibracion.c: 401:                 _delay((unsigned long)((1)*(4000000/4000.0)));
  7230   000CDC  0EC8               	movlw	200
  7231   000CDE                     u11977:
  7232   000CDE  D000               	nop2	
  7233   000CE0  2EE8               	decfsz	wreg,f,c
  7234   000CE2  D7FD               	bra	u11977
  7235   000CE4                     
  7236                           ;calibracion.c: 402:                 PORTB = 0b00011110;
  7237   000CE4  0E1E               	movlw	30
  7238   000CE6  6E81               	movwf	129,c	;volatile
  7239   000CE8                     
  7240                           ;calibracion.c: 403:                 dig[4]=0x80;
  7241   000CE8  0E80               	movlw	128
  7242   000CEA  6E05               	movwf	(_dig+4)^0,c
  7243   000CEC                     
  7244                           ;calibracion.c: 404:                 PORTC = dig[4];
  7245   000CEC  C005  FF82         	movff	_dig+4,3970	;volatile
  7246   000CF0                     
  7247                           ;calibracion.c: 405:                 PORTB=0x08;
  7248   000CF0  0E08               	movlw	8
  7249   000CF2  6E81               	movwf	129,c	;volatile
  7250                           
  7251                           ;calibracion.c: 406:                 _delay((unsigned long)((1)*(4000000/4000.0)));
  7252   000CF4  0EC8               	movlw	200
  7253   000CF6                     u11987:
  7254   000CF6  D000               	nop2	
  7255   000CF8  2EE8               	decfsz	wreg,f,c
  7256   000CFA  D7FD               	bra	u11987
  7257   000CFC                     
  7258                           ;calibracion.c: 407:                 PORTB = 0b00011110;
  7259   000CFC  0E1E               	movlw	30
  7260   000CFE  6E81               	movwf	129,c	;volatile
  7261   000D00                     
  7262                           ;calibracion.c: 408:                 dig[5]=0x92;
  7263   000D00  0E92               	movlw	146
  7264   000D02  6E06               	movwf	(_dig+5)^0,c
  7265   000D04                     
  7266                           ;calibracion.c: 409:                 PORTC = dig[5];
  7267   000D04  C006  FF82         	movff	_dig+5,3970	;volatile
  7268   000D08                     
  7269                           ;calibracion.c: 410:                 PORTB=0x0A;
  7270   000D08  0E0A               	movlw	10
  7271   000D0A  6E81               	movwf	129,c	;volatile
  7272   000D0C                     
  7273                           ;calibracion.c: 411:                 _delay((unsigned long)((1)*(4000000/4000.0)));
  7274   000D0C  0EC8               	movlw	200
  7275   000D0E                     u11997:
  7276   000D0E  D000               	nop2	
  7277   000D10  2EE8               	decfsz	wreg,f,c
  7278   000D12  D7FD               	bra	u11997
  7279                           
  7280                           ;calibracion.c: 412:                 PORTB = 0b00011110;
  7281   000D14  0E1E               	movlw	30
  7282   000D16  6E81               	movwf	129,c	;volatile
  7283                           
  7284                           ;calibracion.c: 413:                 dig[7]=0xA4;
  7285   000D18  0EA4               	movlw	164
  7286   000D1A  6E08               	movwf	(_dig+7)^0,c
  7287   000D1C                     
  7288                           ;calibracion.c: 414:                 PORTC = dig[7];
  7289   000D1C  C008  FF82         	movff	_dig+7,3970	;volatile
  7290                           
  7291                           ;calibracion.c: 415:                 PORTB=0x0E;
  7292   000D20  0E0E               	movlw	14
  7293   000D22  6E81               	movwf	129,c	;volatile
  7294   000D24                     
  7295                           ;calibracion.c: 416:                 _delay((unsigned long)((1)*(4000000/4000.0)));
  7296   000D24  0EC8               	movlw	200
  7297   000D26                     u12007:
  7298   000D26  D000               	nop2	
  7299   000D28  2EE8               	decfsz	wreg,f,c
  7300   000D2A  D7FD               	bra	u12007
  7301   000D2C                     
  7302                           ;calibracion.c: 417:                 PORTB = 0b00011110;
  7303   000D2C  0E1E               	movlw	30
  7304   000D2E  6E81               	movwf	129,c	;volatile
  7305   000D30                     
  7306                           ;calibracion.c: 418:                 dig[8]=0xC0;
  7307   000D30  0EC0               	movlw	192
  7308   000D32  6E09               	movwf	(_dig+8)^0,c
  7309   000D34                     
  7310                           ;calibracion.c: 419:                 PORTC = dig[8];
  7311   000D34  C009  FF82         	movff	_dig+8,3970	;volatile
  7312   000D38                     
  7313                           ;calibracion.c: 420:                 PORTB=0x10;
  7314   000D38  0E10               	movlw	16
  7315   000D3A  6E81               	movwf	129,c	;volatile
  7316                           
  7317                           ;calibracion.c: 421:                 _delay((unsigned long)((1)*(4000000/4000.0)));
  7318   000D3C  0EC8               	movlw	200
  7319   000D3E                     u12017:
  7320   000D3E  D000               	nop2	
  7321   000D40  2EE8               	decfsz	wreg,f,c
  7322   000D42  D7FD               	bra	u12017
  7323   000D44  EF0C  F006         	goto	l6787
  7324   000D48                     l6869:
  7325                           
  7326                           ;calibracion.c: 327:     while(PORTAbits.RA5 ==1){
  7327   000D48  BA80               	btfsc	128,5,c	;volatile
  7328   000D4A  EFA9  F006         	goto	u6121
  7329   000D4E  EFAB  F006         	goto	u6120
  7330   000D52                     u6121:
  7331   000D52  EFA8  F005         	goto	l6733
  7332   000D56                     u6120:
  7333   000D56  EFB2  F006         	goto	l6873
  7334   000D5A                     l6871:
  7335                           
  7336                           ;calibracion.c: 427:         resetWatch = 0;
  7337   000D5A  0E00               	movlw	0
  7338   000D5C  0100               	movlb	0	; () banked
  7339   000D5E  6F9F               	movwf	(_resetWatch+1)& (0+255),b
  7340   000D60  0E00               	movlw	0
  7341   000D62  6F9E               	movwf	_resetWatch& (0+255),b
  7342   000D64                     l6873:
  7343                           
  7344                           ;calibracion.c: 426:     while(PORTAbits.RA5 == 0){
  7345   000D64  AA80               	btfss	128,5,c	;volatile
  7346   000D66  EFB7  F006         	goto	u6131
  7347   000D6A  EFB9  F006         	goto	u6130
  7348   000D6E                     u6131:
  7349   000D6E  EFAD  F006         	goto	l6871
  7350   000D72                     u6130:
  7351   000D72                     
  7352                           ;calibracion.c: 429:  ds1820(2,2);
  7353   000D72  0E02               	movlw	2
  7354   000D74  6E4D               	movwf	ds1820@nsen^0,c
  7355   000D76  0E02               	movlw	2
  7356   000D78  EC09  F01C         	call	_ds1820
  7357   000D7C                     
  7358                           ;calibracion.c: 430:         _delay((unsigned long)((5000)*(4000000/4000.0)));
  7359   000D7C  0E1A               	movlw	26
  7360   000D7E  6E52               	movwf	(??_calibracion+1)^0,c
  7361   000D80  0E5E               	movlw	94
  7362   000D82  6E51               	movwf	??_calibracion^0,c
  7363   000D84  0E6E               	movlw	110
  7364   000D86                     u12027:
  7365   000D86  2EE8               	decfsz	wreg,f,c
  7366   000D88  D7FE               	bra	u12027
  7367   000D8A  2E51               	decfsz	??_calibracion^0,f,c
  7368   000D8C  D7FC               	bra	u12027
  7369   000D8E  2E52               	decfsz	(??_calibracion+1)^0,f,c
  7370   000D90  D7FA               	bra	u12027
  7371   000D92  D000               	nop2	
  7372   000D94                     
  7373                           ;calibracion.c: 431:         ds1820(3,2);
  7374   000D94  0E02               	movlw	2
  7375   000D96  6E4D               	movwf	ds1820@nsen^0,c
  7376   000D98  0E03               	movlw	3
  7377   000D9A  EC09  F01C         	call	_ds1820
  7378                           
  7379                           ;calibracion.c: 432:     while(PORTAbits.RA5 == 1){
  7380   000D9E  EF84  F007         	goto	l6977
  7381   000DA2                     l6881:
  7382                           
  7383                           ;calibracion.c: 433:         resetWatch = 0;
  7384   000DA2  0E00               	movlw	0
  7385   000DA4  0100               	movlb	0	; () banked
  7386   000DA6  6F9F               	movwf	(_resetWatch+1)& (0+255),b
  7387   000DA8  0E00               	movlw	0
  7388   000DAA  6F9E               	movwf	_resetWatch& (0+255),b
  7389                           
  7390                           ;calibracion.c: 434:         dig[0]=0x92;
  7391   000DAC  0E92               	movlw	146
  7392   000DAE  6E01               	movwf	_dig^0,c
  7393   000DB0                     
  7394                           ; BSR set to: 0
  7395                           ;calibracion.c: 435:         PORTC = dig[0];
  7396   000DB0  C001  FF82         	movff	_dig,3970	;volatile
  7397                           
  7398                           ;calibracion.c: 436:         PORTB=0x00;
  7399   000DB4  0E00               	movlw	0
  7400   000DB6  6E81               	movwf	129,c	;volatile
  7401   000DB8                     
  7402                           ; BSR set to: 0
  7403                           ;calibracion.c: 437:         _delay((unsigned long)((1)*(4000000/4000.0)));
  7404   000DB8  0EC8               	movlw	200
  7405   000DBA                     u12037:
  7406   000DBA  D000               	nop2	
  7407   000DBC  2EE8               	decfsz	wreg,f,c
  7408   000DBE  D7FD               	bra	u12037
  7409   000DC0                     
  7410                           ;calibracion.c: 438:         PORTB = 0b00011110;
  7411   000DC0  0E1E               	movlw	30
  7412   000DC2  6E81               	movwf	129,c	;volatile
  7413   000DC4                     
  7414                           ;calibracion.c: 439:         dig[1]=0x84;
  7415   000DC4  0E84               	movlw	132
  7416   000DC6  6E02               	movwf	(_dig+1)^0,c
  7417   000DC8                     
  7418                           ;calibracion.c: 440:         PORTC = dig[1];
  7419   000DC8  C002  FF82         	movff	_dig+1,3970	;volatile
  7420   000DCC                     
  7421                           ;calibracion.c: 441:         PORTB=0x02;
  7422   000DCC  0E02               	movlw	2
  7423   000DCE  6E81               	movwf	129,c	;volatile
  7424                           
  7425                           ;calibracion.c: 442:         _delay((unsigned long)((1)*(4000000/4000.0)));
  7426   000DD0  0EC8               	movlw	200
  7427   000DD2                     u12047:
  7428   000DD2  D000               	nop2	
  7429   000DD4  2EE8               	decfsz	wreg,f,c
  7430   000DD6  D7FD               	bra	u12047
  7431   000DD8                     
  7432                           ;calibracion.c: 443:         PORTB = 0b00011110;
  7433   000DD8  0E1E               	movlw	30
  7434   000DDA  6E81               	movwf	129,c	;volatile
  7435   000DDC                     
  7436                           ;calibracion.c: 444:         dig[2]=0xA4;
  7437   000DDC  0EA4               	movlw	164
  7438   000DDE  6E03               	movwf	(_dig+2)^0,c
  7439   000DE0                     
  7440                           ;calibracion.c: 445:         PORTC = dig[2];
  7441   000DE0  C003  FF82         	movff	_dig+2,3970	;volatile
  7442   000DE4                     
  7443                           ;calibracion.c: 446:         PORTB=0x04;
  7444   000DE4  0E04               	movlw	4
  7445   000DE6  6E81               	movwf	129,c	;volatile
  7446   000DE8                     
  7447                           ;calibracion.c: 447:         _delay((unsigned long)((1)*(4000000/4000.0)));
  7448   000DE8  0EC8               	movlw	200
  7449   000DEA                     u12057:
  7450   000DEA  D000               	nop2	
  7451   000DEC  2EE8               	decfsz	wreg,f,c
  7452   000DEE  D7FD               	bra	u12057
  7453                           
  7454                           ;calibracion.c: 448:         PORTB = 0b00011110;
  7455   000DF0  0E1E               	movlw	30
  7456   000DF2  6E81               	movwf	129,c	;volatile
  7457   000DF4                     
  7458                           ;calibracion.c: 449:         if(presencia2 == 1){
  7459   000DF4  0412               	decf	_presencia2^0,w,c
  7460   000DF6  A4D8               	btfss	status,2,c
  7461   000DF8  EF00  F007         	goto	u6141
  7462   000DFC  EF02  F007         	goto	u6140
  7463   000E00                     u6141:
  7464   000E00  EF39  F007         	goto	l6937
  7465   000E04                     u6140:
  7466   000E04                     
  7467                           ;calibracion.c: 450:             resetWatch = 0;
  7468   000E04  0E00               	movlw	0
  7469   000E06  0100               	movlb	0	; () banked
  7470   000E08  6F9F               	movwf	(_resetWatch+1)& (0+255),b
  7471   000E0A  0E00               	movlw	0
  7472   000E0C  6F9E               	movwf	_resetWatch& (0+255),b
  7473                           
  7474                           ;calibracion.c: 451:             dig[4]=0xAB;
  7475   000E0E  0EAB               	movlw	171
  7476   000E10  6E05               	movwf	(_dig+4)^0,c
  7477   000E12                     
  7478                           ; BSR set to: 0
  7479                           ;calibracion.c: 452:             PORTC = dig[4];
  7480   000E12  C005  FF82         	movff	_dig+4,3970	;volatile
  7481                           
  7482                           ;calibracion.c: 453:             PORTB=0x08;
  7483   000E16  0E08               	movlw	8
  7484   000E18  6E81               	movwf	129,c	;volatile
  7485   000E1A                     
  7486                           ; BSR set to: 0
  7487                           ;calibracion.c: 454:             _delay((unsigned long)((1)*(4000000/4000.0)));
  7488   000E1A  0EC8               	movlw	200
  7489   000E1C                     u12067:
  7490   000E1C  D000               	nop2	
  7491   000E1E  2EE8               	decfsz	wreg,f,c
  7492   000E20  D7FD               	bra	u12067
  7493   000E22                     
  7494                           ;calibracion.c: 455:             PORTB = 0b00011110;
  7495   000E22  0E1E               	movlw	30
  7496   000E24  6E81               	movwf	129,c	;volatile
  7497   000E26                     
  7498                           ;calibracion.c: 456:             dig[5]=0xA3;
  7499   000E26  0EA3               	movlw	163
  7500   000E28  6E06               	movwf	(_dig+5)^0,c
  7501   000E2A                     
  7502                           ;calibracion.c: 457:             PORTC = dig[5];
  7503   000E2A  C006  FF82         	movff	_dig+5,3970	;volatile
  7504   000E2E                     
  7505                           ;calibracion.c: 458:             PORTB=0x0A;
  7506   000E2E  0E0A               	movlw	10
  7507   000E30  6E81               	movwf	129,c	;volatile
  7508                           
  7509                           ;calibracion.c: 459:             _delay((unsigned long)((1)*(4000000/4000.0)));
  7510   000E32  0EC8               	movlw	200
  7511   000E34                     u12077:
  7512   000E34  D000               	nop2	
  7513   000E36  2EE8               	decfsz	wreg,f,c
  7514   000E38  D7FD               	bra	u12077
  7515   000E3A                     
  7516                           ;calibracion.c: 460:             PORTB = 0b00011110;
  7517   000E3A  0E1E               	movlw	30
  7518   000E3C  6E81               	movwf	129,c	;volatile
  7519   000E3E                     
  7520                           ;calibracion.c: 461:             dig[7]=0x92;
  7521   000E3E  0E92               	movlw	146
  7522   000E40  6E08               	movwf	(_dig+7)^0,c
  7523   000E42                     
  7524                           ;calibracion.c: 462:             PORTC = dig[7];
  7525   000E42  C008  FF82         	movff	_dig+7,3970	;volatile
  7526   000E46                     
  7527                           ;calibracion.c: 463:             PORTB=0x0E;
  7528   000E46  0E0E               	movlw	14
  7529   000E48  6E81               	movwf	129,c	;volatile
  7530   000E4A                     
  7531                           ;calibracion.c: 464:             _delay((unsigned long)((1)*(4000000/4000.0)));
  7532   000E4A  0EC8               	movlw	200
  7533   000E4C                     u12087:
  7534   000E4C  D000               	nop2	
  7535   000E4E  2EE8               	decfsz	wreg,f,c
  7536   000E50  D7FD               	bra	u12087
  7537                           
  7538                           ;calibracion.c: 465:             PORTB = 0b00011110;
  7539   000E52  0E1E               	movlw	30
  7540   000E54  6E81               	movwf	129,c	;volatile
  7541                           
  7542                           ;calibracion.c: 466:             dig[8]=0x82;
  7543   000E56  0E82               	movlw	130
  7544   000E58  6E09               	movwf	(_dig+8)^0,c
  7545   000E5A                     
  7546                           ;calibracion.c: 467:             PORTC = dig[8];
  7547   000E5A  C009  FF82         	movff	_dig+8,3970	;volatile
  7548                           
  7549                           ;calibracion.c: 468:             PORTB=0x10;
  7550   000E5E  0E10               	movlw	16
  7551   000E60  6E81               	movwf	129,c	;volatile
  7552   000E62                     
  7553                           ;calibracion.c: 469:             _delay((unsigned long)((1)*(4000000/4000.0)));
  7554   000E62  0EC8               	movlw	200
  7555   000E64                     u12097:
  7556   000E64  D000               	nop2	
  7557   000E66  2EE8               	decfsz	wreg,f,c
  7558   000E68  D7FD               	bra	u12097
  7559   000E6A                     
  7560                           ;calibracion.c: 470:             PORTB = 0b00011110;
  7561   000E6A  0E1E               	movlw	30
  7562   000E6C  6E81               	movwf	129,c	;volatile
  7563                           
  7564                           ;calibracion.c: 471:         }else{
  7565   000E6E  EF84  F007         	goto	l6977
  7566   000E72                     l6937:
  7567                           
  7568                           ;calibracion.c: 472:             resetWatch = 0;
  7569   000E72  0E00               	movlw	0
  7570   000E74  0100               	movlb	0	; () banked
  7571   000E76  6F9F               	movwf	(_resetWatch+1)& (0+255),b
  7572   000E78  0E00               	movlw	0
  7573   000E7A  6F9E               	movwf	_resetWatch& (0+255),b
  7574   000E7C                     
  7575                           ; BSR set to: 0
  7576                           ;calibracion.c: 473:             dig[5]=conv((lectScrat2[0]) & 0x0F);
  7577   000E7C  5160               	movf	_lectScrat2& (0+255),w,b
  7578   000E7E  0B0F               	andlw	15
  7579   000E80  ECAC  F01F         	call	_conv
  7580   000E84  6E06               	movwf	(_dig+5)^0,c
  7581   000E86                     
  7582                           ;calibracion.c: 474:             PORTC = dig[5];
  7583   000E86  C006  FF82         	movff	_dig+5,3970	;volatile
  7584   000E8A                     
  7585                           ;calibracion.c: 475:             PORTB=0x0A;
  7586   000E8A  0E0A               	movlw	10
  7587   000E8C  6E81               	movwf	129,c	;volatile
  7588   000E8E                     
  7589                           ;calibracion.c: 476:             _delay((unsigned long)((1)*(4000000/4000.0)));
  7590   000E8E  0EC8               	movlw	200
  7591   000E90                     u12107:
  7592   000E90  D000               	nop2	
  7593   000E92  2EE8               	decfsz	wreg,f,c
  7594   000E94  D7FD               	bra	u12107
  7595   000E96                     
  7596                           ;calibracion.c: 477:             PORTB = 0b00011110;
  7597   000E96  0E1E               	movlw	30
  7598   000E98  6E81               	movwf	129,c	;volatile
  7599   000E9A                     
  7600                           ;calibracion.c: 478:             dig[4]=conv((lectScrat2[0]>>4)& 0x0f);
  7601   000E9A  0100               	movlb	0	; () banked
  7602   000E9C  3960               	swapf	_lectScrat2& (0+255),w,b
  7603   000E9E  0B0F               	andlw	15
  7604   000EA0  0B0F               	andlw	15
  7605   000EA2  ECAC  F01F         	call	_conv
  7606   000EA6  6E05               	movwf	(_dig+4)^0,c
  7607   000EA8                     
  7608                           ;calibracion.c: 479:             PORTC = dig[4];
  7609   000EA8  C005  FF82         	movff	_dig+4,3970	;volatile
  7610   000EAC                     
  7611                           ;calibracion.c: 480:             PORTB=0x08;
  7612   000EAC  0E08               	movlw	8
  7613   000EAE  6E81               	movwf	129,c	;volatile
  7614                           
  7615                           ;calibracion.c: 481:             _delay((unsigned long)((1)*(4000000/4000.0)));
  7616   000EB0  0EC8               	movlw	200
  7617   000EB2                     u12117:
  7618   000EB2  D000               	nop2	
  7619   000EB4  2EE8               	decfsz	wreg,f,c
  7620   000EB6  D7FD               	bra	u12117
  7621   000EB8                     
  7622                           ;calibracion.c: 482:             PORTB = 0b00011110;
  7623   000EB8  0E1E               	movlw	30
  7624   000EBA  6E81               	movwf	129,c	;volatile
  7625   000EBC                     
  7626                           ;calibracion.c: 483:             dig[8]=conv(lectScrat2[1]& 0x0f);
  7627   000EBC  0100               	movlb	0	; () banked
  7628   000EBE  5161               	movf	(_lectScrat2+1)& (0+255),w,b
  7629   000EC0  0B0F               	andlw	15
  7630   000EC2  ECAC  F01F         	call	_conv
  7631   000EC6  6E09               	movwf	(_dig+8)^0,c
  7632   000EC8                     
  7633                           ;calibracion.c: 484:             PORTC = dig[8];
  7634   000EC8  C009  FF82         	movff	_dig+8,3970	;volatile
  7635   000ECC                     
  7636                           ;calibracion.c: 485:             PORTB=0x10;
  7637   000ECC  0E10               	movlw	16
  7638   000ECE  6E81               	movwf	129,c	;volatile
  7639   000ED0                     
  7640                           ;calibracion.c: 486:             _delay((unsigned long)((1)*(4000000/4000.0)));
  7641   000ED0  0EC8               	movlw	200
  7642   000ED2                     u12127:
  7643   000ED2  D000               	nop2	
  7644   000ED4  2EE8               	decfsz	wreg,f,c
  7645   000ED6  D7FD               	bra	u12127
  7646   000ED8                     
  7647                           ;calibracion.c: 487:             PORTB = 0b00011110;
  7648   000ED8  0E1E               	movlw	30
  7649   000EDA  6E81               	movwf	129,c	;volatile
  7650   000EDC                     
  7651                           ;calibracion.c: 488:             dig[7]=conv((lectScrat2[1]>>4)& 0x0f);
  7652   000EDC  0100               	movlb	0	; () banked
  7653   000EDE  3961               	swapf	(_lectScrat2+1)& (0+255),w,b
  7654   000EE0  0B0F               	andlw	15
  7655   000EE2  0B0F               	andlw	15
  7656   000EE4  ECAC  F01F         	call	_conv
  7657   000EE8  6E08               	movwf	(_dig+7)^0,c
  7658   000EEA                     
  7659                           ;calibracion.c: 489:             PORTC = dig[7];
  7660   000EEA  C008  FF82         	movff	_dig+7,3970	;volatile
  7661                           
  7662                           ;calibracion.c: 490:             PORTB=0x0E;
  7663   000EEE  0E0E               	movlw	14
  7664   000EF0  6E81               	movwf	129,c	;volatile
  7665   000EF2                     
  7666                           ;calibracion.c: 491:             _delay((unsigned long)((1)*(4000000/4000.0)));
  7667   000EF2  0EC8               	movlw	200
  7668   000EF4                     u12137:
  7669   000EF4  D000               	nop2	
  7670   000EF6  2EE8               	decfsz	wreg,f,c
  7671   000EF8  D7FD               	bra	u12137
  7672   000EFA                     
  7673                           ;calibracion.c: 492:             PORTB = 0b00011110;
  7674   000EFA  0E1E               	movlw	30
  7675   000EFC  6E81               	movwf	129,c	;volatile
  7676   000EFE                     
  7677                           ;calibracion.c: 493:             resetWatch = 0;
  7678   000EFE  0E00               	movlw	0
  7679   000F00  0100               	movlb	0	; () banked
  7680   000F02  6F9F               	movwf	(_resetWatch+1)& (0+255),b
  7681   000F04  0E00               	movlw	0
  7682   000F06  6F9E               	movwf	_resetWatch& (0+255),b
  7683   000F08                     l6977:
  7684                           
  7685                           ;calibracion.c: 432:     while(PORTAbits.RA5 == 1){
  7686   000F08  BA80               	btfsc	128,5,c	;volatile
  7687   000F0A  EF89  F007         	goto	u6151
  7688   000F0E  EF8B  F007         	goto	u6150
  7689   000F12                     u6151:
  7690   000F12  EFD1  F006         	goto	l6881
  7691   000F16                     u6150:
  7692   000F16  EF92  F007         	goto	l6981
  7693   000F1A                     l6979:
  7694                           
  7695                           ;calibracion.c: 497:             resetWatch = 0;
  7696   000F1A  0E00               	movlw	0
  7697   000F1C  0100               	movlb	0	; () banked
  7698   000F1E  6F9F               	movwf	(_resetWatch+1)& (0+255),b
  7699   000F20  0E00               	movlw	0
  7700   000F22  6F9E               	movwf	_resetWatch& (0+255),b
  7701   000F24                     l6981:
  7702                           
  7703                           ;calibracion.c: 496:         while(PORTAbits.RA5 == 0){
  7704   000F24  AA80               	btfss	128,5,c	;volatile
  7705   000F26  EF97  F007         	goto	u6161
  7706   000F2A  EF99  F007         	goto	u6160
  7707   000F2E                     u6161:
  7708   000F2E  EF8D  F007         	goto	l6979
  7709   000F32                     u6160:
  7710   000F32                     
  7711                           ;calibracion.c: 500:         resetWatch = 0;
  7712   000F32  0E00               	movlw	0
  7713   000F34  0100               	movlb	0	; () banked
  7714   000F36  6F9F               	movwf	(_resetWatch+1)& (0+255),b
  7715   000F38  0E00               	movlw	0
  7716   000F3A  6F9E               	movwf	_resetWatch& (0+255),b
  7717                           
  7718                           ;calibracion.c: 501:         while(PORTAbits.RA5 == 1){
  7719   000F3C  EF09  F008         	goto	l1092
  7720   000F40                     l6985:
  7721                           
  7722                           ;calibracion.c: 502:             for(l=0;l<7;l++){
  7723   000F40  0E00               	movlw	0
  7724   000F42  6E25               	movwf	_l^0,c
  7725   000F44                     l6987:
  7726   000F44  0E06               	movlw	6
  7727   000F46  6425               	cpfsgt	_l^0,c
  7728   000F48  EFA8  F007         	goto	u6171
  7729   000F4C  EFAA  F007         	goto	u6170
  7730   000F50                     u6171:
  7731   000F50  EFAC  F007         	goto	l1094
  7732   000F54                     u6170:
  7733   000F54  EF09  F008         	goto	l1092
  7734   000F58                     l1094:
  7735                           
  7736                           ;calibracion.c: 503:             EEADR = l ;
  7737   000F58  C025  FFA9         	movff	_l,4009	;volatile
  7738                           
  7739                           ;calibracion.c: 504:                     switch(l){
  7740   000F5C  EFC4  F007         	goto	l7007
  7741   000F60                     l6991:
  7742                           
  7743                           ;calibracion.c: 506:                EEDATA = 50;
  7744   000F60  0E32               	movlw	50
  7745   000F62  6EA8               	movwf	168,c	;volatile
  7746                           
  7747                           ;calibracion.c: 507:                break;
  7748   000F64  EFED  F007         	goto	l7009
  7749   000F68                     l6993:
  7750                           
  7751                           ;calibracion.c: 510:                 EEDATA = 99;
  7752   000F68  0E63               	movlw	99
  7753   000F6A  6EA8               	movwf	168,c	;volatile
  7754                           
  7755                           ;calibracion.c: 511:                 break;
  7756   000F6C  EFED  F007         	goto	l7009
  7757   000F70                     l6995:
  7758                           
  7759                           ;calibracion.c: 514:                 EEDATA = 15;
  7760   000F70  0E0F               	movlw	15
  7761   000F72  6EA8               	movwf	168,c	;volatile
  7762                           
  7763                           ;calibracion.c: 515:             break;
  7764   000F74  EFED  F007         	goto	l7009
  7765   000F78                     l6999:
  7766                           
  7767                           ;calibracion.c: 522:                 EEDATA = 0;
  7768   000F78  0E00               	movlw	0
  7769   000F7A  6EA8               	movwf	168,c	;volatile
  7770                           
  7771                           ;calibracion.c: 523:             break;
  7772   000F7C  EFED  F007         	goto	l7009
  7773   000F80                     l7003:
  7774                           
  7775                           ;calibracion.c: 530:                 EEDATA = 16;
  7776   000F80  0E10               	movlw	16
  7777   000F82  6EA8               	movwf	168,c	;volatile
  7778                           
  7779                           ;calibracion.c: 531:             break;
  7780   000F84  EFED  F007         	goto	l7009
  7781   000F88                     l7007:
  7782   000F88  5025               	movf	_l^0,w,c
  7783   000F8A  6E51               	movwf	??_calibracion^0,c
  7784   000F8C  6A52               	clrf	(??_calibracion+1)^0,c
  7785                           
  7786                           ; Switch on 2 bytes has been partitioned into a top level switch of size 1, and 1 sub-sw
      +                          itches
  7787                           ; Switch size 1, requested type "simple"
  7788                           ; Number of cases is 1, Range of values is 0 to 0
  7789                           ; switch strategies available:
  7790                           ; Name         Instructions Cycles
  7791                           ; simple_byte            4     3 (average)
  7792                           ;	Chosen strategy is simple_byte
  7793   000F8E  5052               	movf	(??_calibracion+1)^0,w,c
  7794   000F90  0A00               	xorlw	0	; case 0
  7795   000F92  B4D8               	btfsc	status,2,c
  7796   000F94  EFCE  F007         	goto	l10331
  7797   000F98  EFED  F007         	goto	l7009
  7798   000F9C                     l10331:
  7799                           
  7800                           ; Switch size 1, requested type "simple"
  7801                           ; Number of cases is 7, Range of values is 0 to 6
  7802                           ; switch strategies available:
  7803                           ; Name         Instructions Cycles
  7804                           ; simple_byte           22    12 (average)
  7805                           ;	Chosen strategy is simple_byte
  7806   000F9C  5051               	movf	??_calibracion^0,w,c
  7807   000F9E  0A00               	xorlw	0	; case 0
  7808   000FA0  B4D8               	btfsc	status,2,c
  7809   000FA2  EFB0  F007         	goto	l6991
  7810   000FA6  0A01               	xorlw	1	; case 1
  7811   000FA8  B4D8               	btfsc	status,2,c
  7812   000FAA  EFB4  F007         	goto	l6993
  7813   000FAE  0A03               	xorlw	3	; case 2
  7814   000FB0  B4D8               	btfsc	status,2,c
  7815   000FB2  EFB8  F007         	goto	l6995
  7816   000FB6  0A01               	xorlw	1	; case 3
  7817   000FB8  B4D8               	btfsc	status,2,c
  7818   000FBA  EFB0  F007         	goto	l6991
  7819   000FBE  0A07               	xorlw	7	; case 4
  7820   000FC0  B4D8               	btfsc	status,2,c
  7821   000FC2  EFBC  F007         	goto	l6999
  7822   000FC6  0A01               	xorlw	1	; case 5
  7823   000FC8  B4D8               	btfsc	status,2,c
  7824   000FCA  EFB0  F007         	goto	l6991
  7825   000FCE  0A03               	xorlw	3	; case 6
  7826   000FD0  B4D8               	btfsc	status,2,c
  7827   000FD2  EFC0  F007         	goto	l7003
  7828   000FD6  EFED  F007         	goto	l7009
  7829   000FDA                     l7009:
  7830                           
  7831                           ;calibracion.c: 534:             resetWatch = 0;
  7832   000FDA  0E00               	movlw	0
  7833   000FDC  0100               	movlb	0	; () banked
  7834   000FDE  6F9F               	movwf	(_resetWatch+1)& (0+255),b
  7835   000FE0  0E00               	movlw	0
  7836   000FE2  6F9E               	movwf	_resetWatch& (0+255),b
  7837   000FE4                     
  7838                           ; BSR set to: 0
  7839                           ;calibracion.c: 535:             EECON1bits.CFGS = 0;
  7840   000FE4  9CA6               	bcf	166,6,c	;volsfr
  7841   000FE6                     
  7842                           ; BSR set to: 0
  7843                           ;calibracion.c: 536:             EECON1bits.EEPGD = 0;
  7844   000FE6  9EA6               	bcf	166,7,c	;volsfr
  7845   000FE8                     
  7846                           ; BSR set to: 0
  7847                           ;calibracion.c: 537:             EECON1bits.WRERR = 0;
  7848   000FE8  96A6               	bcf	166,3,c	;volsfr
  7849   000FEA                     
  7850                           ; BSR set to: 0
  7851                           ;calibracion.c: 538:             EECON1bits.WREN = 1;
  7852   000FEA  84A6               	bsf	166,2,c	;volsfr
  7853   000FEC                     
  7854                           ; BSR set to: 0
  7855                           ;calibracion.c: 539:             INTCONbits.GIE = 0;
  7856   000FEC  9EF2               	bcf	242,7,c	;volatile
  7857                           
  7858                           ;calibracion.c: 540:             EECON2 = 0x55;
  7859   000FEE  0E55               	movlw	85
  7860   000FF0  6EA7               	movwf	167,c	;volsfr
  7861                           
  7862                           ;calibracion.c: 541:             EECON2 = 0xAA;
  7863   000FF2  0EAA               	movlw	170
  7864   000FF4  6EA7               	movwf	167,c	;volsfr
  7865   000FF6                     
  7866                           ; BSR set to: 0
  7867                           ;calibracion.c: 542:             EECON1bits.WR = 1;
  7868   000FF6  82A6               	bsf	166,1,c	;volsfr
  7869   000FF8                     
  7870                           ; BSR set to: 0
  7871                           ;calibracion.c: 543:             INTCONbits.GIE = 1;
  7872   000FF8  8EF2               	bsf	242,7,c	;volatile
  7873   000FFA                     
  7874                           ; BSR set to: 0
  7875                           ;calibracion.c: 544:             INTCONbits.PEIE =1;
  7876   000FFA  8CF2               	bsf	242,6,c	;volatile
  7877   000FFC                     
  7878                           ; BSR set to: 0
  7879                           ;calibracion.c: 545:             EECON1bits.WREN = 0;
  7880   000FFC  94A6               	bcf	166,2,c	;volsfr
  7881   000FFE                     l1105:
  7882                           
  7883                           ;calibracion.c: 546:             while (EECON1bits.WR){
  7884   000FFE  B2A6               	btfsc	166,1,c	;volsfr
  7885   001000  EF04  F008         	goto	u6181
  7886   001004  EF06  F008         	goto	u6180
  7887   001008                     u6181:
  7888   001008  EFFF  F007         	goto	l1105
  7889   00100C                     u6180:
  7890   00100C                     
  7891                           ;calibracion.c: 549:             }
  7892   00100C  2A25               	incf	_l^0,f,c
  7893   00100E  EFA2  F007         	goto	l6987
  7894   001012                     l1092:
  7895                           
  7896                           ;calibracion.c: 501:         while(PORTAbits.RA5 == 1){
  7897   001012  BA80               	btfsc	128,5,c	;volatile
  7898   001014  EF0E  F008         	goto	u6191
  7899   001018  EF10  F008         	goto	u6190
  7900   00101C                     u6191:
  7901   00101C  EFA0  F007         	goto	l6985
  7902   001020                     u6190:
  7903   001020  EF17  F008         	goto	l7035
  7904   001024                     l7033:
  7905                           
  7906                           ;calibracion.c: 552:     resetWatch = 0;
  7907   001024  0E00               	movlw	0
  7908   001026  0100               	movlb	0	; () banked
  7909   001028  6F9F               	movwf	(_resetWatch+1)& (0+255),b
  7910   00102A  0E00               	movlw	0
  7911   00102C  6F9E               	movwf	_resetWatch& (0+255),b
  7912   00102E                     l7035:
  7913                           
  7914                           ;calibracion.c: 551: while(PORTAbits.RA5 == 0){
  7915   00102E  AA80               	btfss	128,5,c	;volatile
  7916   001030  EF1C  F008         	goto	u6201
  7917   001034  EF1E  F008         	goto	u6200
  7918   001038                     u6201:
  7919   001038  EF12  F008         	goto	l7033
  7920   00103C                     u6200:
  7921   00103C                     
  7922                           ;calibracion.c: 556:         for(l = 0; l < 8 ; l++){
  7923   00103C  0E00               	movlw	0
  7924   00103E  6E25               	movwf	_l^0,c
  7925   001040                     l7039:
  7926   001040  0E07               	movlw	7
  7927   001042  6425               	cpfsgt	_l^0,c
  7928   001044  EF26  F008         	goto	u6211
  7929   001048  EF28  F008         	goto	u6210
  7930   00104C                     u6211:
  7931   00104C  EF2A  F008         	goto	l7043
  7932   001050                     u6210:
  7933   001050  EF85  F008         	goto	l7061
  7934   001054                     l7043:
  7935                           
  7936                           ;calibracion.c: 557:         resetWatch = 0;
  7937   001054  0E00               	movlw	0
  7938   001056  0100               	movlb	0	; () banked
  7939   001058  6F9F               	movwf	(_resetWatch+1)& (0+255),b
  7940   00105A  0E00               	movlw	0
  7941   00105C  6F9E               	movwf	_resetWatch& (0+255),b
  7942   00105E                     
  7943                           ; BSR set to: 0
  7944                           ;calibracion.c: 558:         EEADR = l ;
  7945   00105E  C025  FFA9         	movff	_l,4009	;volatile
  7946   001062                     
  7947                           ; BSR set to: 0
  7948                           ;calibracion.c: 559:         EECON1bits.EEPGD = 0;
  7949   001062  9EA6               	bcf	166,7,c	;volsfr
  7950   001064                     
  7951                           ; BSR set to: 0
  7952                           ;calibracion.c: 560:         EECON1bits.CFGS = 0;
  7953   001064  9CA6               	bcf	166,6,c	;volsfr
  7954   001066                     
  7955                           ; BSR set to: 0
  7956                           ;calibracion.c: 561:         EECON1bits.RD = 1;
  7957   001066  80A6               	bsf	166,0,c	;volsfr
  7958   001068                     l1114:
  7959                           
  7960                           ;calibracion.c: 562:         while(EECON1bits.RD == 1){
  7961   001068  B0A6               	btfsc	166,0,c	;volsfr
  7962   00106A  EF39  F008         	goto	u6221
  7963   00106E  EF3B  F008         	goto	u6220
  7964   001072                     u6221:
  7965   001072  EF34  F008         	goto	l1114
  7966   001076                     u6220:
  7967   001076  EF59  F008         	goto	l7055
  7968   00107A                     l1118:
  7969                           
  7970                           ;calibracion.c: 566:                setPoint = EEDATA;
  7971   00107A  CFA8 F040          	movff	4008,_setPoint	;volatile
  7972                           
  7973                           ;calibracion.c: 567:                break;
  7974   00107E  EF82  F008         	goto	l7057
  7975   001082                     l1120:
  7976                           
  7977                           ;calibracion.c: 570:                 SPFxBaj = EEDATA;
  7978   001082  CFA8 F03A          	movff	4008,_SPFxBaj	;volatile
  7979                           
  7980                           ;calibracion.c: 571:                 break;
  7981   001086  EF82  F008         	goto	l7057
  7982   00108A                     l1121:
  7983                           
  7984                           ;calibracion.c: 574:                 SPFxAlt = EEDATA;
  7985   00108A  CFA8 F038          	movff	4008,_SPFxAlt	;volatile
  7986                           
  7987                           ;calibracion.c: 575:             break;
  7988   00108E  EF82  F008         	goto	l7057
  7989   001092                     l1122:
  7990                           
  7991                           ;calibracion.c: 578:                 SPFxSen = EEDATA;
  7992   001092  CFA8 F03C          	movff	4008,_SPFxSen	;volatile
  7993                           
  7994                           ;calibracion.c: 579:             break;
  7995   001096  EF82  F008         	goto	l7057
  7996   00109A                     l1123:
  7997                           
  7998                           ;calibracion.c: 582:                 CTRauto = EEDATA;
  7999   00109A  CFA8 F03E          	movff	4008,_CTRauto	;volatile
  8000                           
  8001                           ;calibracion.c: 583:             break;
  8002   00109E  EF82  F008         	goto	l7057
  8003   0010A2                     l1124:
  8004                           
  8005                           ;calibracion.c: 586:                 setPotMan = EEDATA;
  8006   0010A2  CFA8 F033          	movff	4008,_setPotMan	;volatile
  8007                           
  8008                           ;calibracion.c: 587:             break;
  8009   0010A6  EF82  F008         	goto	l7057
  8010   0010AA                     l1125:
  8011                           
  8012                           ;calibracion.c: 590:                 offSet = EEDATA;
  8013   0010AA  CFA8 F02F          	movff	4008,_offSet	;volatile
  8014                           
  8015                           ;calibracion.c: 591:             break;
  8016   0010AE  EF82  F008         	goto	l7057
  8017   0010B2                     l7055:
  8018   0010B2  5025               	movf	_l^0,w,c
  8019   0010B4  6E51               	movwf	??_calibracion^0,c
  8020   0010B6  6A52               	clrf	(??_calibracion+1)^0,c
  8021                           
  8022                           ; Switch on 2 bytes has been partitioned into a top level switch of size 1, and 1 sub-sw
      +                          itches
  8023                           ; Switch size 1, requested type "simple"
  8024                           ; Number of cases is 1, Range of values is 0 to 0
  8025                           ; switch strategies available:
  8026                           ; Name         Instructions Cycles
  8027                           ; simple_byte            4     3 (average)
  8028                           ;	Chosen strategy is simple_byte
  8029   0010B8  5052               	movf	(??_calibracion+1)^0,w,c
  8030   0010BA  0A00               	xorlw	0	; case 0
  8031   0010BC  B4D8               	btfsc	status,2,c
  8032   0010BE  EF63  F008         	goto	l10333
  8033   0010C2  EF82  F008         	goto	l7057
  8034   0010C6                     l10333:
  8035                           
  8036                           ; Switch size 1, requested type "simple"
  8037                           ; Number of cases is 7, Range of values is 0 to 6
  8038                           ; switch strategies available:
  8039                           ; Name         Instructions Cycles
  8040                           ; simple_byte           22    12 (average)
  8041                           ;	Chosen strategy is simple_byte
  8042   0010C6  5051               	movf	??_calibracion^0,w,c
  8043   0010C8  0A00               	xorlw	0	; case 0
  8044   0010CA  B4D8               	btfsc	status,2,c
  8045   0010CC  EF3D  F008         	goto	l1118
  8046   0010D0  0A01               	xorlw	1	; case 1
  8047   0010D2  B4D8               	btfsc	status,2,c
  8048   0010D4  EF41  F008         	goto	l1120
  8049   0010D8  0A03               	xorlw	3	; case 2
  8050   0010DA  B4D8               	btfsc	status,2,c
  8051   0010DC  EF45  F008         	goto	l1121
  8052   0010E0  0A01               	xorlw	1	; case 3
  8053   0010E2  B4D8               	btfsc	status,2,c
  8054   0010E4  EF49  F008         	goto	l1122
  8055   0010E8  0A07               	xorlw	7	; case 4
  8056   0010EA  B4D8               	btfsc	status,2,c
  8057   0010EC  EF4D  F008         	goto	l1123
  8058   0010F0  0A01               	xorlw	1	; case 5
  8059   0010F2  B4D8               	btfsc	status,2,c
  8060   0010F4  EF51  F008         	goto	l1124
  8061   0010F8  0A03               	xorlw	3	; case 6
  8062   0010FA  B4D8               	btfsc	status,2,c
  8063   0010FC  EF55  F008         	goto	l1125
  8064   001100  EF82  F008         	goto	l7057
  8065   001104                     l7057:
  8066                           
  8067                           ;calibracion.c: 595:     }
  8068   001104  2A25               	incf	_l^0,f,c
  8069   001106  EF20  F008         	goto	l7039
  8070   00110A                     l7061:
  8071                           
  8072                           ;calibracion.c: 596:     l = 0;
  8073   00110A  0E00               	movlw	0
  8074   00110C  6E25               	movwf	_l^0,c
  8075                           
  8076                           ;calibracion.c: 597:         resetWatch = 0;
  8077   00110E  0E00               	movlw	0
  8078   001110  0100               	movlb	0	; () banked
  8079   001112  6F9F               	movwf	(_resetWatch+1)& (0+255),b
  8080   001114  0E00               	movlw	0
  8081   001116  6F9E               	movwf	_resetWatch& (0+255),b
  8082   001118                     
  8083                           ; BSR set to: 0
  8084   001118  0012               	return		;funcret
  8085   00111A                     __end_of_calibracion:
  8086                           	callstack 0
  8087                           
  8088 ;; *************** function _ds1820 *****************
  8089 ;; Defined at:
  8090 ;;		line 293 in file "ds1820.c"
  8091 ;; Parameters:    Size  Location     Type
  8092 ;;  operacion       1    wreg     unsigned char 
  8093 ;;  nsen            1   12[COMRAM] unsigned char 
  8094 ;; Auto vars:     Size  Location     Type
  8095 ;;  operacion       1   15[COMRAM] unsigned char 
  8096 ;; Return value:  Size  Location     Type
  8097 ;;                  1    wreg      void 
  8098 ;; Registers used:
  8099 ;;		wreg, fsr2l, fsr2h, status,2, status,0, cstack
  8100 ;; Tracked objects:
  8101 ;;		On entry : 0/0
  8102 ;;		On exit  : 0/0
  8103 ;;		Unchanged: 0/0
  8104 ;; Data sizes:     COMRAM   BANK0   BANK1   BANK2   BANK3   BANK4   BANK5
  8105 ;;      Params:         1       0       0       0       0       0       0
  8106 ;;      Locals:         1       0       0       0       0       0       0
  8107 ;;      Temps:          2       0       0       0       0       0       0
  8108 ;;      Totals:         4       0       0       0       0       0       0
  8109 ;;Total ram usage:        4 bytes
  8110 ;; Hardware stack levels used: 1
  8111 ;; Hardware stack levels required when called: 4
  8112 ;; This function calls:
  8113 ;;		_crc81
  8114 ;;		_crc82
  8115 ;;		_readByte1
  8116 ;;		_readByte2
  8117 ;;		_reset1
  8118 ;;		_reset2
  8119 ;;		_writeByte1
  8120 ;;		_writeByte2
  8121 ;; This function is called by:
  8122 ;;		_main
  8123 ;;		_inicializacion
  8124 ;;		_calibracion
  8125 ;; This function uses a non-reentrant model
  8126 ;;
  8127                           
  8128                           	psect	text8
  8129   003812                     __ptext8:
  8130                           	callstack 0
  8131   003812                     _ds1820:
  8132                           	callstack 25
  8133                           
  8134                           ; BSR set to: 0
  8135                           ;incstack = 0
  8136                           ;ds1820@operacion stored from wreg
  8137   003812  6E50               	movwf	ds1820@operacion^0,c
  8138   003814                     
  8139                           ;ds1820.c: 294: j = 0;
  8140   003814  0E00               	movlw	0
  8141   003816  6E11               	movwf	_j^0,c
  8142                           
  8143                           ;ds1820.c: 295: k = 0;
  8144   003818  0E00               	movlw	0
  8145   00381A  6E10               	movwf	_k^0,c
  8146                           
  8147                           ;ds1820.c: 296: n = 0;
  8148   00381C  0E00               	movlw	0
  8149   00381E  6E0F               	movwf	_n^0,c
  8150                           
  8151                           ;ds1820.c: 297: u = 0;
  8152   003820  0E00               	movlw	0
  8153   003822  6E0E               	movwf	_u^0,c
  8154                           
  8155                           ;ds1820.c: 298: t = 0;
  8156   003824  0E00               	movlw	0
  8157   003826  6E0D               	movwf	_t^0,c
  8158                           
  8159                           ;ds1820.c: 301:         switch(operacion){
  8160   003828  EF99  F01D         	goto	l6187
  8161   00382C                     l6051:
  8162                           
  8163                           ;ds1820.c: 303:                 resetWatch = 0;
  8164   00382C  0E00               	movlw	0
  8165   00382E  0100               	movlb	0	; () banked
  8166   003830  6F9F               	movwf	(_resetWatch+1)& (0+255),b
  8167   003832  0E00               	movlw	0
  8168   003834  6F9E               	movwf	_resetWatch& (0+255),b
  8169   003836                     
  8170                           ; BSR set to: 0
  8171                           ;ds1820.c: 304:                 if(nsen == 1){
  8172   003836  044D               	decf	ds1820@nsen^0,w,c
  8173   003838  A4D8               	btfss	status,2,c
  8174   00383A  EF21  F01C         	goto	u5541
  8175   00383E  EF23  F01C         	goto	u5540
  8176   003842                     u5541:
  8177   003842  EF5C  F01C         	goto	l1574
  8178   003846                     u5540:
  8179   003846                     
  8180                           ; BSR set to: 0
  8181                           ;ds1820.c: 305:                     reset1();
  8182   003846  EC5B  F024         	call	_reset1	;wreg free
  8183   00384A                     
  8184                           ;ds1820.c: 306:                     if (presencia1 == 0){
  8185   00384A  5013               	movf	_presencia1^0,w,c
  8186   00384C  A4D8               	btfss	status,2,c
  8187   00384E  EF2B  F01C         	goto	u5551
  8188   003852  EF2D  F01C         	goto	u5550
  8189   003856                     u5551:
  8190   003856  EF4F  F01C         	goto	l1575
  8191   00385A                     u5550:
  8192   00385A                     
  8193                           ;ds1820.c: 307:                         writeByte1(0x33);
  8194   00385A  0E33               	movlw	51
  8195   00385C  ECD7  F023         	call	_writeByte1
  8196   003860                     
  8197                           ;ds1820.c: 308:                         readByte1(1,8);
  8198   003860  0E08               	movlw	8
  8199   003862  6E49               	movwf	readByte1@m^0,c
  8200   003864  0E01               	movlw	1
  8201   003866  EC6A  F022         	call	_readByte1
  8202   00386A                     
  8203                           ;ds1820.c: 309:                         INTCONbits.INT0E = 1;
  8204   00386A  88F2               	bsf	242,4,c	;volatile
  8205   00386C                     
  8206                           ;ds1820.c: 310:                         if((crc81(1,8)== 0)){
  8207   00386C  0E08               	movlw	8
  8208   00386E  6E49               	movwf	crc81@m^0,c
  8209   003870  0E01               	movlw	1
  8210   003872  ECC8  F020         	call	_crc81
  8211   003876  0900               	iorlw	0
  8212   003878  A4D8               	btfss	status,2,c
  8213   00387A  EF41  F01C         	goto	u5561
  8214   00387E  EF43  F01C         	goto	u5560
  8215   003882                     u5561:
  8216   003882  EF49  F01C         	goto	l6069
  8217   003886                     u5560:
  8218   003886                     
  8219                           ;ds1820.c: 311:                             alarma1 = 0x00;
  8220   003886  0E00               	movlw	0
  8221   003888  6E1D               	movwf	_alarma1^0,c
  8222                           
  8223                           ;ds1820.c: 312:                             alarmLect2=0;
  8224   00388A  0E00               	movlw	0
  8225   00388C  6E23               	movwf	_alarmLect2^0,c
  8226                           
  8227                           ;ds1820.c: 313:                         }else{
  8228   00388E  EF4F  F01C         	goto	l1575
  8229   003892                     l6069:
  8230                           
  8231                           ;ds1820.c: 314:                             alarma1 = alarma1 + 0x10;
  8232   003892  501D               	movf	_alarma1^0,w,c
  8233   003894  0F10               	addlw	16
  8234   003896  6E1D               	movwf	_alarma1^0,c
  8235                           
  8236                           ;ds1820.c: 315:                             alarma1 = alarma1 & 0b11110000;
  8237   003898  501D               	movf	_alarma1^0,w,c
  8238   00389A  0BF0               	andlw	240
  8239   00389C  6E1D               	movwf	_alarma1^0,c
  8240   00389E                     l1575:
  8241   00389E  0413               	decf	_presencia1^0,w,c
  8242   0038A0  A4D8               	btfss	status,2,c
  8243   0038A2  EF55  F01C         	goto	u5571
  8244   0038A6  EF57  F01C         	goto	u5570
  8245   0038AA                     u5571:
  8246   0038AA  EF5C  F01C         	goto	l1574
  8247   0038AE                     u5570:
  8248   0038AE                     
  8249                           ;ds1820.c: 318:                         alarma1 = alarma1 + 0x01;
  8250   0038AE  281D               	incf	_alarma1^0,w,c
  8251   0038B0  6E1D               	movwf	_alarma1^0,c
  8252                           
  8253                           ;ds1820.c: 319:                         alarma1 = alarma1 &0b00001111;
  8254   0038B2  501D               	movf	_alarma1^0,w,c
  8255   0038B4  0B0F               	andlw	15
  8256   0038B6  6E1D               	movwf	_alarma1^0,c
  8257   0038B8                     l1574:
  8258                           
  8259                           ;ds1820.c: 322:                 if(nsen == 2){
  8260   0038B8  0E02               	movlw	2
  8261   0038BA  184D               	xorwf	ds1820@nsen^0,w,c
  8262   0038BC  A4D8               	btfss	status,2,c
  8263   0038BE  EF63  F01C         	goto	u5581
  8264   0038C2  EF65  F01C         	goto	u5580
  8265   0038C6                     u5581:
  8266   0038C6  EFB2  F01D         	goto	l6189
  8267   0038CA                     u5580:
  8268   0038CA                     
  8269                           ;ds1820.c: 323:                     reset2();
  8270   0038CA  EC48  F024         	call	_reset2	;wreg free
  8271   0038CE                     
  8272                           ;ds1820.c: 324:                     if (presencia2 == 0){
  8273   0038CE  5012               	movf	_presencia2^0,w,c
  8274   0038D0  A4D8               	btfss	status,2,c
  8275   0038D2  EF6D  F01C         	goto	u5591
  8276   0038D6  EF6F  F01C         	goto	u5590
  8277   0038DA                     u5591:
  8278   0038DA  EF91  F01C         	goto	l1580
  8279   0038DE                     u5590:
  8280   0038DE                     
  8281                           ;ds1820.c: 325:                         writeByte2(0x33);
  8282   0038DE  0E33               	movlw	51
  8283   0038E0  ECB2  F023         	call	_writeByte2
  8284   0038E4                     
  8285                           ;ds1820.c: 326:                         readByte2(1,8);
  8286   0038E4  0E08               	movlw	8
  8287   0038E6  6E49               	movwf	readByte2@m^0,c
  8288   0038E8  0E01               	movlw	1
  8289   0038EA  EC10  F022         	call	_readByte2
  8290   0038EE                     
  8291                           ;ds1820.c: 327:                       INTCONbits.INT0E = 1;
  8292   0038EE  88F2               	bsf	242,4,c	;volatile
  8293   0038F0                     
  8294                           ;ds1820.c: 328:                         if((crc82(1,8)== 0)){
  8295   0038F0  0E08               	movlw	8
  8296   0038F2  6E49               	movwf	crc82@m^0,c
  8297   0038F4  0E01               	movlw	1
  8298   0038F6  EC4F  F020         	call	_crc82
  8299   0038FA  0900               	iorlw	0
  8300   0038FC  A4D8               	btfss	status,2,c
  8301   0038FE  EF83  F01C         	goto	u5601
  8302   003902  EF85  F01C         	goto	u5600
  8303   003906                     u5601:
  8304   003906  EF8B  F01C         	goto	l6087
  8305   00390A                     u5600:
  8306   00390A                     
  8307                           ;ds1820.c: 329:                             alarma2 = 0x00;
  8308   00390A  0E00               	movlw	0
  8309   00390C  6E1E               	movwf	_alarma2^0,c
  8310                           
  8311                           ;ds1820.c: 330:                             alarmLect2=0;
  8312   00390E  0E00               	movlw	0
  8313   003910  6E23               	movwf	_alarmLect2^0,c
  8314                           
  8315                           ;ds1820.c: 331:                         }else{
  8316   003912  EF91  F01C         	goto	l1580
  8317   003916                     l6087:
  8318                           
  8319                           ;ds1820.c: 332:                             alarma2 = alarma2 + 0x10;
  8320   003916  501E               	movf	_alarma2^0,w,c
  8321   003918  0F10               	addlw	16
  8322   00391A  6E1E               	movwf	_alarma2^0,c
  8323                           
  8324                           ;ds1820.c: 333:                             alarma2 = alarma2 & 0b11110000;
  8325   00391C  501E               	movf	_alarma2^0,w,c
  8326   00391E  0BF0               	andlw	240
  8327   003920  6E1E               	movwf	_alarma2^0,c
  8328   003922                     l1580:
  8329   003922  0412               	decf	_presencia2^0,w,c
  8330   003924  A4D8               	btfss	status,2,c
  8331   003926  EF97  F01C         	goto	u5611
  8332   00392A  EF99  F01C         	goto	u5610
  8333   00392E                     u5611:
  8334   00392E  EFB2  F01D         	goto	l6189
  8335   003932                     u5610:
  8336   003932                     
  8337                           ;ds1820.c: 336:                         alarma2 = alarma2 + 0x01;
  8338   003932  281E               	incf	_alarma2^0,w,c
  8339   003934  6E1E               	movwf	_alarma2^0,c
  8340                           
  8341                           ;ds1820.c: 337:                         alarma2 = alarma2 &0b00001111;
  8342   003936  501E               	movf	_alarma2^0,w,c
  8343   003938  0B0F               	andlw	15
  8344   00393A  6E1E               	movwf	_alarma2^0,c
  8345   00393C  EFB2  F01D         	goto	l6189
  8346   003940                     l6091:
  8347                           
  8348                           ;ds1820.c: 343:                 resetWatch = 0;
  8349   003940  0E00               	movlw	0
  8350   003942  0100               	movlb	0	; () banked
  8351   003944  6F9F               	movwf	(_resetWatch+1)& (0+255),b
  8352   003946  0E00               	movlw	0
  8353   003948  6F9E               	movwf	_resetWatch& (0+255),b
  8354   00394A                     
  8355                           ; BSR set to: 0
  8356                           ;ds1820.c: 344:                 if(nsen == 1){
  8357   00394A  044D               	decf	ds1820@nsen^0,w,c
  8358   00394C  A4D8               	btfss	status,2,c
  8359   00394E  EFAB  F01C         	goto	u5621
  8360   003952  EFAD  F01C         	goto	u5620
  8361   003956                     u5621:
  8362   003956  EFCD  F01C         	goto	l6109
  8363   00395A                     u5620:
  8364   00395A                     
  8365                           ; BSR set to: 0
  8366                           ;ds1820.c: 345:                     reset1();
  8367   00395A  EC5B  F024         	call	_reset1	;wreg free
  8368   00395E                     
  8369                           ;ds1820.c: 346:                     if (presencia1 == 0){
  8370   00395E  5013               	movf	_presencia1^0,w,c
  8371   003960  A4D8               	btfss	status,2,c
  8372   003962  EFB5  F01C         	goto	u5631
  8373   003966  EFB7  F01C         	goto	u5630
  8374   00396A                     u5631:
  8375   00396A  EFBE  F01C         	goto	l6103
  8376   00396E                     u5630:
  8377   00396E                     
  8378                           ;ds1820.c: 347:                         writeByte1(0xcc);
  8379   00396E  0ECC               	movlw	204
  8380   003970  ECD7  F023         	call	_writeByte1
  8381                           
  8382                           ;ds1820.c: 348:                         writeByte1(0x44);
  8383   003974  0E44               	movlw	68
  8384   003976  ECD7  F023         	call	_writeByte1
  8385   00397A                     
  8386                           ;ds1820.c: 349:                        INTCONbits.INT0E = 1;
  8387   00397A  88F2               	bsf	242,4,c	;volatile
  8388   00397C                     l6103:
  8389                           
  8390                           ;ds1820.c: 354:                     if(presencia1 == 1){
  8391   00397C  0413               	decf	_presencia1^0,w,c
  8392   00397E  A4D8               	btfss	status,2,c
  8393   003980  EFC4  F01C         	goto	u5641
  8394   003984  EFC6  F01C         	goto	u5640
  8395   003988                     u5641:
  8396   003988  EFC8  F01C         	goto	l6107
  8397   00398C                     u5640:
  8398   00398C                     
  8399                           ;ds1820.c: 355:                         alarma1 = alarma1 + 0x01;
  8400   00398C  281D               	incf	_alarma1^0,w,c
  8401   00398E  6E1D               	movwf	_alarma1^0,c
  8402   003990                     l6107:
  8403                           
  8404                           ;ds1820.c: 357:                     conversion1 = 2;
  8405   003990  0E00               	movlw	0
  8406   003992  0100               	movlb	0	; () banked
  8407   003994  6F95               	movwf	(_conversion1+1)& (0+255),b
  8408   003996  0E02               	movlw	2
  8409   003998  6F94               	movwf	_conversion1& (0+255),b
  8410   00399A                     l6109:
  8411                           
  8412                           ; BSR set to: 0
  8413   00399A  0E02               	movlw	2
  8414   00399C  184D               	xorwf	ds1820@nsen^0,w,c
  8415   00399E  A4D8               	btfss	status,2,c
  8416   0039A0  EFD4  F01C         	goto	u5651
  8417   0039A4  EFD6  F01C         	goto	u5650
  8418   0039A8                     u5651:
  8419   0039A8  EFB2  F01D         	goto	l6189
  8420   0039AC                     u5650:
  8421   0039AC                     
  8422                           ; BSR set to: 0
  8423                           ;ds1820.c: 359:                     reset2();
  8424   0039AC  EC48  F024         	call	_reset2	;wreg free
  8425   0039B0                     
  8426                           ;ds1820.c: 360:                     if (presencia2 == 0){
  8427   0039B0  5012               	movf	_presencia2^0,w,c
  8428   0039B2  A4D8               	btfss	status,2,c
  8429   0039B4  EFDE  F01C         	goto	u5661
  8430   0039B8  EFE0  F01C         	goto	u5660
  8431   0039BC                     u5661:
  8432   0039BC  EFE7  F01C         	goto	l6119
  8433   0039C0                     u5660:
  8434   0039C0                     
  8435                           ;ds1820.c: 361:                         writeByte2(0xcc);
  8436   0039C0  0ECC               	movlw	204
  8437   0039C2  ECB2  F023         	call	_writeByte2
  8438                           
  8439                           ;ds1820.c: 362:                         writeByte2(0x44);
  8440   0039C6  0E44               	movlw	68
  8441   0039C8  ECB2  F023         	call	_writeByte2
  8442   0039CC                     
  8443                           ;ds1820.c: 363:                         INTCONbits.INT0E = 1;
  8444   0039CC  88F2               	bsf	242,4,c	;volatile
  8445   0039CE                     l6119:
  8446   0039CE  0412               	decf	_presencia2^0,w,c
  8447   0039D0  A4D8               	btfss	status,2,c
  8448   0039D2  EFED  F01C         	goto	u5671
  8449   0039D6  EFEF  F01C         	goto	u5670
  8450   0039DA                     u5671:
  8451   0039DA  EFF1  F01C         	goto	l6123
  8452   0039DE                     u5670:
  8453   0039DE                     
  8454                           ;ds1820.c: 368:                         alarma2 = alarma2 + 0x01;
  8455   0039DE  281E               	incf	_alarma2^0,w,c
  8456   0039E0  6E1E               	movwf	_alarma2^0,c
  8457   0039E2                     l6123:
  8458                           
  8459                           ;ds1820.c: 370:                     conversion2 = 2;
  8460   0039E2  0E00               	movlw	0
  8461   0039E4  0100               	movlb	0	; () banked
  8462   0039E6  6F93               	movwf	(_conversion2+1)& (0+255),b
  8463   0039E8  0E02               	movlw	2
  8464   0039EA  6F92               	movwf	_conversion2& (0+255),b
  8465   0039EC  EFB2  F01D         	goto	l6189
  8466   0039F0                     l6125:
  8467                           
  8468                           ;ds1820.c: 375:                 resetWatch = 0;
  8469   0039F0  0E00               	movlw	0
  8470   0039F2  0100               	movlb	0	; () banked
  8471   0039F4  6F9F               	movwf	(_resetWatch+1)& (0+255),b
  8472   0039F6  0E00               	movlw	0
  8473   0039F8  6F9E               	movwf	_resetWatch& (0+255),b
  8474   0039FA                     
  8475                           ; BSR set to: 0
  8476                           ;ds1820.c: 376:                 if(nsen == 1){
  8477   0039FA  044D               	decf	ds1820@nsen^0,w,c
  8478   0039FC  A4D8               	btfss	status,2,c
  8479   0039FE  EF03  F01D         	goto	u5681
  8480   003A02  EF05  F01D         	goto	u5680
  8481   003A06                     u5681:
  8482   003A06  EF47  F01D         	goto	l1593
  8483   003A0A                     u5680:
  8484   003A0A                     
  8485                           ; BSR set to: 0
  8486                           ;ds1820.c: 377:                     reset1();
  8487   003A0A  EC5B  F024         	call	_reset1	;wreg free
  8488   003A0E                     
  8489                           ;ds1820.c: 378:                     if (presencia1 == 0){
  8490   003A0E  5013               	movf	_presencia1^0,w,c
  8491   003A10  A4D8               	btfss	status,2,c
  8492   003A12  EF0D  F01D         	goto	u5691
  8493   003A16  EF0F  F01D         	goto	u5690
  8494   003A1A                     u5691:
  8495   003A1A  EF36  F01D         	goto	l1594
  8496   003A1E                     u5690:
  8497   003A1E                     
  8498                           ;ds1820.c: 379:                         writeByte1(0xcc);
  8499   003A1E  0ECC               	movlw	204
  8500   003A20  ECD7  F023         	call	_writeByte1
  8501                           
  8502                           ;ds1820.c: 380:                         writeByte1(0xbe);
  8503   003A24  0EBE               	movlw	190
  8504   003A26  ECD7  F023         	call	_writeByte1
  8505   003A2A                     
  8506                           ;ds1820.c: 381:                         readByte1 (0,9);
  8507   003A2A  0E09               	movlw	9
  8508   003A2C  6E49               	movwf	readByte1@m^0,c
  8509   003A2E  0E00               	movlw	0
  8510   003A30  EC6A  F022         	call	_readByte1
  8511   003A34                     
  8512                           ;ds1820.c: 382:                         INTCONbits.INT0E = 1;
  8513   003A34  88F2               	bsf	242,4,c	;volatile
  8514   003A36                     
  8515                           ;ds1820.c: 383:                     if((crc81(0,9)== 0)){
  8516   003A36  0E09               	movlw	9
  8517   003A38  6E49               	movwf	crc81@m^0,c
  8518   003A3A  0E00               	movlw	0
  8519   003A3C  ECC8  F020         	call	_crc81
  8520   003A40  0900               	iorlw	0
  8521   003A42  A4D8               	btfss	status,2,c
  8522   003A44  EF26  F01D         	goto	u5701
  8523   003A48  EF28  F01D         	goto	u5700
  8524   003A4C                     u5701:
  8525   003A4C  EF30  F01D         	goto	l6147
  8526   003A50                     u5700:
  8527   003A50                     
  8528                           ;ds1820.c: 384:                             alarma1 = 0x00;
  8529   003A50  0E00               	movlw	0
  8530   003A52  6E1D               	movwf	_alarma1^0,c
  8531   003A54                     
  8532                           ;ds1820.c: 385:                             aux10= lectScrat1[0];
  8533   003A54  C069  F0B7         	movff	_lectScrat1,_aux10
  8534   003A58                     
  8535                           ;ds1820.c: 386:                             aux11= lectScrat1[1];
  8536   003A58  C06A  F015         	movff	_lectScrat1+1,_aux11
  8537                           
  8538                           ;ds1820.c: 388:                         }else{
  8539   003A5C  EF36  F01D         	goto	l1594
  8540   003A60                     l6147:
  8541                           
  8542                           ;ds1820.c: 389:                             alarma1 = alarma1 + 0x10;
  8543   003A60  501D               	movf	_alarma1^0,w,c
  8544   003A62  0F10               	addlw	16
  8545   003A64  6E1D               	movwf	_alarma1^0,c
  8546                           
  8547                           ;ds1820.c: 390:                             alarma1 = alarma1 & 0b11110000;
  8548   003A66  501D               	movf	_alarma1^0,w,c
  8549   003A68  0BF0               	andlw	240
  8550   003A6A  6E1D               	movwf	_alarma1^0,c
  8551   003A6C                     l1594:
  8552   003A6C  0413               	decf	_presencia1^0,w,c
  8553   003A6E  A4D8               	btfss	status,2,c
  8554   003A70  EF3C  F01D         	goto	u5711
  8555   003A74  EF3E  F01D         	goto	u5710
  8556   003A78                     u5711:
  8557   003A78  EF45  F01D         	goto	l6153
  8558   003A7C                     u5710:
  8559   003A7C                     
  8560                           ;ds1820.c: 394:                         alarma1 = alarma1 + 0x01;
  8561   003A7C  281D               	incf	_alarma1^0,w,c
  8562   003A7E  6E1D               	movwf	_alarma1^0,c
  8563                           
  8564                           ;ds1820.c: 395:                         alarma1 = alarma1 &0b00001111;
  8565   003A80  501D               	movf	_alarma1^0,w,c
  8566   003A82  0B0F               	andlw	15
  8567   003A84  6E1D               	movwf	_alarma1^0,c
  8568   003A86                     
  8569                           ;ds1820.c: 396:                         lectura1 = 2 ;
  8570   003A86  0E02               	movlw	2
  8571   003A88  6E1C               	movwf	_lectura1^0,c
  8572   003A8A                     l6153:
  8573                           
  8574                           ;ds1820.c: 398:                     lectura1 = 2;
  8575   003A8A  0E02               	movlw	2
  8576   003A8C  6E1C               	movwf	_lectura1^0,c
  8577   003A8E                     l1593:
  8578   003A8E  0E02               	movlw	2
  8579   003A90  184D               	xorwf	ds1820@nsen^0,w,c
  8580   003A92  A4D8               	btfss	status,2,c
  8581   003A94  EF4E  F01D         	goto	u5721
  8582   003A98  EF50  F01D         	goto	u5720
  8583   003A9C                     u5721:
  8584   003A9C  EFB2  F01D         	goto	l6189
  8585   003AA0                     u5720:
  8586   003AA0                     
  8587                           ;ds1820.c: 400:                     reset2();
  8588   003AA0  EC48  F024         	call	_reset2	;wreg free
  8589   003AA4                     
  8590                           ;ds1820.c: 401:                     if (presencia2 == 0){
  8591   003AA4  5012               	movf	_presencia2^0,w,c
  8592   003AA6  A4D8               	btfss	status,2,c
  8593   003AA8  EF58  F01D         	goto	u5731
  8594   003AAC  EF5A  F01D         	goto	u5730
  8595   003AB0                     u5731:
  8596   003AB0  EF81  F01D         	goto	l6175
  8597   003AB4                     u5730:
  8598   003AB4                     
  8599                           ;ds1820.c: 402:                         writeByte2(0xcc);
  8600   003AB4  0ECC               	movlw	204
  8601   003AB6  ECB2  F023         	call	_writeByte2
  8602                           
  8603                           ;ds1820.c: 403:                         writeByte2(0xbe);
  8604   003ABA  0EBE               	movlw	190
  8605   003ABC  ECB2  F023         	call	_writeByte2
  8606   003AC0                     
  8607                           ;ds1820.c: 404:                         readByte2 (0,9);
  8608   003AC0  0E09               	movlw	9
  8609   003AC2  6E49               	movwf	readByte2@m^0,c
  8610   003AC4  0E00               	movlw	0
  8611   003AC6  EC10  F022         	call	_readByte2
  8612   003ACA                     
  8613                           ;ds1820.c: 405:                  INTCONbits.INT0E = 1;
  8614   003ACA  88F2               	bsf	242,4,c	;volatile
  8615   003ACC                     
  8616                           ;ds1820.c: 406:                     if((crc82(0,9)== 0)){
  8617   003ACC  0E09               	movlw	9
  8618   003ACE  6E49               	movwf	crc82@m^0,c
  8619   003AD0  0E00               	movlw	0
  8620   003AD2  EC4F  F020         	call	_crc82
  8621   003AD6  0900               	iorlw	0
  8622   003AD8  A4D8               	btfss	status,2,c
  8623   003ADA  EF71  F01D         	goto	u5741
  8624   003ADE  EF73  F01D         	goto	u5740
  8625   003AE2                     u5741:
  8626   003AE2  EF7B  F01D         	goto	l6173
  8627   003AE6                     u5740:
  8628   003AE6                     
  8629                           ;ds1820.c: 407:                             alarma2 = 0x00;
  8630   003AE6  0E00               	movlw	0
  8631   003AE8  6E1E               	movwf	_alarma2^0,c
  8632   003AEA                     
  8633                           ;ds1820.c: 408:                             aux20 = lectScrat2[0];
  8634   003AEA  C060  F0B6         	movff	_lectScrat2,_aux20
  8635   003AEE                     
  8636                           ;ds1820.c: 409:                             aux21 = lectScrat2[1];
  8637   003AEE  C061  F014         	movff	_lectScrat2+1,_aux21
  8638                           
  8639                           ;ds1820.c: 411:                         }else{
  8640   003AF2  EF81  F01D         	goto	l6175
  8641   003AF6                     l6173:
  8642                           
  8643                           ;ds1820.c: 412:                             alarma2 = alarma2 + 0x10;
  8644   003AF6  501E               	movf	_alarma2^0,w,c
  8645   003AF8  0F10               	addlw	16
  8646   003AFA  6E1E               	movwf	_alarma2^0,c
  8647                           
  8648                           ;ds1820.c: 413:                             alarma2 = alarma2 & 0b11110000;
  8649   003AFC  501E               	movf	_alarma2^0,w,c
  8650   003AFE  0BF0               	andlw	240
  8651   003B00  6E1E               	movwf	_alarma2^0,c
  8652   003B02                     l6175:
  8653                           
  8654                           ;ds1820.c: 417:                     resetWatch = 0;
  8655   003B02  0E00               	movlw	0
  8656   003B04  0100               	movlb	0	; () banked
  8657   003B06  6F9F               	movwf	(_resetWatch+1)& (0+255),b
  8658   003B08  0E00               	movlw	0
  8659   003B0A  6F9E               	movwf	_resetWatch& (0+255),b
  8660   003B0C                     
  8661                           ; BSR set to: 0
  8662                           ;ds1820.c: 418:                     if(presencia2 == 1){
  8663   003B0C  0412               	decf	_presencia2^0,w,c
  8664   003B0E  A4D8               	btfss	status,2,c
  8665   003B10  EF8C  F01D         	goto	u5751
  8666   003B14  EF8E  F01D         	goto	u5750
  8667   003B18                     u5751:
  8668   003B18  EF95  F01D         	goto	l6183
  8669   003B1C                     u5750:
  8670   003B1C                     
  8671                           ; BSR set to: 0
  8672                           ;ds1820.c: 419:                         alarma2 = alarma2 + 0x01;
  8673   003B1C  281E               	incf	_alarma2^0,w,c
  8674   003B1E  6E1E               	movwf	_alarma2^0,c
  8675                           
  8676                           ;ds1820.c: 420:                         alarma2 = alarma2 &0b00001111;
  8677   003B20  501E               	movf	_alarma2^0,w,c
  8678   003B22  0B0F               	andlw	15
  8679   003B24  6E1E               	movwf	_alarma2^0,c
  8680   003B26                     
  8681                           ; BSR set to: 0
  8682                           ;ds1820.c: 421:                         lectura1 = 2 ;
  8683   003B26  0E02               	movlw	2
  8684   003B28  6E1C               	movwf	_lectura1^0,c
  8685   003B2A                     l6183:
  8686                           
  8687                           ; BSR set to: 0
  8688                           ;ds1820.c: 423:                     lectura2 = 2;
  8689   003B2A  0E02               	movlw	2
  8690   003B2C  6E1B               	movwf	_lectura2^0,c
  8691   003B2E  EFB2  F01D         	goto	l6189
  8692   003B32                     l6187:
  8693   003B32  5050               	movf	ds1820@operacion^0,w,c
  8694   003B34  6E4E               	movwf	??_ds1820^0,c
  8695   003B36  6A4F               	clrf	(??_ds1820+1)^0,c
  8696                           
  8697                           ; Switch on 2 bytes has been partitioned into a top level switch of size 1, and 1 sub-sw
      +                          itches
  8698                           ; Switch size 1, requested type "simple"
  8699                           ; Number of cases is 1, Range of values is 0 to 0
  8700                           ; switch strategies available:
  8701                           ; Name         Instructions Cycles
  8702                           ; simple_byte            4     3 (average)
  8703                           ;	Chosen strategy is simple_byte
  8704   003B38  504F               	movf	(??_ds1820+1)^0,w,c
  8705   003B3A  0A00               	xorlw	0	; case 0
  8706   003B3C  B4D8               	btfsc	status,2,c
  8707   003B3E  EFA3  F01D         	goto	l10335
  8708   003B42  EFB2  F01D         	goto	l6189
  8709   003B46                     l10335:
  8710                           
  8711                           ; Switch size 1, requested type "simple"
  8712                           ; Number of cases is 3, Range of values is 1 to 3
  8713                           ; switch strategies available:
  8714                           ; Name         Instructions Cycles
  8715                           ; simple_byte           10     6 (average)
  8716                           ;	Chosen strategy is simple_byte
  8717   003B46  504E               	movf	??_ds1820^0,w,c
  8718   003B48  0A01               	xorlw	1	; case 1
  8719   003B4A  B4D8               	btfsc	status,2,c
  8720   003B4C  EF16  F01C         	goto	l6051
  8721   003B50  0A03               	xorlw	3	; case 2
  8722   003B52  B4D8               	btfsc	status,2,c
  8723   003B54  EFA0  F01C         	goto	l6091
  8724   003B58  0A01               	xorlw	1	; case 3
  8725   003B5A  B4D8               	btfsc	status,2,c
  8726   003B5C  EFF8  F01C         	goto	l6125
  8727   003B60  EFB2  F01D         	goto	l6189
  8728   003B64                     l6189:
  8729                           
  8730                           ;ds1820.c: 430:         TRISA=0b111111;
  8731   003B64  0E3F               	movlw	63
  8732   003B66  6E92               	movwf	146,c	;volatile
  8733   003B68  0012               	return		;funcret
  8734   003B6A                     __end_of_ds1820:
  8735                           	callstack 0
  8736                           
  8737 ;; *************** function _writeByte2 *****************
  8738 ;; Defined at:
  8739 ;;		line 146 in file "ds1820.c"
  8740 ;; Parameters:    Size  Location     Type
  8741 ;;  comando         1    wreg     unsigned char 
  8742 ;; Auto vars:     Size  Location     Type
  8743 ;;  comando         1    8[COMRAM] unsigned char 
  8744 ;; Return value:  Size  Location     Type
  8745 ;;                  1    wreg      void 
  8746 ;; Registers used:
  8747 ;;		wreg, status,2, status,0, cstack
  8748 ;; Tracked objects:
  8749 ;;		On entry : 0/0
  8750 ;;		On exit  : 0/0
  8751 ;;		Unchanged: 0/0
  8752 ;; Data sizes:     COMRAM   BANK0   BANK1   BANK2   BANK3   BANK4   BANK5
  8753 ;;      Params:         0       0       0       0       0       0       0
  8754 ;;      Locals:         1       0       0       0       0       0       0
  8755 ;;      Temps:          0       0       0       0       0       0       0
  8756 ;;      Totals:         1       0       0       0       0       0       0
  8757 ;;Total ram usage:        1 bytes
  8758 ;; Hardware stack levels used: 1
  8759 ;; Hardware stack levels required when called: 3
  8760 ;; This function calls:
  8761 ;;		_wrCero2
  8762 ;;		_wrUno2
  8763 ;; This function is called by:
  8764 ;;		_ds1820
  8765 ;; This function uses a non-reentrant model
  8766 ;;
  8767                           
  8768                           	psect	text9
  8769   004764                     __ptext9:
  8770                           	callstack 0
  8771   004764                     _writeByte2:
  8772                           	callstack 25
  8773                           
  8774                           ;incstack = 0
  8775                           ;writeByte2@comando stored from wreg
  8776   004764  6E49               	movwf	writeByte2@comando^0,c
  8777   004766                     
  8778                           ;ds1820.c: 148:      for ( n=0 ; n<8 ; n++ ) {
  8779   004766  0E00               	movlw	0
  8780   004768  6E0F               	movwf	_n^0,c
  8781   00476A                     l5881:
  8782   00476A  0E07               	movlw	7
  8783   00476C  640F               	cpfsgt	_n^0,c
  8784   00476E  EFBB  F023         	goto	u5281
  8785   004772  EFBD  F023         	goto	u5280
  8786   004776                     u5281:
  8787   004776  EFBF  F023         	goto	l5885
  8788   00477A                     u5280:
  8789   00477A  EFD6  F023         	goto	l1523
  8790   00477E                     l5885:
  8791                           
  8792                           ;ds1820.c: 149:        wrByte2 = comando & 0x01;
  8793   00477E  5049               	movf	writeByte2@comando^0,w,c
  8794   004780  0B01               	andlw	1
  8795   004782  0100               	movlb	0	; () banked
  8796   004784  6FAB               	movwf	_wrByte2& (0+255),b
  8797                           
  8798                           ;ds1820.c: 150:        if( wrByte2 == 1){
  8799   004786  05AB               	decf	_wrByte2& (0+255),w,b
  8800   004788  A4D8               	btfss	status,2,c
  8801   00478A  EFC9  F023         	goto	u5291
  8802   00478E  EFCB  F023         	goto	u5290
  8803   004792                     u5291:
  8804   004792  EFCF  F023         	goto	l5889
  8805   004796                     u5290:
  8806   004796                     
  8807                           ; BSR set to: 0
  8808                           ;ds1820.c: 151:            wrUno2();
  8809   004796  EC94  F024         	call	_wrUno2	;wreg free
  8810                           
  8811                           ;ds1820.c: 152:        }else{
  8812   00479A  EFD1  F023         	goto	l5891
  8813   00479E                     l5889:
  8814                           
  8815                           ; BSR set to: 0
  8816                           ;ds1820.c: 153:            wrCero2();
  8817   00479E  EC9F  F024         	call	_wrCero2	;wreg free
  8818   0047A2                     l5891:
  8819                           
  8820                           ;ds1820.c: 155:        comando>>=1;
  8821   0047A2  90D8               	bcf	status,0,c
  8822   0047A4  3249               	rrcf	writeByte2@comando^0,f,c
  8823   0047A6                     
  8824                           ;ds1820.c: 156:  }
  8825   0047A6  2A0F               	incf	_n^0,f,c
  8826   0047A8  EFB5  F023         	goto	l5881
  8827   0047AC                     l1523:
  8828   0047AC  0012               	return		;funcret
  8829   0047AE                     __end_of_writeByte2:
  8830                           	callstack 0
  8831                           
  8832 ;; *************** function _wrUno2 *****************
  8833 ;; Defined at:
  8834 ;;		line 96 in file "ds1820.c"
  8835 ;; Parameters:    Size  Location     Type
  8836 ;;		None
  8837 ;; Auto vars:     Size  Location     Type
  8838 ;;		None
  8839 ;; Return value:  Size  Location     Type
  8840 ;;                  1    wreg      void 
  8841 ;; Registers used:
  8842 ;;		wreg
  8843 ;; Tracked objects:
  8844 ;;		On entry : 0/0
  8845 ;;		On exit  : 0/0
  8846 ;;		Unchanged: 0/0
  8847 ;; Data sizes:     COMRAM   BANK0   BANK1   BANK2   BANK3   BANK4   BANK5
  8848 ;;      Params:         0       0       0       0       0       0       0
  8849 ;;      Locals:         0       0       0       0       0       0       0
  8850 ;;      Temps:          0       0       0       0       0       0       0
  8851 ;;      Totals:         0       0       0       0       0       0       0
  8852 ;;Total ram usage:        0 bytes
  8853 ;; Hardware stack levels used: 1
  8854 ;; Hardware stack levels required when called: 2
  8855 ;; This function calls:
  8856 ;;		Nothing
  8857 ;; This function is called by:
  8858 ;;		_writeByte2
  8859 ;; This function uses a non-reentrant model
  8860 ;;
  8861                           
  8862                           	psect	text10
  8863   004928                     __ptext10:
  8864                           	callstack 0
  8865   004928                     _wrUno2:
  8866                           	callstack 25
  8867   004928                     
  8868                           ;ds1820.c: 97:      TRISAbits.TRISA1 = 0;
  8869   004928  9292               	bcf	146,1,c	;volatile
  8870                           
  8871                           ;ds1820.c: 99:        PORTAbits.RA1 = 0;
  8872   00492A  9280               	bcf	128,1,c	;volatile
  8873                           
  8874                           ;ds1820.c: 100:     _delay((unsigned long)((6)*(4000000/4000000.0)));
  8875   00492C  D000               	nop2		;2 cycle nop
  8876   00492E  D000               	nop2		;2 cycle nop
  8877   004930  D000               	nop2		;2 cycle nop
  8878                           
  8879                           ;ds1820.c: 101:      TRISAbits.TRISA1 = 1;
  8880   004932  8292               	bsf	146,1,c	;volatile
  8881   004934                     
  8882                           ;ds1820.c: 103:     _delay((unsigned long)((64)*(4000000/4000000.0)));
  8883   004934  0E15               	movlw	21
  8884   004936                     u12147:
  8885   004936  2EE8               	decfsz	wreg,f,c
  8886   004938  D7FE               	bra	u12147
  8887   00493A  F000               	nop	
  8888   00493C  0012               	return		;funcret
  8889   00493E                     __end_of_wrUno2:
  8890                           	callstack 0
  8891                           
  8892 ;; *************** function _wrCero2 *****************
  8893 ;; Defined at:
  8894 ;;		line 75 in file "ds1820.c"
  8895 ;; Parameters:    Size  Location     Type
  8896 ;;		None
  8897 ;; Auto vars:     Size  Location     Type
  8898 ;;		None
  8899 ;; Return value:  Size  Location     Type
  8900 ;;                  1    wreg      void 
  8901 ;; Registers used:
  8902 ;;		wreg
  8903 ;; Tracked objects:
  8904 ;;		On entry : 0/0
  8905 ;;		On exit  : 0/0
  8906 ;;		Unchanged: 0/0
  8907 ;; Data sizes:     COMRAM   BANK0   BANK1   BANK2   BANK3   BANK4   BANK5
  8908 ;;      Params:         0       0       0       0       0       0       0
  8909 ;;      Locals:         0       0       0       0       0       0       0
  8910 ;;      Temps:          0       0       0       0       0       0       0
  8911 ;;      Totals:         0       0       0       0       0       0       0
  8912 ;;Total ram usage:        0 bytes
  8913 ;; Hardware stack levels used: 1
  8914 ;; Hardware stack levels required when called: 2
  8915 ;; This function calls:
  8916 ;;		Nothing
  8917 ;; This function is called by:
  8918 ;;		_writeByte2
  8919 ;; This function uses a non-reentrant model
  8920 ;;
  8921                           
  8922                           	psect	text11
  8923   00493E                     __ptext11:
  8924                           	callstack 0
  8925   00493E                     _wrCero2:
  8926                           	callstack 25
  8927   00493E                     
  8928                           ;ds1820.c: 76:     TRISAbits.TRISA1 = 0;
  8929   00493E  9292               	bcf	146,1,c	;volatile
  8930                           
  8931                           ;ds1820.c: 78:         PORTAbits.RA1 = 0;
  8932   004940  9280               	bcf	128,1,c	;volatile
  8933   004942                     
  8934                           ;ds1820.c: 79:     _delay((unsigned long)((60)*(4000000/4000000.0)));
  8935   004942  0E14               	movlw	20
  8936   004944                     u12157:
  8937   004944  2EE8               	decfsz	wreg,f,c
  8938   004946  D7FE               	bra	u12157
  8939   004948                     
  8940                           ;ds1820.c: 80:      TRISAbits.TRISA1 = 1;
  8941   004948  8292               	bsf	146,1,c	;volatile
  8942                           
  8943                           ;ds1820.c: 82:     _delay((unsigned long)((10)*(4000000/4000000.0)));
  8944   00494A  0E03               	movlw	3
  8945   00494C                     u12167:
  8946   00494C  2EE8               	decfsz	wreg,f,c
  8947   00494E  D7FE               	bra	u12167
  8948   004950  F000               	nop	
  8949   004952  0012               	return		;funcret
  8950   004954                     __end_of_wrCero2:
  8951                           	callstack 0
  8952                           
  8953 ;; *************** function _writeByte1 *****************
  8954 ;; Defined at:
  8955 ;;		line 133 in file "ds1820.c"
  8956 ;; Parameters:    Size  Location     Type
  8957 ;;  comando         1    wreg     unsigned char 
  8958 ;; Auto vars:     Size  Location     Type
  8959 ;;  comando         1    8[COMRAM] unsigned char 
  8960 ;; Return value:  Size  Location     Type
  8961 ;;                  1    wreg      void 
  8962 ;; Registers used:
  8963 ;;		wreg, status,2, status,0, cstack
  8964 ;; Tracked objects:
  8965 ;;		On entry : 0/0
  8966 ;;		On exit  : 0/0
  8967 ;;		Unchanged: 0/0
  8968 ;; Data sizes:     COMRAM   BANK0   BANK1   BANK2   BANK3   BANK4   BANK5
  8969 ;;      Params:         0       0       0       0       0       0       0
  8970 ;;      Locals:         1       0       0       0       0       0       0
  8971 ;;      Temps:          0       0       0       0       0       0       0
  8972 ;;      Totals:         1       0       0       0       0       0       0
  8973 ;;Total ram usage:        1 bytes
  8974 ;; Hardware stack levels used: 1
  8975 ;; Hardware stack levels required when called: 3
  8976 ;; This function calls:
  8977 ;;		_wrCero1
  8978 ;;		_wrUno1
  8979 ;; This function is called by:
  8980 ;;		_ds1820
  8981 ;; This function uses a non-reentrant model
  8982 ;;
  8983                           
  8984                           	psect	text12
  8985   0047AE                     __ptext12:
  8986                           	callstack 0
  8987   0047AE                     _writeByte1:
  8988                           	callstack 25
  8989                           
  8990                           ;incstack = 0
  8991                           ;writeByte1@comando stored from wreg
  8992   0047AE  6E49               	movwf	writeByte1@comando^0,c
  8993   0047B0                     
  8994                           ;ds1820.c: 135:      for ( n=0 ; n<8 ; n++ ) {
  8995   0047B0  0E00               	movlw	0
  8996   0047B2  6E0F               	movwf	_n^0,c
  8997   0047B4                     l5863:
  8998   0047B4  0E07               	movlw	7
  8999   0047B6  640F               	cpfsgt	_n^0,c
  9000   0047B8  EFE0  F023         	goto	u5261
  9001   0047BC  EFE2  F023         	goto	u5260
  9002   0047C0                     u5261:
  9003   0047C0  EFE4  F023         	goto	l5867
  9004   0047C4                     u5260:
  9005   0047C4  EFFB  F023         	goto	l1516
  9006   0047C8                     l5867:
  9007                           
  9008                           ;ds1820.c: 136:        wrByte1 = comando & 0x01;
  9009   0047C8  5049               	movf	writeByte1@comando^0,w,c
  9010   0047CA  0B01               	andlw	1
  9011   0047CC  0100               	movlb	0	; () banked
  9012   0047CE  6FAE               	movwf	_wrByte1& (0+255),b
  9013                           
  9014                           ;ds1820.c: 137:        if( wrByte1 == 1){
  9015   0047D0  05AE               	decf	_wrByte1& (0+255),w,b
  9016   0047D2  A4D8               	btfss	status,2,c
  9017   0047D4  EFEE  F023         	goto	u5271
  9018   0047D8  EFF0  F023         	goto	u5270
  9019   0047DC                     u5271:
  9020   0047DC  EFF4  F023         	goto	l5871
  9021   0047E0                     u5270:
  9022   0047E0                     
  9023                           ; BSR set to: 0
  9024                           ;ds1820.c: 138:            wrUno1();
  9025   0047E0  ECAA  F024         	call	_wrUno1	;wreg free
  9026                           
  9027                           ;ds1820.c: 139:        }else{
  9028   0047E4  EFF6  F023         	goto	l5873
  9029   0047E8                     l5871:
  9030                           
  9031                           ; BSR set to: 0
  9032                           ;ds1820.c: 140:            wrCero1();
  9033   0047E8  ECB5  F024         	call	_wrCero1	;wreg free
  9034   0047EC                     l5873:
  9035                           
  9036                           ;ds1820.c: 142:        comando>>=1;
  9037   0047EC  90D8               	bcf	status,0,c
  9038   0047EE  3249               	rrcf	writeByte1@comando^0,f,c
  9039   0047F0                     
  9040                           ;ds1820.c: 143:  }
  9041   0047F0  2A0F               	incf	_n^0,f,c
  9042   0047F2  EFDA  F023         	goto	l5863
  9043   0047F6                     l1516:
  9044   0047F6  0012               	return		;funcret
  9045   0047F8                     __end_of_writeByte1:
  9046                           	callstack 0
  9047                           
  9048 ;; *************** function _wrUno1 *****************
  9049 ;; Defined at:
  9050 ;;		line 86 in file "ds1820.c"
  9051 ;; Parameters:    Size  Location     Type
  9052 ;;		None
  9053 ;; Auto vars:     Size  Location     Type
  9054 ;;		None
  9055 ;; Return value:  Size  Location     Type
  9056 ;;                  1    wreg      void 
  9057 ;; Registers used:
  9058 ;;		wreg
  9059 ;; Tracked objects:
  9060 ;;		On entry : 0/0
  9061 ;;		On exit  : 0/0
  9062 ;;		Unchanged: 0/0
  9063 ;; Data sizes:     COMRAM   BANK0   BANK1   BANK2   BANK3   BANK4   BANK5
  9064 ;;      Params:         0       0       0       0       0       0       0
  9065 ;;      Locals:         0       0       0       0       0       0       0
  9066 ;;      Temps:          0       0       0       0       0       0       0
  9067 ;;      Totals:         0       0       0       0       0       0       0
  9068 ;;Total ram usage:        0 bytes
  9069 ;; Hardware stack levels used: 1
  9070 ;; Hardware stack levels required when called: 2
  9071 ;; This function calls:
  9072 ;;		Nothing
  9073 ;; This function is called by:
  9074 ;;		_writeByte1
  9075 ;; This function uses a non-reentrant model
  9076 ;;
  9077                           
  9078                           	psect	text13
  9079   004954                     __ptext13:
  9080                           	callstack 0
  9081   004954                     _wrUno1:
  9082                           	callstack 25
  9083   004954                     
  9084                           ;ds1820.c: 87:      TRISAbits.TRISA0 = 0;
  9085   004954  9092               	bcf	146,0,c	;volatile
  9086                           
  9087                           ;ds1820.c: 89:        PORTAbits.RA0 = 0;
  9088   004956  9080               	bcf	128,0,c	;volatile
  9089                           
  9090                           ;ds1820.c: 90:     _delay((unsigned long)((6)*(4000000/4000000.0)));
  9091   004958  D000               	nop2		;2 cycle nop
  9092   00495A  D000               	nop2		;2 cycle nop
  9093   00495C  D000               	nop2		;2 cycle nop
  9094                           
  9095                           ;ds1820.c: 91:      TRISAbits.TRISA0 = 1;
  9096   00495E  8092               	bsf	146,0,c	;volatile
  9097   004960                     
  9098                           ;ds1820.c: 93:     _delay((unsigned long)((64)*(4000000/4000000.0)));
  9099   004960  0E15               	movlw	21
  9100   004962                     u12177:
  9101   004962  2EE8               	decfsz	wreg,f,c
  9102   004964  D7FE               	bra	u12177
  9103   004966  F000               	nop	
  9104   004968  0012               	return		;funcret
  9105   00496A                     __end_of_wrUno1:
  9106                           	callstack 0
  9107                           
  9108 ;; *************** function _wrCero1 *****************
  9109 ;; Defined at:
  9110 ;;		line 65 in file "ds1820.c"
  9111 ;; Parameters:    Size  Location     Type
  9112 ;;		None
  9113 ;; Auto vars:     Size  Location     Type
  9114 ;;		None
  9115 ;; Return value:  Size  Location     Type
  9116 ;;                  1    wreg      void 
  9117 ;; Registers used:
  9118 ;;		wreg
  9119 ;; Tracked objects:
  9120 ;;		On entry : 0/0
  9121 ;;		On exit  : 0/0
  9122 ;;		Unchanged: 0/0
  9123 ;; Data sizes:     COMRAM   BANK0   BANK1   BANK2   BANK3   BANK4   BANK5
  9124 ;;      Params:         0       0       0       0       0       0       0
  9125 ;;      Locals:         0       0       0       0       0       0       0
  9126 ;;      Temps:          0       0       0       0       0       0       0
  9127 ;;      Totals:         0       0       0       0       0       0       0
  9128 ;;Total ram usage:        0 bytes
  9129 ;; Hardware stack levels used: 1
  9130 ;; Hardware stack levels required when called: 2
  9131 ;; This function calls:
  9132 ;;		Nothing
  9133 ;; This function is called by:
  9134 ;;		_writeByte1
  9135 ;; This function uses a non-reentrant model
  9136 ;;
  9137                           
  9138                           	psect	text14
  9139   00496A                     __ptext14:
  9140                           	callstack 0
  9141   00496A                     _wrCero1:
  9142                           	callstack 25
  9143   00496A                     
  9144                           ;ds1820.c: 66:      TRISAbits.TRISA0 = 0;
  9145   00496A  9092               	bcf	146,0,c	;volatile
  9146                           
  9147                           ;ds1820.c: 68:         PORTAbits.RA0 = 0;
  9148   00496C  9080               	bcf	128,0,c	;volatile
  9149   00496E                     
  9150                           ;ds1820.c: 69:     _delay((unsigned long)((60)*(4000000/4000000.0)));
  9151   00496E  0E14               	movlw	20
  9152   004970                     u12187:
  9153   004970  2EE8               	decfsz	wreg,f,c
  9154   004972  D7FE               	bra	u12187
  9155   004974                     
  9156                           ;ds1820.c: 70:      TRISAbits.TRISA0 = 1;
  9157   004974  8092               	bsf	146,0,c	;volatile
  9158                           
  9159                           ;ds1820.c: 72:     _delay((unsigned long)((10)*(4000000/4000000.0)));
  9160   004976  0E03               	movlw	3
  9161   004978                     u12197:
  9162   004978  2EE8               	decfsz	wreg,f,c
  9163   00497A  D7FE               	bra	u12197
  9164   00497C  F000               	nop	
  9165   00497E  0012               	return		;funcret
  9166   004980                     __end_of_wrCero1:
  9167                           	callstack 0
  9168                           
  9169 ;; *************** function _reset2 *****************
  9170 ;; Defined at:
  9171 ;;		line 52 in file "ds1820.c"
  9172 ;; Parameters:    Size  Location     Type
  9173 ;;		None
  9174 ;; Auto vars:     Size  Location     Type
  9175 ;;		None
  9176 ;; Return value:  Size  Location     Type
  9177 ;;                  1    wreg      void 
  9178 ;; Registers used:
  9179 ;;		wreg
  9180 ;; Tracked objects:
  9181 ;;		On entry : 0/0
  9182 ;;		On exit  : 0/0
  9183 ;;		Unchanged: 0/0
  9184 ;; Data sizes:     COMRAM   BANK0   BANK1   BANK2   BANK3   BANK4   BANK5
  9185 ;;      Params:         0       0       0       0       0       0       0
  9186 ;;      Locals:         0       0       0       0       0       0       0
  9187 ;;      Temps:          0       0       0       0       0       0       0
  9188 ;;      Totals:         0       0       0       0       0       0       0
  9189 ;;Total ram usage:        0 bytes
  9190 ;; Hardware stack levels used: 1
  9191 ;; Hardware stack levels required when called: 2
  9192 ;; This function calls:
  9193 ;;		Nothing
  9194 ;; This function is called by:
  9195 ;;		_ds1820
  9196 ;; This function uses a non-reentrant model
  9197 ;;
  9198                           
  9199                           	psect	text15
  9200   004890                     __ptext15:
  9201                           	callstack 0
  9202   004890                     _reset2:
  9203                           	callstack 26
  9204   004890                     
  9205                           ;ds1820.c: 53:      TRISAbits.TRISA1 = 0;
  9206   004890  9292               	bcf	146,1,c	;volatile
  9207                           
  9208                           ;ds1820.c: 55:       PORTAbits.RA1 = 0;
  9209   004892  9280               	bcf	128,1,c	;volatile
  9210   004894                     
  9211                           ;ds1820.c: 56:     _delay((unsigned long)((480)*(4000000/4000000.0)));
  9212   004894  0EA0               	movlw	160
  9213   004896                     u12207:
  9214   004896  2EE8               	decfsz	wreg,f,c
  9215   004898  D7FE               	bra	u12207
  9216   00489A                     
  9217                           ;ds1820.c: 57:      TRISAbits.TRISA1 = 1;
  9218   00489A  8292               	bsf	146,1,c	;volatile
  9219                           
  9220                           ;ds1820.c: 59:     _delay((unsigned long)((70)*(4000000/4000000.0)));
  9221   00489C  0E17               	movlw	23
  9222   00489E                     u12217:
  9223   00489E  2EE8               	decfsz	wreg,f,c
  9224   0048A0  D7FE               	bra	u12217
  9225   0048A2  F000               	nop	
  9226                           
  9227                           ;ds1820.c: 60:         presencia2 = PORTAbits.RA1;
  9228   0048A4  0E00               	movlw	0
  9229   0048A6  B280               	btfsc	128,1,c	;volatile
  9230   0048A8  0E01               	movlw	1
  9231   0048AA  6E12               	movwf	_presencia2^0,c
  9232                           
  9233                           ;ds1820.c: 61:     _delay((unsigned long)((410)*(4000000/4000000.0)));
  9234   0048AC  0E88               	movlw	136
  9235   0048AE                     u12227:
  9236   0048AE  2EE8               	decfsz	wreg,f,c
  9237   0048B0  D7FE               	bra	u12227
  9238   0048B2  D000               	nop2	
  9239   0048B4  0012               	return		;funcret
  9240   0048B6                     __end_of_reset2:
  9241                           	callstack 0
  9242                           
  9243 ;; *************** function _reset1 *****************
  9244 ;; Defined at:
  9245 ;;		line 40 in file "ds1820.c"
  9246 ;; Parameters:    Size  Location     Type
  9247 ;;		None
  9248 ;; Auto vars:     Size  Location     Type
  9249 ;;		None
  9250 ;; Return value:  Size  Location     Type
  9251 ;;                  1    wreg      void 
  9252 ;; Registers used:
  9253 ;;		wreg
  9254 ;; Tracked objects:
  9255 ;;		On entry : 0/0
  9256 ;;		On exit  : 0/0
  9257 ;;		Unchanged: 0/0
  9258 ;; Data sizes:     COMRAM   BANK0   BANK1   BANK2   BANK3   BANK4   BANK5
  9259 ;;      Params:         0       0       0       0       0       0       0
  9260 ;;      Locals:         0       0       0       0       0       0       0
  9261 ;;      Temps:          0       0       0       0       0       0       0
  9262 ;;      Totals:         0       0       0       0       0       0       0
  9263 ;;Total ram usage:        0 bytes
  9264 ;; Hardware stack levels used: 1
  9265 ;; Hardware stack levels required when called: 2
  9266 ;; This function calls:
  9267 ;;		Nothing
  9268 ;; This function is called by:
  9269 ;;		_ds1820
  9270 ;; This function uses a non-reentrant model
  9271 ;;
  9272                           
  9273                           	psect	text16
  9274   0048B6                     __ptext16:
  9275                           	callstack 0
  9276   0048B6                     _reset1:
  9277                           	callstack 26
  9278   0048B6                     
  9279                           ;ds1820.c: 41:     TRISAbits.TRISA0 = 0;
  9280   0048B6  9092               	bcf	146,0,c	;volatile
  9281                           
  9282                           ;ds1820.c: 43:       PORTAbits.RA0 = 0;
  9283   0048B8  9080               	bcf	128,0,c	;volatile
  9284   0048BA                     
  9285                           ;ds1820.c: 44:     _delay((unsigned long)((480)*(4000000/4000000.0)));
  9286   0048BA  0EA0               	movlw	160
  9287   0048BC                     u12237:
  9288   0048BC  2EE8               	decfsz	wreg,f,c
  9289   0048BE  D7FE               	bra	u12237
  9290   0048C0                     
  9291                           ;ds1820.c: 45:     TRISAbits.TRISA0 = 1;
  9292   0048C0  8092               	bsf	146,0,c	;volatile
  9293                           
  9294                           ;ds1820.c: 47:     _delay((unsigned long)((70)*(4000000/4000000.0)));
  9295   0048C2  0E17               	movlw	23
  9296   0048C4                     u12247:
  9297   0048C4  2EE8               	decfsz	wreg,f,c
  9298   0048C6  D7FE               	bra	u12247
  9299   0048C8  F000               	nop	
  9300                           
  9301                           ;ds1820.c: 48:         presencia1 = PORTAbits.RA0;
  9302   0048CA  0E00               	movlw	0
  9303   0048CC  B080               	btfsc	128,0,c	;volatile
  9304   0048CE  0E01               	movlw	1
  9305   0048D0  6E13               	movwf	_presencia1^0,c
  9306                           
  9307                           ;ds1820.c: 49:     _delay((unsigned long)((410)*(4000000/4000000.0)));
  9308   0048D2  0E88               	movlw	136
  9309   0048D4                     u12257:
  9310   0048D4  2EE8               	decfsz	wreg,f,c
  9311   0048D6  D7FE               	bra	u12257
  9312   0048D8  D000               	nop2	
  9313   0048DA  0012               	return		;funcret
  9314   0048DC                     __end_of_reset1:
  9315                           	callstack 0
  9316                           
  9317 ;; *************** function _readByte2 *****************
  9318 ;; Defined at:
  9319 ;;		line 181 in file "ds1820.c"
  9320 ;; Parameters:    Size  Location     Type
  9321 ;;  scratRom        1    wreg     unsigned char 
  9322 ;;  m               1    8[COMRAM] unsigned char 
  9323 ;; Auto vars:     Size  Location     Type
  9324 ;;  scratRom        1   11[COMRAM] unsigned char 
  9325 ;; Return value:  Size  Location     Type
  9326 ;;                  1    wreg      void 
  9327 ;; Registers used:
  9328 ;;		wreg, fsr2l, fsr2h, status,2, status,0, cstack
  9329 ;; Tracked objects:
  9330 ;;		On entry : 0/0
  9331 ;;		On exit  : 0/0
  9332 ;;		Unchanged: 0/0
  9333 ;; Data sizes:     COMRAM   BANK0   BANK1   BANK2   BANK3   BANK4   BANK5
  9334 ;;      Params:         1       0       0       0       0       0       0
  9335 ;;      Locals:         1       0       0       0       0       0       0
  9336 ;;      Temps:          2       0       0       0       0       0       0
  9337 ;;      Totals:         4       0       0       0       0       0       0
  9338 ;;Total ram usage:        4 bytes
  9339 ;; Hardware stack levels used: 1
  9340 ;; Hardware stack levels required when called: 3
  9341 ;; This function calls:
  9342 ;;		_readBit2
  9343 ;; This function is called by:
  9344 ;;		_ds1820
  9345 ;; This function uses a non-reentrant model
  9346 ;;
  9347                           
  9348                           	psect	text17
  9349   004420                     __ptext17:
  9350                           	callstack 0
  9351   004420                     _readByte2:
  9352                           	callstack 25
  9353                           
  9354                           ;incstack = 0
  9355                           ;readByte2@scratRom stored from wreg
  9356   004420  6E4C               	movwf	readByte2@scratRom^0,c
  9357   004422                     
  9358                           ;ds1820.c: 184:     for( j=0 ; j<m ; j++ ){
  9359   004422  0E00               	movlw	0
  9360   004424  6E11               	movwf	_j^0,c
  9361   004426  EF60  F022         	goto	l5963
  9362   00442A                     l5933:
  9363                           
  9364                           ;ds1820.c: 185:         rdByte2 = 0x00;
  9365   00442A  0E00               	movlw	0
  9366   00442C  0100               	movlb	0	; () banked
  9367   00442E  6FAA               	movwf	_rdByte2& (0+255),b
  9368                           
  9369                           ;ds1820.c: 186:         for( k=0 ; k<8 ; k++){
  9370   004430  0E00               	movlw	0
  9371   004432  6E10               	movwf	_k^0,c
  9372   004434                     l5935:
  9373                           
  9374                           ; BSR set to: 0
  9375   004434  0E07               	movlw	7
  9376   004436  6410               	cpfsgt	_k^0,c
  9377   004438  EF20  F022         	goto	u5351
  9378   00443C  EF22  F022         	goto	u5350
  9379   004440                     u5351:
  9380   004440  EF24  F022         	goto	l5939
  9381   004444                     u5350:
  9382   004444  EF3B  F022         	goto	l5949
  9383   004448                     l5939:
  9384                           
  9385                           ; BSR set to: 0
  9386                           ;ds1820.c: 188:             readBit2();
  9387   004448  EC6E  F024         	call	_readBit2	;wreg free
  9388   00444C                     
  9389                           ;ds1820.c: 189:             rdBit2 = rdBit2 << k;
  9390   00444C  C010  F04A         	movff	_k,??_readByte2
  9391   004450  C0AC  F04B         	movff	_rdBit2,??_readByte2+1
  9392   004454  2A4A               	incf	??_readByte2^0,f,c
  9393   004456  EF2F  F022         	goto	u5364
  9394   00445A                     u5365:
  9395   00445A  90D8               	bcf	status,0,c
  9396   00445C  364B               	rlcf	(??_readByte2+1)^0,f,c
  9397   00445E                     u5364:
  9398   00445E  2E4A               	decfsz	??_readByte2^0,f,c
  9399   004460  EF2D  F022         	goto	u5365
  9400   004464  504B               	movf	(??_readByte2+1)^0,w,c
  9401   004466  0100               	movlb	0	; () banked
  9402   004468  6FAC               	movwf	_rdBit2& (0+255),b
  9403   00446A                     
  9404                           ; BSR set to: 0
  9405                           ;ds1820.c: 190:             rdByte2 = rdByte2 + rdBit2;
  9406   00446A  51AA               	movf	_rdByte2& (0+255),w,b
  9407   00446C  25AC               	addwf	_rdBit2& (0+255),w,b
  9408   00446E  6FAA               	movwf	_rdByte2& (0+255),b
  9409   004470                     
  9410                           ; BSR set to: 0
  9411                           ;ds1820.c: 192:         }
  9412   004470  2A10               	incf	_k^0,f,c
  9413   004472  EF1A  F022         	goto	l5935
  9414   004476                     l5949:
  9415                           
  9416                           ; BSR set to: 0
  9417                           ;ds1820.c: 193:         if(scratRom == 0){
  9418   004476  504C               	movf	readByte2@scratRom^0,w,c
  9419   004478  A4D8               	btfss	status,2,c
  9420   00447A  EF41  F022         	goto	u5371
  9421   00447E  EF43  F022         	goto	u5370
  9422   004482                     u5371:
  9423   004482  EF4D  F022         	goto	l5955
  9424   004486                     u5370:
  9425   004486                     
  9426                           ; BSR set to: 0
  9427                           ;ds1820.c: 194:                 lectScrat2[j] = rdByte2;
  9428   004486  0E60               	movlw	low _lectScrat2
  9429   004488  2411               	addwf	_j^0,w,c
  9430   00448A  6ED9               	movwf	fsr2l,c
  9431   00448C  6ADA               	clrf	fsr2h,c
  9432   00448E  0E00               	movlw	high _lectScrat2
  9433   004490  22DA               	addwfc	fsr2h,f,c
  9434   004492  C0AA  FFDF         	movff	_rdByte2,indf2
  9435   004496                     
  9436                           ; BSR set to: 0
  9437                           ;ds1820.c: 195:             rdBit2 = 0;
  9438   004496  0E00               	movlw	0
  9439   004498  6FAC               	movwf	_rdBit2& (0+255),b
  9440   00449A                     l5955:
  9441                           
  9442                           ; BSR set to: 0
  9443                           ;ds1820.c: 197:         if(scratRom == 1){
  9444   00449A  044C               	decf	readByte2@scratRom^0,w,c
  9445   00449C  A4D8               	btfss	status,2,c
  9446   00449E  EF53  F022         	goto	u5381
  9447   0044A2  EF55  F022         	goto	u5380
  9448   0044A6                     u5381:
  9449   0044A6  EF5D  F022         	goto	l5959
  9450   0044AA                     u5380:
  9451   0044AA                     
  9452                           ; BSR set to: 0
  9453                           ;ds1820.c: 198:                 lectRom2[j] = rdByte2;
  9454   0044AA  0E7A               	movlw	low _lectRom2
  9455   0044AC  2411               	addwf	_j^0,w,c
  9456   0044AE  6ED9               	movwf	fsr2l,c
  9457   0044B0  6ADA               	clrf	fsr2h,c
  9458   0044B2  0E00               	movlw	high _lectRom2
  9459   0044B4  22DA               	addwfc	fsr2h,f,c
  9460   0044B6  C0AA  FFDF         	movff	_rdByte2,indf2
  9461   0044BA                     l5959:
  9462                           
  9463                           ; BSR set to: 0
  9464                           ;ds1820.c: 200:             rdBit2 = 0;
  9465   0044BA  0E00               	movlw	0
  9466   0044BC  6FAC               	movwf	_rdBit2& (0+255),b
  9467   0044BE                     
  9468                           ; BSR set to: 0
  9469                           ;ds1820.c: 201:         }
  9470   0044BE  2A11               	incf	_j^0,f,c
  9471   0044C0                     l5963:
  9472   0044C0  5049               	movf	readByte2@m^0,w,c
  9473   0044C2  5C11               	subwf	_j^0,w,c
  9474   0044C4  A0D8               	btfss	status,0,c
  9475   0044C6  EF67  F022         	goto	u5391
  9476   0044CA  EF69  F022         	goto	u5390
  9477   0044CE                     u5391:
  9478   0044CE  EF15  F022         	goto	l5933
  9479   0044D2                     u5390:
  9480   0044D2  0012               	return		;funcret
  9481   0044D4                     __end_of_readByte2:
  9482                           	callstack 0
  9483                           
  9484 ;; *************** function _readBit2 *****************
  9485 ;; Defined at:
  9486 ;;		line 120 in file "ds1820.c"
  9487 ;; Parameters:    Size  Location     Type
  9488 ;;		None
  9489 ;; Auto vars:     Size  Location     Type
  9490 ;;		None
  9491 ;; Return value:  Size  Location     Type
  9492 ;;                  1    wreg      void 
  9493 ;; Registers used:
  9494 ;;		wreg
  9495 ;; Tracked objects:
  9496 ;;		On entry : 0/0
  9497 ;;		On exit  : 0/0
  9498 ;;		Unchanged: 0/0
  9499 ;; Data sizes:     COMRAM   BANK0   BANK1   BANK2   BANK3   BANK4   BANK5
  9500 ;;      Params:         0       0       0       0       0       0       0
  9501 ;;      Locals:         0       0       0       0       0       0       0
  9502 ;;      Temps:          0       0       0       0       0       0       0
  9503 ;;      Totals:         0       0       0       0       0       0       0
  9504 ;;Total ram usage:        0 bytes
  9505 ;; Hardware stack levels used: 1
  9506 ;; Hardware stack levels required when called: 2
  9507 ;; This function calls:
  9508 ;;		Nothing
  9509 ;; This function is called by:
  9510 ;;		_readByte2
  9511 ;; This function uses a non-reentrant model
  9512 ;;
  9513                           
  9514                           	psect	text18
  9515   0048DC                     __ptext18:
  9516                           	callstack 0
  9517   0048DC                     _readBit2:
  9518                           	callstack 25
  9519   0048DC                     
  9520                           ;ds1820.c: 121:       TRISAbits.TRISA1 = 0;
  9521   0048DC  9292               	bcf	146,1,c	;volatile
  9522                           
  9523                           ;ds1820.c: 123:          PORTAbits.RA1 = 0;
  9524   0048DE  9280               	bcf	128,1,c	;volatile
  9525                           
  9526                           ;ds1820.c: 124:      _delay((unsigned long)((6)*(4000000/4000000.0)));
  9527   0048E0  D000               	nop2		;2 cycle nop
  9528   0048E2  D000               	nop2		;2 cycle nop
  9529   0048E4  D000               	nop2		;2 cycle nop
  9530                           
  9531                           ;ds1820.c: 125:       TRISAbits.TRISA1 = 1;
  9532   0048E6  8292               	bsf	146,1,c	;volatile
  9533   0048E8                     
  9534                           ;ds1820.c: 127:      _delay((unsigned long)((9)*(4000000/4000000.0)));
  9535   0048E8  0E03               	movlw	3
  9536   0048EA                     u12267:
  9537   0048EA  2EE8               	decfsz	wreg,f,c
  9538   0048EC  D7FE               	bra	u12267
  9539                           
  9540                           ;ds1820.c: 128:         rdBit2 = PORTAbits.RA1;
  9541   0048EE  0E00               	movlw	0
  9542   0048F0  B280               	btfsc	128,1,c	;volatile
  9543   0048F2  0E01               	movlw	1
  9544   0048F4  0100               	movlb	0	; () banked
  9545   0048F6  6FAC               	movwf	_rdBit2& (0+255),b
  9546                           
  9547                           ;ds1820.c: 129:      _delay((unsigned long)((55)*(4000000/4000000.0)));
  9548   0048F8  0E12               	movlw	18
  9549   0048FA                     u12277:
  9550   0048FA  2EE8               	decfsz	wreg,f,c
  9551   0048FC  D7FE               	bra	u12277
  9552   0048FE  F000               	nop	
  9553   004900  0012               	return		;funcret
  9554   004902                     __end_of_readBit2:
  9555                           	callstack 0
  9556                           
  9557 ;; *************** function _readByte1 *****************
  9558 ;; Defined at:
  9559 ;;		line 159 in file "ds1820.c"
  9560 ;; Parameters:    Size  Location     Type
  9561 ;;  scratRom        1    wreg     unsigned char 
  9562 ;;  m               1    8[COMRAM] unsigned char 
  9563 ;; Auto vars:     Size  Location     Type
  9564 ;;  scratRom        1   11[COMRAM] unsigned char 
  9565 ;; Return value:  Size  Location     Type
  9566 ;;                  1    wreg      void 
  9567 ;; Registers used:
  9568 ;;		wreg, fsr2l, fsr2h, status,2, status,0, cstack
  9569 ;; Tracked objects:
  9570 ;;		On entry : 0/0
  9571 ;;		On exit  : 0/0
  9572 ;;		Unchanged: 0/0
  9573 ;; Data sizes:     COMRAM   BANK0   BANK1   BANK2   BANK3   BANK4   BANK5
  9574 ;;      Params:         1       0       0       0       0       0       0
  9575 ;;      Locals:         1       0       0       0       0       0       0
  9576 ;;      Temps:          2       0       0       0       0       0       0
  9577 ;;      Totals:         4       0       0       0       0       0       0
  9578 ;;Total ram usage:        4 bytes
  9579 ;; Hardware stack levels used: 1
  9580 ;; Hardware stack levels required when called: 3
  9581 ;; This function calls:
  9582 ;;		_readBit1
  9583 ;; This function is called by:
  9584 ;;		_ds1820
  9585 ;; This function uses a non-reentrant model
  9586 ;;
  9587                           
  9588                           	psect	text19
  9589   0044D4                     __ptext19:
  9590                           	callstack 0
  9591   0044D4                     _readByte1:
  9592                           	callstack 25
  9593                           
  9594                           ;incstack = 0
  9595                           ;readByte1@scratRom stored from wreg
  9596   0044D4  6E4C               	movwf	readByte1@scratRom^0,c
  9597   0044D6                     
  9598                           ;ds1820.c: 162:     for( j=0 ; j<m ; j++ ){
  9599   0044D6  0E00               	movlw	0
  9600   0044D8  6E11               	movwf	_j^0,c
  9601   0044DA  EFBA  F022         	goto	l5929
  9602   0044DE                     l5899:
  9603                           
  9604                           ;ds1820.c: 163:         rdByte1 = 0x00;
  9605   0044DE  0E00               	movlw	0
  9606   0044E0  0100               	movlb	0	; () banked
  9607   0044E2  6FAD               	movwf	_rdByte1& (0+255),b
  9608                           
  9609                           ;ds1820.c: 164:         for( k=0 ; k<8 ; k++){
  9610   0044E4  0E00               	movlw	0
  9611   0044E6  6E10               	movwf	_k^0,c
  9612   0044E8                     l5901:
  9613                           
  9614                           ; BSR set to: 0
  9615   0044E8  0E07               	movlw	7
  9616   0044EA  6410               	cpfsgt	_k^0,c
  9617   0044EC  EF7A  F022         	goto	u5301
  9618   0044F0  EF7C  F022         	goto	u5300
  9619   0044F4                     u5301:
  9620   0044F4  EF7E  F022         	goto	l5905
  9621   0044F8                     u5300:
  9622   0044F8  EF95  F022         	goto	l5915
  9623   0044FC                     l5905:
  9624                           
  9625                           ; BSR set to: 0
  9626                           ;ds1820.c: 166:             readBit1();
  9627   0044FC  EC81  F024         	call	_readBit1	;wreg free
  9628   004500                     
  9629                           ;ds1820.c: 167:             rdBit1 = rdBit1 << k;
  9630   004500  C010  F04A         	movff	_k,??_readByte1
  9631   004504  C0AF  F04B         	movff	_rdBit1,??_readByte1+1
  9632   004508  2A4A               	incf	??_readByte1^0,f,c
  9633   00450A  EF89  F022         	goto	u5314
  9634   00450E                     u5315:
  9635   00450E  90D8               	bcf	status,0,c
  9636   004510  364B               	rlcf	(??_readByte1+1)^0,f,c
  9637   004512                     u5314:
  9638   004512  2E4A               	decfsz	??_readByte1^0,f,c
  9639   004514  EF87  F022         	goto	u5315
  9640   004518  504B               	movf	(??_readByte1+1)^0,w,c
  9641   00451A  0100               	movlb	0	; () banked
  9642   00451C  6FAF               	movwf	_rdBit1& (0+255),b
  9643   00451E                     
  9644                           ; BSR set to: 0
  9645                           ;ds1820.c: 168:             rdByte1 = rdByte1 + rdBit1;
  9646   00451E  51AD               	movf	_rdByte1& (0+255),w,b
  9647   004520  25AF               	addwf	_rdBit1& (0+255),w,b
  9648   004522  6FAD               	movwf	_rdByte1& (0+255),b
  9649   004524                     
  9650                           ; BSR set to: 0
  9651                           ;ds1820.c: 170:         }
  9652   004524  2A10               	incf	_k^0,f,c
  9653   004526  EF74  F022         	goto	l5901
  9654   00452A                     l5915:
  9655                           
  9656                           ; BSR set to: 0
  9657                           ;ds1820.c: 171:         if(scratRom == 0){
  9658   00452A  504C               	movf	readByte1@scratRom^0,w,c
  9659   00452C  A4D8               	btfss	status,2,c
  9660   00452E  EF9B  F022         	goto	u5321
  9661   004532  EF9D  F022         	goto	u5320
  9662   004536                     u5321:
  9663   004536  EFA7  F022         	goto	l5921
  9664   00453A                     u5320:
  9665   00453A                     
  9666                           ; BSR set to: 0
  9667                           ;ds1820.c: 172:                 lectScrat1[j] = rdByte1;
  9668   00453A  0E69               	movlw	low _lectScrat1
  9669   00453C  2411               	addwf	_j^0,w,c
  9670   00453E  6ED9               	movwf	fsr2l,c
  9671   004540  6ADA               	clrf	fsr2h,c
  9672   004542  0E00               	movlw	high _lectScrat1
  9673   004544  22DA               	addwfc	fsr2h,f,c
  9674   004546  C0AD  FFDF         	movff	_rdByte1,indf2
  9675   00454A                     
  9676                           ; BSR set to: 0
  9677                           ;ds1820.c: 173:             rdBit1 = 0;
  9678   00454A  0E00               	movlw	0
  9679   00454C  6FAF               	movwf	_rdBit1& (0+255),b
  9680   00454E                     l5921:
  9681                           
  9682                           ; BSR set to: 0
  9683                           ;ds1820.c: 175:         if(scratRom == 1){
  9684   00454E  044C               	decf	readByte1@scratRom^0,w,c
  9685   004550  A4D8               	btfss	status,2,c
  9686   004552  EFAD  F022         	goto	u5331
  9687   004556  EFAF  F022         	goto	u5330
  9688   00455A                     u5331:
  9689   00455A  EFB7  F022         	goto	l5925
  9690   00455E                     u5330:
  9691   00455E                     
  9692                           ; BSR set to: 0
  9693                           ;ds1820.c: 176:                 lectRom1[j] = rdByte1;
  9694   00455E  0E82               	movlw	low _lectRom1
  9695   004560  2411               	addwf	_j^0,w,c
  9696   004562  6ED9               	movwf	fsr2l,c
  9697   004564  6ADA               	clrf	fsr2h,c
  9698   004566  0E00               	movlw	high _lectRom1
  9699   004568  22DA               	addwfc	fsr2h,f,c
  9700   00456A  C0AD  FFDF         	movff	_rdByte1,indf2
  9701   00456E                     l5925:
  9702                           
  9703                           ; BSR set to: 0
  9704                           ;ds1820.c: 178:             rdBit1 = 0;
  9705   00456E  0E00               	movlw	0
  9706   004570  6FAF               	movwf	_rdBit1& (0+255),b
  9707   004572                     
  9708                           ; BSR set to: 0
  9709                           ;ds1820.c: 179:         }
  9710   004572  2A11               	incf	_j^0,f,c
  9711   004574                     l5929:
  9712   004574  5049               	movf	readByte1@m^0,w,c
  9713   004576  5C11               	subwf	_j^0,w,c
  9714   004578  A0D8               	btfss	status,0,c
  9715   00457A  EFC1  F022         	goto	u5341
  9716   00457E  EFC3  F022         	goto	u5340
  9717   004582                     u5341:
  9718   004582  EF6F  F022         	goto	l5899
  9719   004586                     u5340:
  9720   004586  0012               	return		;funcret
  9721   004588                     __end_of_readByte1:
  9722                           	callstack 0
  9723                           
  9724 ;; *************** function _readBit1 *****************
  9725 ;; Defined at:
  9726 ;;		line 107 in file "ds1820.c"
  9727 ;; Parameters:    Size  Location     Type
  9728 ;;		None
  9729 ;; Auto vars:     Size  Location     Type
  9730 ;;		None
  9731 ;; Return value:  Size  Location     Type
  9732 ;;                  1    wreg      void 
  9733 ;; Registers used:
  9734 ;;		wreg
  9735 ;; Tracked objects:
  9736 ;;		On entry : 0/0
  9737 ;;		On exit  : 0/0
  9738 ;;		Unchanged: 0/0
  9739 ;; Data sizes:     COMRAM   BANK0   BANK1   BANK2   BANK3   BANK4   BANK5
  9740 ;;      Params:         0       0       0       0       0       0       0
  9741 ;;      Locals:         0       0       0       0       0       0       0
  9742 ;;      Temps:          0       0       0       0       0       0       0
  9743 ;;      Totals:         0       0       0       0       0       0       0
  9744 ;;Total ram usage:        0 bytes
  9745 ;; Hardware stack levels used: 1
  9746 ;; Hardware stack levels required when called: 2
  9747 ;; This function calls:
  9748 ;;		Nothing
  9749 ;; This function is called by:
  9750 ;;		_readByte1
  9751 ;; This function uses a non-reentrant model
  9752 ;;
  9753                           
  9754                           	psect	text20
  9755   004902                     __ptext20:
  9756                           	callstack 0
  9757   004902                     _readBit1:
  9758                           	callstack 25
  9759   004902                     
  9760                           ;ds1820.c: 109:       TRISAbits.TRISA0 = 0;
  9761   004902  9092               	bcf	146,0,c	;volatile
  9762                           
  9763                           ;ds1820.c: 111:          PORTAbits.RA0 = 0;
  9764   004904  9080               	bcf	128,0,c	;volatile
  9765                           
  9766                           ;ds1820.c: 112:      _delay((unsigned long)((6)*(4000000/4000000.0)));
  9767   004906  D000               	nop2		;2 cycle nop
  9768   004908  D000               	nop2		;2 cycle nop
  9769   00490A  D000               	nop2		;2 cycle nop
  9770                           
  9771                           ;ds1820.c: 113:       TRISAbits.TRISA0 = 1;
  9772   00490C  8092               	bsf	146,0,c	;volatile
  9773   00490E                     
  9774                           ;ds1820.c: 115:      _delay((unsigned long)((9)*(4000000/4000000.0)));
  9775   00490E  0E03               	movlw	3
  9776   004910                     u12287:
  9777   004910  2EE8               	decfsz	wreg,f,c
  9778   004912  D7FE               	bra	u12287
  9779                           
  9780                           ;ds1820.c: 116:         rdBit1 = PORTAbits.RA0;
  9781   004914  0E00               	movlw	0
  9782   004916  B080               	btfsc	128,0,c	;volatile
  9783   004918  0E01               	movlw	1
  9784   00491A  0100               	movlb	0	; () banked
  9785   00491C  6FAF               	movwf	_rdBit1& (0+255),b
  9786                           
  9787                           ;ds1820.c: 117:      _delay((unsigned long)((55)*(4000000/4000000.0)));
  9788   00491E  0E12               	movlw	18
  9789   004920                     u12297:
  9790   004920  2EE8               	decfsz	wreg,f,c
  9791   004922  D7FE               	bra	u12297
  9792   004924  F000               	nop	
  9793   004926  0012               	return		;funcret
  9794   004928                     __end_of_readBit1:
  9795                           	callstack 0
  9796                           
  9797 ;; *************** function _crc82 *****************
  9798 ;; Defined at:
  9799 ;;		line 240 in file "ds1820.c"
  9800 ;; Parameters:    Size  Location     Type
  9801 ;;  scratRom        1    wreg     unsigned char 
  9802 ;;  m               1    8[COMRAM] unsigned char 
  9803 ;; Auto vars:     Size  Location     Type
  9804 ;;  scratRom        1    9[COMRAM] unsigned char 
  9805 ;; Return value:  Size  Location     Type
  9806 ;;                  1    wreg      unsigned char 
  9807 ;; Registers used:
  9808 ;;		wreg, fsr2l, fsr2h, status,2, status,0
  9809 ;; Tracked objects:
  9810 ;;		On entry : 0/0
  9811 ;;		On exit  : 0/0
  9812 ;;		Unchanged: 0/0
  9813 ;; Data sizes:     COMRAM   BANK0   BANK1   BANK2   BANK3   BANK4   BANK5
  9814 ;;      Params:         1       0       0       0       0       0       0
  9815 ;;      Locals:         1       0       0       0       0       0       0
  9816 ;;      Temps:          0       0       0       0       0       0       0
  9817 ;;      Totals:         2       0       0       0       0       0       0
  9818 ;;Total ram usage:        2 bytes
  9819 ;; Hardware stack levels used: 1
  9820 ;; Hardware stack levels required when called: 2
  9821 ;; This function calls:
  9822 ;;		Nothing
  9823 ;; This function is called by:
  9824 ;;		_ds1820
  9825 ;; This function uses a non-reentrant model
  9826 ;;
  9827                           
  9828                           	psect	text21
  9829   00409E                     __ptext21:
  9830                           	callstack 0
  9831   00409E                     _crc82:
  9832                           	callstack 26
  9833                           
  9834                           ;incstack = 0
  9835                           ;crc82@scratRom stored from wreg
  9836   00409E  6E4A               	movwf	crc82@scratRom^0,c
  9837   0040A0                     
  9838                           ;ds1820.c: 241:     poli = 0x8c;
  9839   0040A0  0E8C               	movlw	140
  9840   0040A2  0100               	movlb	0	; () banked
  9841   0040A4  6FA6               	movwf	_poli& (0+255),b
  9842                           
  9843                           ;ds1820.c: 242:     crc2 = 0x00;
  9844   0040A6  0E00               	movlw	0
  9845   0040A8  6FA7               	movwf	_crc2& (0+255),b
  9846   0040AA                     
  9847                           ; BSR set to: 0
  9848                           ;ds1820.c: 243:     m = m-1;
  9849   0040AA  0449               	decf	crc82@m^0,w,c
  9850   0040AC  6E49               	movwf	crc82@m^0,c
  9851   0040AE                     
  9852                           ; BSR set to: 0
  9853                           ;ds1820.c: 244:     for(t=0; t < m ; t++){
  9854   0040AE  0E00               	movlw	0
  9855   0040B0  6E0D               	movwf	_t^0,c
  9856   0040B2  EFA4  F020         	goto	l6037
  9857   0040B6                     l6013:
  9858                           
  9859                           ;ds1820.c: 246:         if(scratRom == 0){
  9860   0040B6  504A               	movf	crc82@scratRom^0,w,c
  9861   0040B8  A4D8               	btfss	status,2,c
  9862   0040BA  EF61  F020         	goto	u5471
  9863   0040BE  EF63  F020         	goto	u5470
  9864   0040C2                     u5471:
  9865   0040C2  EF6C  F020         	goto	l6017
  9866   0040C6                     u5470:
  9867   0040C6                     
  9868                           ;ds1820.c: 247:                 byte2 = lectScrat2[t];
  9869   0040C6  0E60               	movlw	low _lectScrat2
  9870   0040C8  240D               	addwf	_t^0,w,c
  9871   0040CA  6ED9               	movwf	fsr2l,c
  9872   0040CC  6ADA               	clrf	fsr2h,c
  9873   0040CE  0E00               	movlw	high _lectScrat2
  9874   0040D0  22DA               	addwfc	fsr2h,f,c
  9875   0040D2  50DF               	movf	indf2,w,c
  9876   0040D4  0100               	movlb	0	; () banked
  9877   0040D6  6FA2               	movwf	_byte2& (0+255),b
  9878   0040D8                     l6017:
  9879                           
  9880                           ;ds1820.c: 249:         if(scratRom == 1){
  9881   0040D8  044A               	decf	crc82@scratRom^0,w,c
  9882   0040DA  A4D8               	btfss	status,2,c
  9883   0040DC  EF72  F020         	goto	u5481
  9884   0040E0  EF74  F020         	goto	u5480
  9885   0040E4                     u5481:
  9886   0040E4  EF7D  F020         	goto	l6021
  9887   0040E8                     u5480:
  9888   0040E8                     
  9889                           ;ds1820.c: 250:                 byte2 = lectRom2[t];
  9890   0040E8  0E7A               	movlw	low _lectRom2
  9891   0040EA  240D               	addwf	_t^0,w,c
  9892   0040EC  6ED9               	movwf	fsr2l,c
  9893   0040EE  6ADA               	clrf	fsr2h,c
  9894   0040F0  0E00               	movlw	high _lectRom2
  9895   0040F2  22DA               	addwfc	fsr2h,f,c
  9896   0040F4  50DF               	movf	indf2,w,c
  9897   0040F6  0100               	movlb	0	; () banked
  9898   0040F8  6FA2               	movwf	_byte2& (0+255),b
  9899   0040FA                     l6021:
  9900                           
  9901                           ;ds1820.c: 253:         for(u = 0 ; u < 8 ; u++){
  9902   0040FA  0E00               	movlw	0
  9903   0040FC  6E0E               	movwf	_u^0,c
  9904   0040FE                     l6023:
  9905   0040FE  0E07               	movlw	7
  9906   004100  640E               	cpfsgt	_u^0,c
  9907   004102  EF85  F020         	goto	u5491
  9908   004106  EF87  F020         	goto	u5490
  9909   00410A                     u5491:
  9910   00410A  EF89  F020         	goto	l6027
  9911   00410E                     u5490:
  9912   00410E  EFA3  F020         	goto	l6035
  9913   004112                     l6027:
  9914                           
  9915                           ;ds1820.c: 254:             crc_carry2 = crc2 & 0x01;
  9916   004112  0100               	movlb	0	; () banked
  9917   004114  51A7               	movf	_crc2& (0+255),w,b
  9918   004116  0B01               	andlw	1
  9919   004118  6FA0               	movwf	_crc_carry2& (0+255),b
  9920                           
  9921                           ;ds1820.c: 255:             crc2 >>= 1 ;
  9922   00411A  90D8               	bcf	status,0,c
  9923   00411C  33A7               	rrcf	_crc2& (0+255),f,b
  9924                           
  9925                           ;ds1820.c: 257:             byte_carry2 = byte2 & 0x01;
  9926   00411E  51A2               	movf	_byte2& (0+255),w,b
  9927   004120  0B01               	andlw	1
  9928   004122  6FA1               	movwf	_byte_carry2& (0+255),b
  9929                           
  9930                           ;ds1820.c: 258:             byte2 >>= 1 ;
  9931   004124  90D8               	bcf	status,0,c
  9932   004126  33A2               	rrcf	_byte2& (0+255),f,b
  9933                           
  9934                           ;ds1820.c: 260:             if(byte_carry2 ^ crc_carry2){
  9935   004128  51A1               	movf	_byte_carry2& (0+255),w,b
  9936   00412A  19A0               	xorwf	_crc_carry2& (0+255),w,b
  9937   00412C  0900               	iorlw	0
  9938   00412E  B4D8               	btfsc	status,2,c
  9939   004130  EF9C  F020         	goto	u5501
  9940   004134  EF9E  F020         	goto	u5500
  9941   004138                     u5501:
  9942   004138  EFA0  F020         	goto	l6031
  9943   00413C                     u5500:
  9944   00413C                     
  9945                           ; BSR set to: 0
  9946                           ;ds1820.c: 262:                 crc2 ^= poli;
  9947   00413C  51A6               	movf	_poli& (0+255),w,b
  9948   00413E  1BA7               	xorwf	_crc2& (0+255),f,b
  9949   004140                     l6031:
  9950                           
  9951                           ; BSR set to: 0
  9952                           ;ds1820.c: 265:         }
  9953   004140  2A0E               	incf	_u^0,f,c
  9954   004142  EF7F  F020         	goto	l6023
  9955   004146                     l6035:
  9956                           
  9957                           ;ds1820.c: 266:     }
  9958   004146  2A0D               	incf	_t^0,f,c
  9959   004148                     l6037:
  9960   004148  5049               	movf	crc82@m^0,w,c
  9961   00414A  5C0D               	subwf	_t^0,w,c
  9962   00414C  A0D8               	btfss	status,0,c
  9963   00414E  EFAB  F020         	goto	u5511
  9964   004152  EFAD  F020         	goto	u5510
  9965   004156                     u5511:
  9966   004156  EF5B  F020         	goto	l6013
  9967   00415A                     u5510:
  9968   00415A                     
  9969                           ;ds1820.c: 268:     if(scratRom == 0){
  9970   00415A  504A               	movf	crc82@scratRom^0,w,c
  9971   00415C  A4D8               	btfss	status,2,c
  9972   00415E  EFB3  F020         	goto	u5521
  9973   004162  EFB5  F020         	goto	u5520
  9974   004166                     u5521:
  9975   004166  EFB9  F020         	goto	l1567
  9976   00416A                     u5520:
  9977   00416A                     
  9978                           ;ds1820.c: 269:             crc2 = crc2 - lectScrat2[8];
  9979   00416A  0100               	movlb	0	; () banked
  9980   00416C  5168               	movf	(_lectScrat2+8)& (0+255),w,b
  9981   00416E  5DA7               	subwf	_crc2& (0+255),w,b
  9982   004170  6FA7               	movwf	_crc2& (0+255),b
  9983   004172                     l1567:
  9984   004172  044A               	decf	crc82@scratRom^0,w,c
  9985   004174  A4D8               	btfss	status,2,c
  9986   004176  EFBF  F020         	goto	u5531
  9987   00417A  EFC1  F020         	goto	u5530
  9988   00417E                     u5531:
  9989   00417E  EFC5  F020         	goto	l6045
  9990   004182                     u5530:
  9991   004182                     
  9992                           ;ds1820.c: 271:             crc2 = crc2 - lectRom2[7];
  9993   004182  0100               	movlb	0	; () banked
  9994   004184  5181               	movf	(_lectRom2+7)& (0+255),w,b
  9995   004186  5DA7               	subwf	_crc2& (0+255),w,b
  9996   004188  6FA7               	movwf	_crc2& (0+255),b
  9997   00418A                     l6045:
  9998                           
  9999                           ;ds1820.c: 274:     return crc2;
 10000   00418A  0100               	movlb	0	; () banked
 10001   00418C  51A7               	movf	_crc2& (0+255),w,b
 10002   00418E                     
 10003                           ; BSR set to: 0
 10004   00418E  0012               	return		;funcret
 10005   004190                     __end_of_crc82:
 10006                           	callstack 0
 10007                           
 10008 ;; *************** function _crc81 *****************
 10009 ;; Defined at:
 10010 ;;		line 204 in file "ds1820.c"
 10011 ;; Parameters:    Size  Location     Type
 10012 ;;  scratRom        1    wreg     unsigned char 
 10013 ;;  m               1    8[COMRAM] unsigned char 
 10014 ;; Auto vars:     Size  Location     Type
 10015 ;;  scratRom        1    9[COMRAM] unsigned char 
 10016 ;; Return value:  Size  Location     Type
 10017 ;;                  1    wreg      unsigned char 
 10018 ;; Registers used:
 10019 ;;		wreg, fsr2l, fsr2h, status,2, status,0
 10020 ;; Tracked objects:
 10021 ;;		On entry : 0/0
 10022 ;;		On exit  : 0/0
 10023 ;;		Unchanged: 0/0
 10024 ;; Data sizes:     COMRAM   BANK0   BANK1   BANK2   BANK3   BANK4   BANK5
 10025 ;;      Params:         1       0       0       0       0       0       0
 10026 ;;      Locals:         1       0       0       0       0       0       0
 10027 ;;      Temps:          0       0       0       0       0       0       0
 10028 ;;      Totals:         2       0       0       0       0       0       0
 10029 ;;Total ram usage:        2 bytes
 10030 ;; Hardware stack levels used: 1
 10031 ;; Hardware stack levels required when called: 2
 10032 ;; This function calls:
 10033 ;;		Nothing
 10034 ;; This function is called by:
 10035 ;;		_ds1820
 10036 ;; This function uses a non-reentrant model
 10037 ;;
 10038                           
 10039                           	psect	text22
 10040   004190                     __ptext22:
 10041                           	callstack 0
 10042   004190                     _crc81:
 10043                           	callstack 26
 10044                           
 10045                           ; BSR set to: 0
 10046                           ;incstack = 0
 10047                           ;crc81@scratRom stored from wreg
 10048   004190  6E4A               	movwf	crc81@scratRom^0,c
 10049   004192                     
 10050                           ;ds1820.c: 205:     poli = 0x8c;
 10051   004192  0E8C               	movlw	140
 10052   004194  0100               	movlb	0	; () banked
 10053   004196  6FA6               	movwf	_poli& (0+255),b
 10054                           
 10055                           ;ds1820.c: 206:     crc1 = 0x00;
 10056   004198  0E00               	movlw	0
 10057   00419A  6FA8               	movwf	_crc1& (0+255),b
 10058   00419C                     
 10059                           ; BSR set to: 0
 10060                           ;ds1820.c: 207:     m = m-1;
 10061   00419C  0449               	decf	crc81@m^0,w,c
 10062   00419E  6E49               	movwf	crc81@m^0,c
 10063   0041A0                     
 10064                           ; BSR set to: 0
 10065                           ;ds1820.c: 208:     for(t=0; t < m ; t++){
 10066   0041A0  0E00               	movlw	0
 10067   0041A2  6E0D               	movwf	_t^0,c
 10068   0041A4  EF1D  F021         	goto	l5995
 10069   0041A8                     l5971:
 10070                           
 10071                           ;ds1820.c: 210:         if(scratRom == 0){
 10072   0041A8  504A               	movf	crc81@scratRom^0,w,c
 10073   0041AA  A4D8               	btfss	status,2,c
 10074   0041AC  EFDA  F020         	goto	u5401
 10075   0041B0  EFDC  F020         	goto	u5400
 10076   0041B4                     u5401:
 10077   0041B4  EFE5  F020         	goto	l5975
 10078   0041B8                     u5400:
 10079   0041B8                     
 10080                           ;ds1820.c: 211:                 byte1 = lectScrat1[t];
 10081   0041B8  0E69               	movlw	low _lectScrat1
 10082   0041BA  240D               	addwf	_t^0,w,c
 10083   0041BC  6ED9               	movwf	fsr2l,c
 10084   0041BE  6ADA               	clrf	fsr2h,c
 10085   0041C0  0E00               	movlw	high _lectScrat1
 10086   0041C2  22DA               	addwfc	fsr2h,f,c
 10087   0041C4  50DF               	movf	indf2,w,c
 10088   0041C6  0100               	movlb	0	; () banked
 10089   0041C8  6FA5               	movwf	_byte1& (0+255),b
 10090   0041CA                     l5975:
 10091                           
 10092                           ;ds1820.c: 213:         if(scratRom == 1){
 10093   0041CA  044A               	decf	crc81@scratRom^0,w,c
 10094   0041CC  A4D8               	btfss	status,2,c
 10095   0041CE  EFEB  F020         	goto	u5411
 10096   0041D2  EFED  F020         	goto	u5410
 10097   0041D6                     u5411:
 10098   0041D6  EFF6  F020         	goto	l5979
 10099   0041DA                     u5410:
 10100   0041DA                     
 10101                           ;ds1820.c: 214:                 byte1 = lectRom1[t];
 10102   0041DA  0E82               	movlw	low _lectRom1
 10103   0041DC  240D               	addwf	_t^0,w,c
 10104   0041DE  6ED9               	movwf	fsr2l,c
 10105   0041E0  6ADA               	clrf	fsr2h,c
 10106   0041E2  0E00               	movlw	high _lectRom1
 10107   0041E4  22DA               	addwfc	fsr2h,f,c
 10108   0041E6  50DF               	movf	indf2,w,c
 10109   0041E8  0100               	movlb	0	; () banked
 10110   0041EA  6FA5               	movwf	_byte1& (0+255),b
 10111   0041EC                     l5979:
 10112                           
 10113                           ;ds1820.c: 217:         for(u = 0 ; u < 8 ; u++){
 10114   0041EC  0E00               	movlw	0
 10115   0041EE  6E0E               	movwf	_u^0,c
 10116   0041F0                     l5981:
 10117   0041F0  0E07               	movlw	7
 10118   0041F2  640E               	cpfsgt	_u^0,c
 10119   0041F4  EFFE  F020         	goto	u5421
 10120   0041F8  EF00  F021         	goto	u5420
 10121   0041FC                     u5421:
 10122   0041FC  EF02  F021         	goto	l5985
 10123   004200                     u5420:
 10124   004200  EF1C  F021         	goto	l5993
 10125   004204                     l5985:
 10126                           
 10127                           ;ds1820.c: 218:             crc_carry1 = crc1 & 0x01;
 10128   004204  0100               	movlb	0	; () banked
 10129   004206  51A8               	movf	_crc1& (0+255),w,b
 10130   004208  0B01               	andlw	1
 10131   00420A  6FA3               	movwf	_crc_carry1& (0+255),b
 10132                           
 10133                           ;ds1820.c: 219:             crc1 >>= 1 ;
 10134   00420C  90D8               	bcf	status,0,c
 10135   00420E  33A8               	rrcf	_crc1& (0+255),f,b
 10136                           
 10137                           ;ds1820.c: 221:             byte_carry1 = byte1 & 0x01;
 10138   004210  51A5               	movf	_byte1& (0+255),w,b
 10139   004212  0B01               	andlw	1
 10140   004214  6FA4               	movwf	_byte_carry1& (0+255),b
 10141                           
 10142                           ;ds1820.c: 222:             byte1 >>= 1 ;
 10143   004216  90D8               	bcf	status,0,c
 10144   004218  33A5               	rrcf	_byte1& (0+255),f,b
 10145                           
 10146                           ;ds1820.c: 224:             if(byte_carry1 ^ crc_carry1){
 10147   00421A  51A4               	movf	_byte_carry1& (0+255),w,b
 10148   00421C  19A3               	xorwf	_crc_carry1& (0+255),w,b
 10149   00421E  0900               	iorlw	0
 10150   004220  B4D8               	btfsc	status,2,c
 10151   004222  EF15  F021         	goto	u5431
 10152   004226  EF17  F021         	goto	u5430
 10153   00422A                     u5431:
 10154   00422A  EF19  F021         	goto	l5989
 10155   00422E                     u5430:
 10156   00422E                     
 10157                           ; BSR set to: 0
 10158                           ;ds1820.c: 226:                 crc1 ^= poli;
 10159   00422E  51A6               	movf	_poli& (0+255),w,b
 10160   004230  1BA8               	xorwf	_crc1& (0+255),f,b
 10161   004232                     l5989:
 10162                           
 10163                           ; BSR set to: 0
 10164                           ;ds1820.c: 229:         }
 10165   004232  2A0E               	incf	_u^0,f,c
 10166   004234  EFF8  F020         	goto	l5981
 10167   004238                     l5993:
 10168                           
 10169                           ;ds1820.c: 230:     }
 10170   004238  2A0D               	incf	_t^0,f,c
 10171   00423A                     l5995:
 10172   00423A  5049               	movf	crc81@m^0,w,c
 10173   00423C  5C0D               	subwf	_t^0,w,c
 10174   00423E  A0D8               	btfss	status,0,c
 10175   004240  EF24  F021         	goto	u5441
 10176   004244  EF26  F021         	goto	u5440
 10177   004248                     u5441:
 10178   004248  EFD4  F020         	goto	l5971
 10179   00424C                     u5440:
 10180   00424C                     
 10181                           ;ds1820.c: 232:     if(scratRom == 0){
 10182   00424C  504A               	movf	crc81@scratRom^0,w,c
 10183   00424E  A4D8               	btfss	status,2,c
 10184   004250  EF2C  F021         	goto	u5451
 10185   004254  EF2E  F021         	goto	u5450
 10186   004258                     u5451:
 10187   004258  EF32  F021         	goto	l1554
 10188   00425C                     u5450:
 10189   00425C                     
 10190                           ;ds1820.c: 233:             crc1 = crc1 - lectScrat1[8];
 10191   00425C  0100               	movlb	0	; () banked
 10192   00425E  5171               	movf	(_lectScrat1+8)& (0+255),w,b
 10193   004260  5DA8               	subwf	_crc1& (0+255),w,b
 10194   004262  6FA8               	movwf	_crc1& (0+255),b
 10195   004264                     l1554:
 10196   004264  044A               	decf	crc81@scratRom^0,w,c
 10197   004266  A4D8               	btfss	status,2,c
 10198   004268  EF38  F021         	goto	u5461
 10199   00426C  EF3A  F021         	goto	u5460
 10200   004270                     u5461:
 10201   004270  EF3E  F021         	goto	l6003
 10202   004274                     u5460:
 10203   004274                     
 10204                           ;ds1820.c: 235:             crc1 = crc1 - lectRom1[7];
 10205   004274  0100               	movlb	0	; () banked
 10206   004276  5189               	movf	(_lectRom1+7)& (0+255),w,b
 10207   004278  5DA8               	subwf	_crc1& (0+255),w,b
 10208   00427A  6FA8               	movwf	_crc1& (0+255),b
 10209   00427C                     l6003:
 10210                           
 10211                           ;ds1820.c: 238:     return crc1;
 10212   00427C  0100               	movlb	0	; () banked
 10213   00427E  51A8               	movf	_crc1& (0+255),w,b
 10214   004280                     
 10215                           ; BSR set to: 0
 10216   004280  0012               	return		;funcret
 10217   004282                     __end_of_crc81:
 10218                           	callstack 0
 10219                           
 10220 ;; *************** function _conv *****************
 10221 ;; Defined at:
 10222 ;;		line 15 in file "calibracion.c"
 10223 ;; Parameters:    Size  Location     Type
 10224 ;;  dig             1    wreg     unsigned char 
 10225 ;; Auto vars:     Size  Location     Type
 10226 ;;  dig             1   10[COMRAM] unsigned char 
 10227 ;; Return value:  Size  Location     Type
 10228 ;;                  1    wreg      unsigned char 
 10229 ;; Registers used:
 10230 ;;		wreg, status,2, status,0
 10231 ;; Tracked objects:
 10232 ;;		On entry : 0/0
 10233 ;;		On exit  : 0/0
 10234 ;;		Unchanged: 0/0
 10235 ;; Data sizes:     COMRAM   BANK0   BANK1   BANK2   BANK3   BANK4   BANK5
 10236 ;;      Params:         0       0       0       0       0       0       0
 10237 ;;      Locals:         1       0       0       0       0       0       0
 10238 ;;      Temps:          2       0       0       0       0       0       0
 10239 ;;      Totals:         3       0       0       0       0       0       0
 10240 ;;Total ram usage:        3 bytes
 10241 ;; Hardware stack levels used: 1
 10242 ;; Hardware stack levels required when called: 2
 10243 ;; This function calls:
 10244 ;;		Nothing
 10245 ;; This function is called by:
 10246 ;;		_calibracion
 10247 ;; This function uses a non-reentrant model
 10248 ;;
 10249                           
 10250                           	psect	text23
 10251   003F58                     __ptext23:
 10252                           	callstack 0
 10253   003F58                     _conv:
 10254                           	callstack 26
 10255                           
 10256                           ; BSR set to: 0
 10257                           ;incstack = 0
 10258                           ;conv@dig stored from wreg
 10259   003F58  6E4B               	movwf	conv@dig^0,c
 10260   003F5A                     
 10261                           ;calibracion.c: 17:     switch (dig) {
 10262   003F5A  EFFF  F01F         	goto	l6233
 10263   003F5E                     l6199:
 10264                           
 10265                           ;calibracion.c: 19:             digito = 0xc0;
 10266   003F5E  0EC0               	movlw	192
 10267   003F60  0100               	movlb	0	; () banked
 10268   003F62  6FD7               	movwf	_digito& (0+255),b
 10269                           
 10270                           ;calibracion.c: 20:             break;
 10271   003F64  EF4C  F020         	goto	l6235
 10272   003F68                     l6201:
 10273                           
 10274                           ;calibracion.c: 22:             digito = 0xf9;
 10275   003F68  0EF9               	movlw	249
 10276   003F6A  0100               	movlb	0	; () banked
 10277   003F6C  6FD7               	movwf	_digito& (0+255),b
 10278                           
 10279                           ;calibracion.c: 23:             break;
 10280   003F6E  EF4C  F020         	goto	l6235
 10281   003F72                     l6203:
 10282                           
 10283                           ;calibracion.c: 26:             digito = 0xa4;
 10284   003F72  0EA4               	movlw	164
 10285   003F74  0100               	movlb	0	; () banked
 10286   003F76  6FD7               	movwf	_digito& (0+255),b
 10287                           
 10288                           ;calibracion.c: 27:             break;
 10289   003F78  EF4C  F020         	goto	l6235
 10290   003F7C                     l6205:
 10291                           
 10292                           ;calibracion.c: 30:             digito = 0xb0;
 10293   003F7C  0EB0               	movlw	176
 10294   003F7E  0100               	movlb	0	; () banked
 10295   003F80  6FD7               	movwf	_digito& (0+255),b
 10296                           
 10297                           ;calibracion.c: 31:             break;
 10298   003F82  EF4C  F020         	goto	l6235
 10299   003F86                     l6207:
 10300                           
 10301                           ;calibracion.c: 34:             digito = 0x99;
 10302   003F86  0E99               	movlw	153
 10303   003F88  0100               	movlb	0	; () banked
 10304   003F8A  6FD7               	movwf	_digito& (0+255),b
 10305                           
 10306                           ;calibracion.c: 35:             break;
 10307   003F8C  EF4C  F020         	goto	l6235
 10308   003F90                     l6209:
 10309                           
 10310                           ;calibracion.c: 38:             digito = 0x92;
 10311   003F90  0E92               	movlw	146
 10312   003F92  0100               	movlb	0	; () banked
 10313   003F94  6FD7               	movwf	_digito& (0+255),b
 10314                           
 10315                           ;calibracion.c: 39:             break;
 10316   003F96  EF4C  F020         	goto	l6235
 10317   003F9A                     l6211:
 10318                           
 10319                           ;calibracion.c: 42:             digito = 0x82;
 10320   003F9A  0E82               	movlw	130
 10321   003F9C  0100               	movlb	0	; () banked
 10322   003F9E  6FD7               	movwf	_digito& (0+255),b
 10323                           
 10324                           ;calibracion.c: 43:             break;
 10325   003FA0  EF4C  F020         	goto	l6235
 10326   003FA4                     l6213:
 10327                           
 10328                           ;calibracion.c: 46:             digito = 0xf8;
 10329   003FA4  0EF8               	movlw	248
 10330   003FA6  0100               	movlb	0	; () banked
 10331   003FA8  6FD7               	movwf	_digito& (0+255),b
 10332                           
 10333                           ;calibracion.c: 47:             break;
 10334   003FAA  EF4C  F020         	goto	l6235
 10335   003FAE                     l6215:
 10336                           
 10337                           ;calibracion.c: 50:             digito = 0x80;
 10338   003FAE  0E80               	movlw	128
 10339   003FB0  0100               	movlb	0	; () banked
 10340   003FB2  6FD7               	movwf	_digito& (0+255),b
 10341                           
 10342                           ;calibracion.c: 51:             break;
 10343   003FB4  EF4C  F020         	goto	l6235
 10344   003FB8                     l6217:
 10345                           
 10346                           ;calibracion.c: 54:             digito = 0x90;
 10347   003FB8  0E90               	movlw	144
 10348   003FBA  0100               	movlb	0	; () banked
 10349   003FBC  6FD7               	movwf	_digito& (0+255),b
 10350                           
 10351                           ;calibracion.c: 55:             break;
 10352   003FBE  EF4C  F020         	goto	l6235
 10353   003FC2                     l6219:
 10354                           
 10355                           ;calibracion.c: 58:             digito = 0xA0;
 10356   003FC2  0EA0               	movlw	160
 10357   003FC4  0100               	movlb	0	; () banked
 10358   003FC6  6FD7               	movwf	_digito& (0+255),b
 10359                           
 10360                           ;calibracion.c: 59:             break;
 10361   003FC8  EF4C  F020         	goto	l6235
 10362   003FCC                     l6221:
 10363                           
 10364                           ;calibracion.c: 62:             digito = 0x83;
 10365   003FCC  0E83               	movlw	131
 10366   003FCE  0100               	movlb	0	; () banked
 10367   003FD0  6FD7               	movwf	_digito& (0+255),b
 10368                           
 10369                           ;calibracion.c: 63:             break;
 10370   003FD2  EF4C  F020         	goto	l6235
 10371   003FD6                     l6223:
 10372                           
 10373                           ;calibracion.c: 66:             digito = 0x86;
 10374   003FD6  0E86               	movlw	134
 10375   003FD8  0100               	movlb	0	; () banked
 10376   003FDA  6FD7               	movwf	_digito& (0+255),b
 10377                           
 10378                           ;calibracion.c: 67:             break;
 10379   003FDC  EF4C  F020         	goto	l6235
 10380   003FE0                     l6225:
 10381                           
 10382                           ;calibracion.c: 70:             digito = 0xA1;
 10383   003FE0  0EA1               	movlw	161
 10384   003FE2  0100               	movlb	0	; () banked
 10385   003FE4  6FD7               	movwf	_digito& (0+255),b
 10386                           
 10387                           ;calibracion.c: 71:             break;
 10388   003FE6  EF4C  F020         	goto	l6235
 10389   003FEA                     l6227:
 10390                           
 10391                           ;calibracion.c: 74:             digito = 0x84;
 10392   003FEA  0E84               	movlw	132
 10393   003FEC  0100               	movlb	0	; () banked
 10394   003FEE  6FD7               	movwf	_digito& (0+255),b
 10395                           
 10396                           ;calibracion.c: 75:             break;
 10397   003FF0  EF4C  F020         	goto	l6235
 10398   003FF4                     l6229:
 10399                           
 10400                           ;calibracion.c: 78:             digito = 0x8E;
 10401   003FF4  0E8E               	movlw	142
 10402   003FF6  0100               	movlb	0	; () banked
 10403   003FF8  6FD7               	movwf	_digito& (0+255),b
 10404                           
 10405                           ;calibracion.c: 79:             break;
 10406   003FFA  EF4C  F020         	goto	l6235
 10407   003FFE                     l6233:
 10408   003FFE  504B               	movf	conv@dig^0,w,c
 10409   004000  6E49               	movwf	??_conv^0,c
 10410   004002  6A4A               	clrf	(??_conv+1)^0,c
 10411                           
 10412                           ; Switch on 2 bytes has been partitioned into a top level switch of size 1, and 1 sub-sw
      +                          itches
 10413                           ; Switch size 1, requested type "simple"
 10414                           ; Number of cases is 1, Range of values is 0 to 0
 10415                           ; switch strategies available:
 10416                           ; Name         Instructions Cycles
 10417                           ; simple_byte            4     3 (average)
 10418                           ;	Chosen strategy is simple_byte
 10419   004004  504A               	movf	(??_conv+1)^0,w,c
 10420   004006  0A00               	xorlw	0	; case 0
 10421   004008  B4D8               	btfsc	status,2,c
 10422   00400A  EF09  F020         	goto	l10337
 10423   00400E  EF4C  F020         	goto	l6235
 10424   004012                     l10337:
 10425                           
 10426                           ; Switch size 1, requested type "simple"
 10427                           ; Number of cases is 16, Range of values is 0 to 15
 10428                           ; switch strategies available:
 10429                           ; Name         Instructions Cycles
 10430                           ; simple_byte           49    25 (average)
 10431                           ;	Chosen strategy is simple_byte
 10432   004012  5049               	movf	??_conv^0,w,c
 10433   004014  0A00               	xorlw	0	; case 0
 10434   004016  B4D8               	btfsc	status,2,c
 10435   004018  EFAF  F01F         	goto	l6199
 10436   00401C  0A01               	xorlw	1	; case 1
 10437   00401E  B4D8               	btfsc	status,2,c
 10438   004020  EFB4  F01F         	goto	l6201
 10439   004024  0A03               	xorlw	3	; case 2
 10440   004026  B4D8               	btfsc	status,2,c
 10441   004028  EFB9  F01F         	goto	l6203
 10442   00402C  0A01               	xorlw	1	; case 3
 10443   00402E  B4D8               	btfsc	status,2,c
 10444   004030  EFBE  F01F         	goto	l6205
 10445   004034  0A07               	xorlw	7	; case 4
 10446   004036  B4D8               	btfsc	status,2,c
 10447   004038  EFC3  F01F         	goto	l6207
 10448   00403C  0A01               	xorlw	1	; case 5
 10449   00403E  B4D8               	btfsc	status,2,c
 10450   004040  EFC8  F01F         	goto	l6209
 10451   004044  0A03               	xorlw	3	; case 6
 10452   004046  B4D8               	btfsc	status,2,c
 10453   004048  EFCD  F01F         	goto	l6211
 10454   00404C  0A01               	xorlw	1	; case 7
 10455   00404E  B4D8               	btfsc	status,2,c
 10456   004050  EFD2  F01F         	goto	l6213
 10457   004054  0A0F               	xorlw	15	; case 8
 10458   004056  B4D8               	btfsc	status,2,c
 10459   004058  EFD7  F01F         	goto	l6215
 10460   00405C  0A01               	xorlw	1	; case 9
 10461   00405E  B4D8               	btfsc	status,2,c
 10462   004060  EFDC  F01F         	goto	l6217
 10463   004064  0A03               	xorlw	3	; case 10
 10464   004066  B4D8               	btfsc	status,2,c
 10465   004068  EFE1  F01F         	goto	l6219
 10466   00406C  0A01               	xorlw	1	; case 11
 10467   00406E  B4D8               	btfsc	status,2,c
 10468   004070  EFE6  F01F         	goto	l6221
 10469   004074  0A07               	xorlw	7	; case 12
 10470   004076  B4D8               	btfsc	status,2,c
 10471   004078  EFEB  F01F         	goto	l6223
 10472   00407C  0A01               	xorlw	1	; case 13
 10473   00407E  B4D8               	btfsc	status,2,c
 10474   004080  EFF0  F01F         	goto	l6225
 10475   004084  0A03               	xorlw	3	; case 14
 10476   004086  B4D8               	btfsc	status,2,c
 10477   004088  EFF5  F01F         	goto	l6227
 10478   00408C  0A01               	xorlw	1	; case 15
 10479   00408E  B4D8               	btfsc	status,2,c
 10480   004090  EFFA  F01F         	goto	l6229
 10481   004094  EF4C  F020         	goto	l6235
 10482   004098                     l6235:
 10483                           
 10484                           ;calibracion.c: 82:     return(digito);
 10485   004098  0100               	movlb	0	; () banked
 10486   00409A  51D7               	movf	_digito& (0+255),w,b
 10487   00409C                     
 10488                           ; BSR set to: 0
 10489   00409C  0012               	return		;funcret
 10490   00409E                     __end_of_conv:
 10491                           	callstack 0
 10492                           
 10493 ;; *************** function _display *****************
 10494 ;; Defined at:
 10495 ;;		line 69 in file "display.c"
 10496 ;; Parameters:    Size  Location     Type
 10497 ;;		None
 10498 ;; Auto vars:     Size  Location     Type
 10499 ;;		None
 10500 ;; Return value:  Size  Location     Type
 10501 ;;                  1    wreg      void 
 10502 ;; Registers used:
 10503 ;;		wreg, fsr1l, fsr1h, fsr2l, fsr2h, status,2, status,0, cstack
 10504 ;; Tracked objects:
 10505 ;;		On entry : 0/0
 10506 ;;		On exit  : 0/0
 10507 ;;		Unchanged: 0/0
 10508 ;; Data sizes:     COMRAM   BANK0   BANK1   BANK2   BANK3   BANK4   BANK5
 10509 ;;      Params:         0       0       0       0       0       0       0
 10510 ;;      Locals:         0       0       0       0       0       0       0
 10511 ;;      Temps:          0       4       0       0       0       0       0
 10512 ;;      Totals:         0       4       0       0       0       0       0
 10513 ;;Total ram usage:        4 bytes
 10514 ;; Hardware stack levels used: 1
 10515 ;; Hardware stack levels required when called: 4
 10516 ;; This function calls:
 10517 ;;		_conv7Seg
 10518 ;;		_convBCD
 10519 ;; This function is called by:
 10520 ;;		_main
 10521 ;; This function uses a non-reentrant model
 10522 ;;
 10523                           
 10524                           	psect	text24
 10525   002240                     __ptext24:
 10526                           	callstack 0
 10527   002240                     _display:
 10528                           	callstack 26
 10529   002240                     
 10530                           ;display.c: 70:     INTCONbits.INT0E = 1;
 10531   002240  88F2               	bsf	242,4,c	;volatile
 10532   002242                     
 10533                           ;display.c: 71:     resetWatch = 0;
 10534   002242  0E00               	movlw	0
 10535   002244  0100               	movlb	0	; () banked
 10536   002246  6F9F               	movwf	(_resetWatch+1)& (0+255),b
 10537   002248  0E00               	movlw	0
 10538   00224A  6F9E               	movwf	_resetWatch& (0+255),b
 10539                           
 10540                           ;display.c: 72:     switch(selMenu){
 10541   00224C  EFFD  F013         	goto	l9637
 10542   002250                     l9445:
 10543                           
 10544                           ; BSR set to: 0
 10545                           ;display.c: 75:             if(CTRauto == 0){
 10546   002250  503E               	movf	_CTRauto^0,w,c
 10547   002252  A4D8               	btfss	status,2,c
 10548   002254  EF2E  F011         	goto	u10491
 10549   002258  EF30  F011         	goto	u10490
 10550   00225C                     u10491:
 10551   00225C  EF4D  F012         	goto	l9531
 10552   002260                     u10490:
 10553   002260                     
 10554                           ; BSR set to: 0
 10555                           ;display.c: 76:                 if(tempDecimal > 1){
 10556   002260  0E01               	movlw	1
 10557   002262  6436               	cpfsgt	_tempDecimal^0,c
 10558   002264  EF36  F011         	goto	u10501
 10559   002268  EF38  F011         	goto	u10500
 10560   00226C                     u10501:
 10561   00226C  EF3A  F011         	goto	l1345
 10562   002270                     u10500:
 10563   002270                     
 10564                           ; BSR set to: 0
 10565                           ;display.c: 77:                     tempDecimal = 0;
 10566   002270  0E00               	movlw	0
 10567   002272  6E36               	movwf	_tempDecimal^0,c
 10568   002274                     l1345:
 10569                           
 10570                           ; BSR set to: 0
 10571                           ;display.c: 79:                     if(tempDecimal == 0){
 10572   002274  5036               	movf	_tempDecimal^0,w,c
 10573   002276  A4D8               	btfss	status,2,c
 10574   002278  EF40  F011         	goto	u10511
 10575   00227C  EF42  F011         	goto	u10510
 10576   002280                     u10511:
 10577   002280  EF44  F011         	goto	l9453
 10578   002284                     u10510:
 10579   002284                     
 10580                           ; BSR set to: 0
 10581                           ;display.c: 80:                         dig[2] = 0xc0;
 10582   002284  0EC0               	movlw	192
 10583   002286  6E03               	movwf	(_dig+2)^0,c
 10584   002288                     l9453:
 10585                           
 10586                           ; BSR set to: 0
 10587   002288  0436               	decf	_tempDecimal^0,w,c
 10588   00228A  A4D8               	btfss	status,2,c
 10589   00228C  EF4A  F011         	goto	u10521
 10590   002290  EF4C  F011         	goto	u10520
 10591   002294                     u10521:
 10592   002294  EF4E  F011         	goto	l1347
 10593   002298                     u10520:
 10594   002298                     
 10595                           ; BSR set to: 0
 10596                           ;display.c: 82:                         dig[2] = 0x92;
 10597   002298  0E92               	movlw	146
 10598   00229A  6E03               	movwf	(_dig+2)^0,c
 10599   00229C                     l1347:
 10600                           
 10601                           ; BSR set to: 0
 10602                           ;display.c: 84:                     if(alarmaFxSen == 0){
 10603   00229C  503D               	movf	_alarmaFxSen^0,w,c
 10604   00229E  A4D8               	btfss	status,2,c
 10605   0022A0  EF54  F011         	goto	u10531
 10606   0022A4  EF56  F011         	goto	u10530
 10607   0022A8                     u10531:
 10608   0022A8  EF87  F011         	goto	l9469
 10609   0022AC                     u10530:
 10610   0022AC                     
 10611                           ; BSR set to: 0
 10612                           ;display.c: 85:                         if(tempDisplay > 60){
 10613   0022AC  0E3C               	movlw	60
 10614   0022AE  6437               	cpfsgt	_tempDisplay^0,c
 10615   0022B0  EF5C  F011         	goto	u10541
 10616   0022B4  EF5E  F011         	goto	u10540
 10617   0022B8                     u10541:
 10618   0022B8  EF7C  F011         	goto	l9467
 10619   0022BC                     u10540:
 10620   0022BC                     
 10621                           ; BSR set to: 0
 10622                           ;display.c: 86:                             if(tempNeg == 0){
 10623   0022BC  5035               	movf	_tempNeg^0,w,c
 10624   0022BE  A4D8               	btfss	status,2,c
 10625   0022C0  EF64  F011         	goto	u10551
 10626   0022C4  EF66  F011         	goto	u10550
 10627   0022C8                     u10551:
 10628   0022C8  EF6C  F011         	goto	l9463
 10629   0022CC                     u10550:
 10630   0022CC                     
 10631                           ; BSR set to: 0
 10632                           ;display.c: 87:                                 dig[0]=0xa3;
 10633   0022CC  0EA3               	movlw	163
 10634   0022CE  6E01               	movwf	_dig^0,c
 10635                           
 10636                           ;display.c: 88:                                 dig[1]=0xe3;
 10637   0022D0  0EE3               	movlw	227
 10638   0022D2  6E02               	movwf	(_dig+1)^0,c
 10639                           
 10640                           ;display.c: 89:                                 dig[2]=0xc7;
 10641   0022D4  0EC7               	movlw	199
 10642   0022D6  6E03               	movwf	(_dig+2)^0,c
 10643   0022D8                     l9463:
 10644                           
 10645                           ; BSR set to: 0
 10646   0022D8  0435               	decf	_tempNeg^0,w,c
 10647   0022DA  A4D8               	btfss	status,2,c
 10648   0022DC  EF72  F011         	goto	u10561
 10649   0022E0  EF74  F011         	goto	u10560
 10650   0022E4                     u10561:
 10651   0022E4  EF8D  F011         	goto	l1353
 10652   0022E8                     u10560:
 10653   0022E8                     
 10654                           ; BSR set to: 0
 10655                           ;display.c: 91:                                 dig[0]=0xa3;
 10656   0022E8  0EA3               	movlw	163
 10657   0022EA  6E01               	movwf	_dig^0,c
 10658                           
 10659                           ;display.c: 92:                                 dig[1]=0xe3;
 10660   0022EC  0EE3               	movlw	227
 10661   0022EE  6E02               	movwf	(_dig+1)^0,c
 10662                           
 10663                           ;display.c: 93:                                 dig[2]=0xc7;
 10664   0022F0  0EC7               	movlw	199
 10665   0022F2  6E03               	movwf	(_dig+2)^0,c
 10666   0022F4  EF8D  F011         	goto	l1353
 10667   0022F8                     l9467:
 10668                           
 10669                           ; BSR set to: 0
 10670                           ;display.c: 96:                             convBCD(tempDisplay,0,1,tempNeg);
 10671   0022F8  0E00               	movlw	0
 10672   0022FA  6E51               	movwf	convBCD@dign^0,c
 10673   0022FC  0E01               	movlw	1
 10674   0022FE  6E52               	movwf	convBCD@dignn^0,c
 10675   002300  C035  F053         	movff	_tempNeg,convBCD@puntoDec
 10676   002304  5037               	movf	_tempDisplay^0,w,c
 10677   002306  EC6C  F023         	call	_convBCD
 10678   00230A  EF8D  F011         	goto	l1353
 10679   00230E                     l9469:
 10680                           
 10681                           ; BSR set to: 0
 10682                           ;display.c: 99:                         dig[0]=0x84;
 10683   00230E  0E84               	movlw	132
 10684   002310  6E01               	movwf	_dig^0,c
 10685                           
 10686                           ;display.c: 100:                         dig[1]=0xaf;
 10687   002312  0EAF               	movlw	175
 10688   002314  6E02               	movwf	(_dig+1)^0,c
 10689                           
 10690                           ;display.c: 101:                         dig[2]=0xaf;
 10691   002316  0EAF               	movlw	175
 10692   002318  6E03               	movwf	(_dig+2)^0,c
 10693   00231A                     l1353:
 10694                           
 10695                           ;display.c: 107:                     if((alarmaFxBaj == 0)&&(alarmaFxAlt == 0)&&(alarmaF
      +                          xSen == 0)){
 10696   00231A  503B               	movf	_alarmaFxBaj^0,w,c
 10697   00231C  A4D8               	btfss	status,2,c
 10698   00231E  EF93  F011         	goto	u10571
 10699   002322  EF95  F011         	goto	u10570
 10700   002326                     u10571:
 10701   002326  EFCB  F011         	goto	l9489
 10702   00232A                     u10570:
 10703   00232A  5039               	movf	_alarmaFxAlt^0,w,c
 10704   00232C  A4D8               	btfss	status,2,c
 10705   00232E  EF9B  F011         	goto	u10581
 10706   002332  EF9D  F011         	goto	u10580
 10707   002336                     u10581:
 10708   002336  EFCB  F011         	goto	l9489
 10709   00233A                     u10580:
 10710   00233A  503D               	movf	_alarmaFxSen^0,w,c
 10711   00233C  A4D8               	btfss	status,2,c
 10712   00233E  EFA3  F011         	goto	u10591
 10713   002342  EFA5  F011         	goto	u10590
 10714   002346                     u10591:
 10715   002346  EFCB  F011         	goto	l9489
 10716   00234A                     u10590:
 10717   00234A                     
 10718                           ;display.c: 108:                     deciSP = setPoint & 0b00000001;
 10719   00234A  5040               	movf	_setPoint^0,w,c
 10720   00234C  0B01               	andlw	1
 10721   00234E  6E28               	movwf	_deciSP^0,c
 10722   002350                     
 10723                           ;display.c: 109:                     if(deciSP == 0){
 10724   002350  5028               	movf	_deciSP^0,w,c
 10725   002352  A4D8               	btfss	status,2,c
 10726   002354  EFAE  F011         	goto	u10601
 10727   002358  EFB0  F011         	goto	u10600
 10728   00235C                     u10601:
 10729   00235C  EFB2  F011         	goto	l9481
 10730   002360                     u10600:
 10731   002360                     
 10732                           ;display.c: 110:                         dig[5] = 0xc0;
 10733   002360  0EC0               	movlw	192
 10734   002362  6E06               	movwf	(_dig+5)^0,c
 10735   002364                     l9481:
 10736   002364  0428               	decf	_deciSP^0,w,c
 10737   002366  A4D8               	btfss	status,2,c
 10738   002368  EFB8  F011         	goto	u10611
 10739   00236C  EFBA  F011         	goto	u10610
 10740   002370                     u10611:
 10741   002370  EFBC  F011         	goto	l9485
 10742   002374                     u10610:
 10743   002374                     
 10744                           ;display.c: 112:                         dig[5] = 0x92;
 10745   002374  0E92               	movlw	146
 10746   002376  6E06               	movwf	(_dig+5)^0,c
 10747   002378                     l9485:
 10748                           
 10749                           ;display.c: 114:                     enteSP = setPoint>>1;
 10750   002378  90D8               	bcf	status,0,c
 10751   00237A  3040               	rrcf	_setPoint^0,w,c
 10752   00237C  0100               	movlb	0	; () banked
 10753   00237E  6FD5               	movwf	_enteSP& (0+255),b
 10754   002380                     
 10755                           ; BSR set to: 0
 10756                           ;display.c: 115:                     convBCD(enteSP,3,4,0);
 10757   002380  0E03               	movlw	3
 10758   002382  6E51               	movwf	convBCD@dign^0,c
 10759   002384  0E04               	movlw	4
 10760   002386  6E52               	movwf	convBCD@dignn^0,c
 10761   002388  0E00               	movlw	0
 10762   00238A  6E53               	movwf	convBCD@puntoDec^0,c
 10763   00238C  51D5               	movf	_enteSP& (0+255),w,b
 10764   00238E  EC6C  F023         	call	_convBCD
 10765                           
 10766                           ;display.c: 116:                     }else{
 10767   002392  EF44  F012         	goto	l9529
 10768   002396                     l9489:
 10769                           
 10770                           ;display.c: 117:                         if((tecla == 0x01)||(tecla == 0x02)){
 10771   002396  043F               	decf	_tecla^0,w,c
 10772   002398  B4D8               	btfsc	status,2,c
 10773   00239A  EFD1  F011         	goto	u10621
 10774   00239E  EFD3  F011         	goto	u10620
 10775   0023A2                     u10621:
 10776   0023A2  EFDC  F011         	goto	l9493
 10777   0023A6                     u10620:
 10778   0023A6  0E02               	movlw	2
 10779   0023A8  183F               	xorwf	_tecla^0,w,c
 10780   0023AA  A4D8               	btfss	status,2,c
 10781   0023AC  EFDA  F011         	goto	u10631
 10782   0023B0  EFDC  F011         	goto	u10630
 10783   0023B4                     u10631:
 10784   0023B4  EFDF  F011         	goto	l1358
 10785   0023B8                     u10630:
 10786   0023B8                     l9493:
 10787                           
 10788                           ;display.c: 118:                             auxSetenFalla = 200;
 10789   0023B8  0EC8               	movlw	200
 10790   0023BA  0100               	movlb	0	; () banked
 10791   0023BC  6FD2               	movwf	_auxSetenFalla& (0+255),b
 10792   0023BE                     l1358:
 10793                           
 10794                           ;display.c: 120:                         if(auxSetenFalla > 0){
 10795   0023BE  0100               	movlb	0	; () banked
 10796   0023C0  51D2               	movf	_auxSetenFalla& (0+255),w,b
 10797   0023C2  B4D8               	btfsc	status,2,c
 10798   0023C4  EFE6  F011         	goto	u10641
 10799   0023C8  EFE8  F011         	goto	u10640
 10800   0023CC                     u10641:
 10801   0023CC  EF1A  F012         	goto	l9517
 10802   0023D0                     u10640:
 10803   0023D0                     
 10804                           ; BSR set to: 0
 10805                           ;display.c: 121:                             auxSetenFalla --;
 10806   0023D0  07D2               	decf	_auxSetenFalla& (0+255),f,b
 10807   0023D2                     
 10808                           ; BSR set to: 0
 10809                           ;display.c: 122:                             if(auxSetenFalla >200){
 10810   0023D2  0EC8               	movlw	200
 10811   0023D4  65D2               	cpfsgt	_auxSetenFalla& (0+255),b
 10812   0023D6  EFEF  F011         	goto	u10651
 10813   0023DA  EFF1  F011         	goto	u10650
 10814   0023DE                     u10651:
 10815   0023DE  EFF3  F011         	goto	l9501
 10816   0023E2                     u10650:
 10817   0023E2                     
 10818                           ; BSR set to: 0
 10819                           ;display.c: 123:                                 auxSetenFalla = 0;
 10820   0023E2  0E00               	movlw	0
 10821   0023E4  6FD2               	movwf	_auxSetenFalla& (0+255),b
 10822   0023E6                     l9501:
 10823                           
 10824                           ; BSR set to: 0
 10825                           ;display.c: 125:                             deciSP = setPoint & 0b00000001;
 10826   0023E6  5040               	movf	_setPoint^0,w,c
 10827   0023E8  0B01               	andlw	1
 10828   0023EA  6E28               	movwf	_deciSP^0,c
 10829   0023EC                     
 10830                           ; BSR set to: 0
 10831                           ;display.c: 126:                             tecla = 0x00;
 10832   0023EC  0E00               	movlw	0
 10833   0023EE  6E3F               	movwf	_tecla^0,c
 10834   0023F0                     
 10835                           ; BSR set to: 0
 10836                           ;display.c: 127:                     if(deciSP == 0){
 10837   0023F0  5028               	movf	_deciSP^0,w,c
 10838   0023F2  A4D8               	btfss	status,2,c
 10839   0023F4  EFFE  F011         	goto	u10661
 10840   0023F8  EF00  F012         	goto	u10660
 10841   0023FC                     u10661:
 10842   0023FC  EF02  F012         	goto	l9509
 10843   002400                     u10660:
 10844   002400                     
 10845                           ; BSR set to: 0
 10846                           ;display.c: 128:                         dig[5] = 0xc0;
 10847   002400  0EC0               	movlw	192
 10848   002402  6E06               	movwf	(_dig+5)^0,c
 10849   002404                     l9509:
 10850                           
 10851                           ; BSR set to: 0
 10852   002404  0428               	decf	_deciSP^0,w,c
 10853   002406  A4D8               	btfss	status,2,c
 10854   002408  EF08  F012         	goto	u10671
 10855   00240C  EF0A  F012         	goto	u10670
 10856   002410                     u10671:
 10857   002410  EF0C  F012         	goto	l9513
 10858   002414                     u10670:
 10859   002414                     
 10860                           ; BSR set to: 0
 10861                           ;display.c: 130:                         dig[5] = 0x92;
 10862   002414  0E92               	movlw	146
 10863   002416  6E06               	movwf	(_dig+5)^0,c
 10864   002418                     l9513:
 10865                           
 10866                           ; BSR set to: 0
 10867                           ;display.c: 132:                     enteSP = setPoint>>1;
 10868   002418  90D8               	bcf	status,0,c
 10869   00241A  3040               	rrcf	_setPoint^0,w,c
 10870   00241C  6FD5               	movwf	_enteSP& (0+255),b
 10871   00241E                     
 10872                           ; BSR set to: 0
 10873                           ;display.c: 133:                     convBCD(enteSP,3,4,0);
 10874   00241E  0E03               	movlw	3
 10875   002420  6E51               	movwf	convBCD@dign^0,c
 10876   002422  0E04               	movlw	4
 10877   002424  6E52               	movwf	convBCD@dignn^0,c
 10878   002426  0E00               	movlw	0
 10879   002428  6E53               	movwf	convBCD@puntoDec^0,c
 10880   00242A  51D5               	movf	_enteSP& (0+255),w,b
 10881   00242C  EC6C  F023         	call	_convBCD
 10882                           
 10883                           ;display.c: 134:                         }else{
 10884   002430  EF44  F012         	goto	l9529
 10885   002434                     l9517:
 10886                           
 10887                           ; BSR set to: 0
 10888                           ;display.c: 135:                         if(alarmaFxAlt == 1){
 10889   002434  0439               	decf	_alarmaFxAlt^0,w,c
 10890   002436  A4D8               	btfss	status,2,c
 10891   002438  EF20  F012         	goto	u10681
 10892   00243C  EF22  F012         	goto	u10680
 10893   002440                     u10681:
 10894   002440  EF28  F012         	goto	l9521
 10895   002444                     u10680:
 10896   002444                     
 10897                           ; BSR set to: 0
 10898                           ;display.c: 136:                             dig[3]=0x0e;
 10899   002444  0E0E               	movlw	14
 10900   002446  6E04               	movwf	(_dig+3)^0,c
 10901                           
 10902                           ;display.c: 137:                             dig[4]=0x88;
 10903   002448  0E88               	movlw	136
 10904   00244A  6E05               	movwf	(_dig+4)^0,c
 10905                           
 10906                           ;display.c: 138:                             dig[5]=0x47;
 10907   00244C  0E47               	movlw	71
 10908   00244E  6E06               	movwf	(_dig+5)^0,c
 10909   002450                     l9521:
 10910                           
 10911                           ; BSR set to: 0
 10912                           ;display.c: 140:                         if(alarmaFxBaj == 1){
 10913   002450  043B               	decf	_alarmaFxBaj^0,w,c
 10914   002452  A4D8               	btfss	status,2,c
 10915   002454  EF2E  F012         	goto	u10691
 10916   002458  EF30  F012         	goto	u10690
 10917   00245C                     u10691:
 10918   00245C  EF36  F012         	goto	l9525
 10919   002460                     u10690:
 10920   002460                     
 10921                           ; BSR set to: 0
 10922                           ;display.c: 141:                             dig[3]=0x0e;
 10923   002460  0E0E               	movlw	14
 10924   002462  6E04               	movwf	(_dig+3)^0,c
 10925                           
 10926                           ;display.c: 142:                             dig[4]=0x83;
 10927   002464  0E83               	movlw	131
 10928   002466  6E05               	movwf	(_dig+4)^0,c
 10929                           
 10930                           ;display.c: 143:                             dig[5]=0xa0;
 10931   002468  0EA0               	movlw	160
 10932   00246A  6E06               	movwf	(_dig+5)^0,c
 10933   00246C                     l9525:
 10934                           
 10935                           ; BSR set to: 0
 10936                           ;display.c: 145:                         if(alarmaFxSen == 1){
 10937   00246C  043D               	decf	_alarmaFxSen^0,w,c
 10938   00246E  A4D8               	btfss	status,2,c
 10939   002470  EF3C  F012         	goto	u10701
 10940   002474  EF3E  F012         	goto	u10700
 10941   002478                     u10701:
 10942   002478  EF44  F012         	goto	l9529
 10943   00247C                     u10700:
 10944   00247C                     
 10945                           ; BSR set to: 0
 10946                           ;display.c: 146:                             dig[3]=0x0e;
 10947   00247C  0E0E               	movlw	14
 10948   00247E  6E04               	movwf	(_dig+3)^0,c
 10949                           
 10950                           ;display.c: 147:                             dig[4]=0x92;
 10951   002480  0E92               	movlw	146
 10952   002482  6E05               	movwf	(_dig+4)^0,c
 10953                           
 10954                           ;display.c: 148:                             dig[5]=0x2b;
 10955   002484  0E2B               	movlw	43
 10956   002486  6E06               	movwf	(_dig+5)^0,c
 10957   002488                     l9529:
 10958                           
 10959                           ;display.c: 156:                     convBCD(salPotencia,7,8,0);
 10960   002488  0E07               	movlw	7
 10961   00248A  6E51               	movwf	convBCD@dign^0,c
 10962   00248C  0E08               	movlw	8
 10963   00248E  6E52               	movwf	convBCD@dignn^0,c
 10964   002490  0E00               	movlw	0
 10965   002492  6E53               	movwf	convBCD@puntoDec^0,c
 10966   002494  500B               	movf	_salPotencia^0,w,c
 10967   002496  EC6C  F023         	call	_convBCD
 10968   00249A                     l9531:
 10969                           
 10970                           ;display.c: 159:             if(CTRauto == 1){
 10971   00249A  043E               	decf	_CTRauto^0,w,c
 10972   00249C  A4D8               	btfss	status,2,c
 10973   00249E  EF53  F012         	goto	u10711
 10974   0024A2  EF55  F012         	goto	u10710
 10975   0024A6                     u10711:
 10976   0024A6  EF2E  F014         	goto	l9639
 10977   0024AA                     u10710:
 10978   0024AA                     
 10979                           ;display.c: 160:                     if(tempDecimal == 0){
 10980   0024AA  5036               	movf	_tempDecimal^0,w,c
 10981   0024AC  A4D8               	btfss	status,2,c
 10982   0024AE  EF5B  F012         	goto	u10721
 10983   0024B2  EF5D  F012         	goto	u10720
 10984   0024B6                     u10721:
 10985   0024B6  EF5F  F012         	goto	l9537
 10986   0024BA                     u10720:
 10987   0024BA                     
 10988                           ;display.c: 161:                         dig[2] = 0xc0;
 10989   0024BA  0EC0               	movlw	192
 10990   0024BC  6E03               	movwf	(_dig+2)^0,c
 10991   0024BE                     l9537:
 10992   0024BE  0436               	decf	_tempDecimal^0,w,c
 10993   0024C0  A4D8               	btfss	status,2,c
 10994   0024C2  EF65  F012         	goto	u10731
 10995   0024C6  EF67  F012         	goto	u10730
 10996   0024CA                     u10731:
 10997   0024CA  EF69  F012         	goto	l1371
 10998   0024CE                     u10730:
 10999   0024CE                     
 11000                           ;display.c: 163:                         dig[2] = 0x92;
 11001   0024CE  0E92               	movlw	146
 11002   0024D0  6E03               	movwf	(_dig+2)^0,c
 11003   0024D2                     l1371:
 11004                           
 11005                           ;display.c: 165:                     if(alarmaLectura == 0){
 11006   0024D2  0100               	movlb	0	; () banked
 11007   0024D4  51CE               	movf	_alarmaLectura& (0+255),w,b
 11008   0024D6  A4D8               	btfss	status,2,c
 11009   0024D8  EF70  F012         	goto	u10741
 11010   0024DC  EF72  F012         	goto	u10740
 11011   0024E0                     u10741:
 11012   0024E0  EFA3  F012         	goto	l9553
 11013   0024E4                     u10740:
 11014   0024E4                     
 11015                           ; BSR set to: 0
 11016                           ;display.c: 166:                         if(tempDisplay > 60){
 11017   0024E4  0E3C               	movlw	60
 11018   0024E6  6437               	cpfsgt	_tempDisplay^0,c
 11019   0024E8  EF78  F012         	goto	u10751
 11020   0024EC  EF7A  F012         	goto	u10750
 11021   0024F0                     u10751:
 11022   0024F0  EF98  F012         	goto	l9551
 11023   0024F4                     u10750:
 11024   0024F4                     
 11025                           ; BSR set to: 0
 11026                           ;display.c: 167:                             if(tempNeg == 0){
 11027   0024F4  5035               	movf	_tempNeg^0,w,c
 11028   0024F6  A4D8               	btfss	status,2,c
 11029   0024F8  EF80  F012         	goto	u10761
 11030   0024FC  EF82  F012         	goto	u10760
 11031   002500                     u10761:
 11032   002500  EF88  F012         	goto	l9547
 11033   002504                     u10760:
 11034   002504                     
 11035                           ; BSR set to: 0
 11036                           ;display.c: 168:                                 dig[0]=0xa3;
 11037   002504  0EA3               	movlw	163
 11038   002506  6E01               	movwf	_dig^0,c
 11039                           
 11040                           ;display.c: 169:                                 dig[1]=0xe3;
 11041   002508  0EE3               	movlw	227
 11042   00250A  6E02               	movwf	(_dig+1)^0,c
 11043                           
 11044                           ;display.c: 170:                                 dig[2]=0xc7;
 11045   00250C  0EC7               	movlw	199
 11046   00250E  6E03               	movwf	(_dig+2)^0,c
 11047   002510                     l9547:
 11048                           
 11049                           ; BSR set to: 0
 11050   002510  0435               	decf	_tempNeg^0,w,c
 11051   002512  A4D8               	btfss	status,2,c
 11052   002514  EF8E  F012         	goto	u10771
 11053   002518  EF90  F012         	goto	u10770
 11054   00251C                     u10771:
 11055   00251C  EFA9  F012         	goto	l1377
 11056   002520                     u10770:
 11057   002520                     
 11058                           ; BSR set to: 0
 11059                           ;display.c: 172:                                 dig[0]=0xa3;
 11060   002520  0EA3               	movlw	163
 11061   002522  6E01               	movwf	_dig^0,c
 11062                           
 11063                           ;display.c: 173:                                 dig[1]=0xe3;
 11064   002524  0EE3               	movlw	227
 11065   002526  6E02               	movwf	(_dig+1)^0,c
 11066                           
 11067                           ;display.c: 174:                                 dig[2]=0x8e;
 11068   002528  0E8E               	movlw	142
 11069   00252A  6E03               	movwf	(_dig+2)^0,c
 11070   00252C  EFA9  F012         	goto	l1377
 11071   002530                     l9551:
 11072                           
 11073                           ; BSR set to: 0
 11074                           ;display.c: 177:                             convBCD(tempDisplay,0,1,tempNeg);
 11075   002530  0E00               	movlw	0
 11076   002532  6E51               	movwf	convBCD@dign^0,c
 11077   002534  0E01               	movlw	1
 11078   002536  6E52               	movwf	convBCD@dignn^0,c
 11079   002538  C035  F053         	movff	_tempNeg,convBCD@puntoDec
 11080   00253C  5037               	movf	_tempDisplay^0,w,c
 11081   00253E  EC6C  F023         	call	_convBCD
 11082   002542  EFA9  F012         	goto	l1377
 11083   002546                     l9553:
 11084                           
 11085                           ; BSR set to: 0
 11086                           ;display.c: 180:                         dig[0]=0x84;
 11087   002546  0E84               	movlw	132
 11088   002548  6E01               	movwf	_dig^0,c
 11089                           
 11090                           ;display.c: 181:                         dig[1]=0xaf;
 11091   00254A  0EAF               	movlw	175
 11092   00254C  6E02               	movwf	(_dig+1)^0,c
 11093                           
 11094                           ;display.c: 182:                         dig[2]=0xaf;
 11095   00254E  0EAF               	movlw	175
 11096   002550  6E03               	movwf	(_dig+2)^0,c
 11097   002552                     l1377:
 11098                           
 11099                           ;display.c: 185:                 dig[3] = 0xc8;
 11100   002552  0EC8               	movlw	200
 11101   002554  6E04               	movwf	(_dig+3)^0,c
 11102                           
 11103                           ;display.c: 186:                 dig[4] = 0xa0;
 11104   002556  0EA0               	movlw	160
 11105   002558  6E05               	movwf	(_dig+4)^0,c
 11106                           
 11107                           ;display.c: 187:                 dig[5] = 0x2b;
 11108   00255A  0E2B               	movlw	43
 11109   00255C  6E06               	movwf	(_dig+5)^0,c
 11110   00255E                     
 11111                           ;display.c: 188:                 convBCD(setPotMan,7,8,0);
 11112   00255E  0E07               	movlw	7
 11113   002560  6E51               	movwf	convBCD@dign^0,c
 11114   002562  0E08               	movlw	8
 11115   002564  6E52               	movwf	convBCD@dignn^0,c
 11116   002566  0E00               	movlw	0
 11117   002568  6E53               	movwf	convBCD@puntoDec^0,c
 11118   00256A  5033               	movf	_setPotMan^0,w,c
 11119   00256C  EC6C  F023         	call	_convBCD
 11120   002570  EF2E  F014         	goto	l9639
 11121   002574                     l9557:
 11122                           
 11123                           ; BSR set to: 0
 11124                           ;display.c: 193:             resetWatch = 0;
 11125   002574  0E00               	movlw	0
 11126   002576  6F9F               	movwf	(_resetWatch+1)& (0+255),b
 11127   002578  0E00               	movlw	0
 11128   00257A  6F9E               	movwf	_resetWatch& (0+255),b
 11129                           
 11130                           ;display.c: 194:             dig[0]=0x12;
 11131   00257C  0E12               	movlw	18
 11132   00257E  6E01               	movwf	_dig^0,c
 11133                           
 11134                           ;display.c: 195:             dig[1]=0x0c;
 11135   002580  0E0C               	movlw	12
 11136   002582  6E02               	movwf	(_dig+1)^0,c
 11137                           
 11138                           ;display.c: 196:             dig[2]=0x0e;
 11139   002584  0E0E               	movlw	14
 11140   002586  6E03               	movwf	(_dig+2)^0,c
 11141                           
 11142                           ;display.c: 197:             dig[3]=0x83;
 11143   002588  0E83               	movlw	131
 11144   00258A  6E04               	movwf	(_dig+3)^0,c
 11145                           
 11146                           ;display.c: 198:             dig[4]=0xa0;
 11147   00258C  0EA0               	movlw	160
 11148   00258E  6E05               	movwf	(_dig+4)^0,c
 11149                           
 11150                           ;display.c: 199:             dig[5]=0x60;
 11151   002590  0E60               	movlw	96
 11152   002592  6E06               	movwf	(_dig+5)^0,c
 11153   002594                     
 11154                           ; BSR set to: 0
 11155                           ;display.c: 201:             convBCD(SPFxBaj,7,8,0);
 11156   002594  0E07               	movlw	7
 11157   002596  6E51               	movwf	convBCD@dign^0,c
 11158   002598  0E08               	movlw	8
 11159   00259A  6E52               	movwf	convBCD@dignn^0,c
 11160   00259C  0E00               	movlw	0
 11161   00259E  6E53               	movwf	convBCD@puntoDec^0,c
 11162   0025A0  503A               	movf	_SPFxBaj^0,w,c
 11163   0025A2  EC6C  F023         	call	_convBCD
 11164                           
 11165                           ;display.c: 203:         break;
 11166   0025A6  EF2E  F014         	goto	l9639
 11167   0025AA                     l9561:
 11168                           
 11169                           ; BSR set to: 0
 11170                           ;display.c: 207:             resetWatch = 0;
 11171   0025AA  0E00               	movlw	0
 11172   0025AC  6F9F               	movwf	(_resetWatch+1)& (0+255),b
 11173   0025AE  0E00               	movlw	0
 11174   0025B0  6F9E               	movwf	_resetWatch& (0+255),b
 11175                           
 11176                           ;display.c: 208:             dig[0]=0x12;
 11177   0025B2  0E12               	movlw	18
 11178   0025B4  6E01               	movwf	_dig^0,c
 11179                           
 11180                           ;display.c: 209:             dig[1]=0x0c;
 11181   0025B6  0E0C               	movlw	12
 11182   0025B8  6E02               	movwf	(_dig+1)^0,c
 11183                           
 11184                           ;display.c: 210:             dig[2]=0x0e;
 11185   0025BA  0E0E               	movlw	14
 11186   0025BC  6E03               	movwf	(_dig+2)^0,c
 11187                           
 11188                           ;display.c: 211:             dig[3]=0x88;
 11189   0025BE  0E88               	movlw	136
 11190   0025C0  6E04               	movwf	(_dig+3)^0,c
 11191                           
 11192                           ;display.c: 212:             dig[4]=0xc7;
 11193   0025C2  0EC7               	movlw	199
 11194   0025C4  6E05               	movwf	(_dig+4)^0,c
 11195                           
 11196                           ;display.c: 213:             dig[5]=0x07;
 11197   0025C6  0E07               	movlw	7
 11198   0025C8  6E06               	movwf	(_dig+5)^0,c
 11199   0025CA                     
 11200                           ; BSR set to: 0
 11201                           ;display.c: 215:             convBCD(SPFxAlt,7,8,0);
 11202   0025CA  0E07               	movlw	7
 11203   0025CC  6E51               	movwf	convBCD@dign^0,c
 11204   0025CE  0E08               	movlw	8
 11205   0025D0  6E52               	movwf	convBCD@dignn^0,c
 11206   0025D2  0E00               	movlw	0
 11207   0025D4  6E53               	movwf	convBCD@puntoDec^0,c
 11208   0025D6  5038               	movf	_SPFxAlt^0,w,c
 11209   0025D8  EC6C  F023         	call	_convBCD
 11210                           
 11211                           ;display.c: 217:         break;
 11212   0025DC  EF2E  F014         	goto	l9639
 11213   0025E0                     l9565:
 11214                           
 11215                           ; BSR set to: 0
 11216                           ;display.c: 221:             resetWatch = 0;
 11217   0025E0  0E00               	movlw	0
 11218   0025E2  6F9F               	movwf	(_resetWatch+1)& (0+255),b
 11219   0025E4  0E00               	movlw	0
 11220   0025E6  6F9E               	movwf	_resetWatch& (0+255),b
 11221                           
 11222                           ;display.c: 222:             dig[0]=0x12;
 11223   0025E8  0E12               	movlw	18
 11224   0025EA  6E01               	movwf	_dig^0,c
 11225                           
 11226                           ;display.c: 223:             dig[1]=0x0c;
 11227   0025EC  0E0C               	movlw	12
 11228   0025EE  6E02               	movwf	(_dig+1)^0,c
 11229                           
 11230                           ;display.c: 224:             dig[2]=0x0e;
 11231   0025F0  0E0E               	movlw	14
 11232   0025F2  6E03               	movwf	(_dig+2)^0,c
 11233                           
 11234                           ;display.c: 225:             dig[3]=0x92;
 11235   0025F4  0E92               	movlw	146
 11236   0025F6  6E04               	movwf	(_dig+3)^0,c
 11237                           
 11238                           ;display.c: 226:             dig[4]=0x84;
 11239   0025F8  0E84               	movlw	132
 11240   0025FA  6E05               	movwf	(_dig+4)^0,c
 11241                           
 11242                           ;display.c: 227:             dig[5]=0x2b;
 11243   0025FC  0E2B               	movlw	43
 11244   0025FE  6E06               	movwf	(_dig+5)^0,c
 11245   002600                     
 11246                           ; BSR set to: 0
 11247                           ;display.c: 229:             convBCD(SPFxSen,7,8,0);
 11248   002600  0E07               	movlw	7
 11249   002602  6E51               	movwf	convBCD@dign^0,c
 11250   002604  0E08               	movlw	8
 11251   002606  6E52               	movwf	convBCD@dignn^0,c
 11252   002608  0E00               	movlw	0
 11253   00260A  6E53               	movwf	convBCD@puntoDec^0,c
 11254   00260C  503C               	movf	_SPFxSen^0,w,c
 11255   00260E  EC6C  F023         	call	_convBCD
 11256                           
 11257                           ;display.c: 231:         break;
 11258   002612  EF2E  F014         	goto	l9639
 11259   002616                     l9569:
 11260                           
 11261                           ; BSR set to: 0
 11262                           ;display.c: 235:             resetWatch = 0;
 11263   002616  0E00               	movlw	0
 11264   002618  6F9F               	movwf	(_resetWatch+1)& (0+255),b
 11265   00261A  0E00               	movlw	0
 11266   00261C  6F9E               	movwf	_resetWatch& (0+255),b
 11267                           
 11268                           ;display.c: 236:             dig[0]=0xC6;
 11269   00261E  0EC6               	movlw	198
 11270   002620  6E01               	movwf	_dig^0,c
 11271                           
 11272                           ;display.c: 237:             dig[1]=0x87;
 11273   002622  0E87               	movlw	135
 11274   002624  6E02               	movwf	(_dig+1)^0,c
 11275                           
 11276                           ;display.c: 238:             dig[2]=0x2f;
 11277   002626  0E2F               	movlw	47
 11278   002628  6E03               	movwf	(_dig+2)^0,c
 11279                           
 11280                           ;display.c: 239:             dig[3]=0x88;
 11281   00262A  0E88               	movlw	136
 11282   00262C  6E04               	movwf	(_dig+3)^0,c
 11283                           
 11284                           ;display.c: 240:             dig[4]=0xe3;
 11285   00262E  0EE3               	movlw	227
 11286   002630  6E05               	movwf	(_dig+4)^0,c
 11287                           
 11288                           ;display.c: 241:             dig[5]=0x07;
 11289   002632  0E07               	movlw	7
 11290   002634  6E06               	movwf	(_dig+5)^0,c
 11291                           
 11292                           ;display.c: 243:             if(CTRauto == 0){
 11293   002636  503E               	movf	_CTRauto^0,w,c
 11294   002638  A4D8               	btfss	status,2,c
 11295   00263A  EF21  F013         	goto	u10781
 11296   00263E  EF23  F013         	goto	u10780
 11297   002642                     u10781:
 11298   002642  EF27  F013         	goto	l9573
 11299   002646                     u10780:
 11300   002646                     
 11301                           ; BSR set to: 0
 11302                           ;display.c: 244:                 dig[7]=0x92;
 11303   002646  0E92               	movlw	146
 11304   002648  6E08               	movwf	(_dig+7)^0,c
 11305                           
 11306                           ;display.c: 245:                 dig[8]=0xcf;
 11307   00264A  0ECF               	movlw	207
 11308   00264C  6E09               	movwf	(_dig+8)^0,c
 11309   00264E                     l9573:
 11310                           
 11311                           ; BSR set to: 0
 11312   00264E  043E               	decf	_CTRauto^0,w,c
 11313   002650  A4D8               	btfss	status,2,c
 11314   002652  EF2D  F013         	goto	u10791
 11315   002656  EF2F  F013         	goto	u10790
 11316   00265A                     u10791:
 11317   00265A  EF2E  F014         	goto	l9639
 11318   00265E                     u10790:
 11319   00265E                     l9575:
 11320                           
 11321                           ; BSR set to: 0
 11322                           ;display.c: 247:                 dig[7]=0xab;
 11323   00265E  0EAB               	movlw	171
 11324   002660  6E08               	movwf	(_dig+7)^0,c
 11325                           
 11326                           ;display.c: 248:                 dig[8]=0xa3;
 11327   002662  0EA3               	movlw	163
 11328   002664  6E09               	movwf	(_dig+8)^0,c
 11329   002666  EF2E  F014         	goto	l9639
 11330   00266A                     l9577:
 11331                           
 11332                           ; BSR set to: 0
 11333                           ;display.c: 254:             resetWatch = 0;
 11334   00266A  0E00               	movlw	0
 11335   00266C  6F9F               	movwf	(_resetWatch+1)& (0+255),b
 11336   00266E  0E00               	movlw	0
 11337   002670  6F9E               	movwf	_resetWatch& (0+255),b
 11338                           
 11339                           ;display.c: 255:             dig[0]=0x8c;
 11340   002672  0E8C               	movlw	140
 11341   002674  6E01               	movwf	_dig^0,c
 11342                           
 11343                           ;display.c: 256:             dig[1]=0xa3;
 11344   002676  0EA3               	movlw	163
 11345   002678  6E02               	movwf	(_dig+1)^0,c
 11346                           
 11347                           ;display.c: 257:             dig[2]=0x07;
 11348   00267A  0E07               	movlw	7
 11349   00267C  6E03               	movwf	(_dig+2)^0,c
 11350                           
 11351                           ;display.c: 258:             dig[3]=0xc8;
 11352   00267E  0EC8               	movlw	200
 11353   002680  6E04               	movwf	(_dig+3)^0,c
 11354                           
 11355                           ;display.c: 259:             dig[4]=0xa0;
 11356   002682  0EA0               	movlw	160
 11357   002684  6E05               	movwf	(_dig+4)^0,c
 11358                           
 11359                           ;display.c: 260:             dig[5]=0x2b;
 11360   002686  0E2B               	movlw	43
 11361   002688  6E06               	movwf	(_dig+5)^0,c
 11362   00268A                     
 11363                           ; BSR set to: 0
 11364                           ;display.c: 262:             convBCD(setPotMan,7,8,0);
 11365   00268A  0E07               	movlw	7
 11366   00268C  6E51               	movwf	convBCD@dign^0,c
 11367   00268E  0E08               	movlw	8
 11368   002690  6E52               	movwf	convBCD@dignn^0,c
 11369   002692  0E00               	movlw	0
 11370   002694  6E53               	movwf	convBCD@puntoDec^0,c
 11371   002696  5033               	movf	_setPotMan^0,w,c
 11372   002698  EC6C  F023         	call	_convBCD
 11373                           
 11374                           ;display.c: 264:         break;
 11375   00269C  EF2E  F014         	goto	l9639
 11376   0026A0                     l9581:
 11377                           
 11378                           ; BSR set to: 0
 11379                           ;display.c: 267:             resetWatch = 0;
 11380   0026A0  0E00               	movlw	0
 11381   0026A2  6F9F               	movwf	(_resetWatch+1)& (0+255),b
 11382   0026A4  0E00               	movlw	0
 11383   0026A6  6F9E               	movwf	_resetWatch& (0+255),b
 11384                           
 11385                           ;display.c: 268:             dig[0]=0xa3;
 11386   0026A8  0EA3               	movlw	163
 11387   0026AA  6E01               	movwf	_dig^0,c
 11388                           
 11389                           ;display.c: 269:             dig[1]=0x8e;
 11390   0026AC  0E8E               	movlw	142
 11391   0026AE  6E02               	movwf	(_dig+1)^0,c
 11392                           
 11393                           ;display.c: 270:             dig[2]=0x8e;
 11394   0026B0  0E8E               	movlw	142
 11395   0026B2  6E03               	movwf	(_dig+2)^0,c
 11396   0026B4                     
 11397                           ; BSR set to: 0
 11398                           ;display.c: 272:             if((offSet > 19)&&(offSet < 41)){
 11399   0026B4  0E13               	movlw	19
 11400   0026B6  642F               	cpfsgt	_offSet^0,c
 11401   0026B8  EF60  F013         	goto	u10801
 11402   0026BC  EF62  F013         	goto	u10800
 11403   0026C0                     u10801:
 11404   0026C0  EF90  F013         	goto	l9601
 11405   0026C4                     u10800:
 11406   0026C4                     
 11407                           ; BSR set to: 0
 11408   0026C4  0E29               	movlw	41
 11409   0026C6  602F               	cpfslt	_offSet^0,c
 11410   0026C8  EF68  F013         	goto	u10811
 11411   0026CC  EF6A  F013         	goto	u10810
 11412   0026D0                     u10811:
 11413   0026D0  EF90  F013         	goto	l9601
 11414   0026D4                     u10810:
 11415   0026D4                     
 11416                           ; BSR set to: 0
 11417                           ;display.c: 273:                 OFFSet = offSet-20;
 11418   0026D4  502F               	movf	_offSet^0,w,c
 11419   0026D6  0FEC               	addlw	236
 11420   0026D8  6E27               	movwf	_OFFSet^0,c
 11421                           
 11422                           ;display.c: 274:             decimalOffSet = OFFSet & 0x01;
 11423   0026DA  5027               	movf	_OFFSet^0,w,c
 11424   0026DC  0B01               	andlw	1
 11425   0026DE  6FD3               	movwf	_decimalOffSet& (0+255),b
 11426   0026E0                     
 11427                           ; BSR set to: 0
 11428                           ;display.c: 275:                 if(decimalOffSet == 0){
 11429   0026E0  51D3               	movf	_decimalOffSet& (0+255),w,b
 11430   0026E2  A4D8               	btfss	status,2,c
 11431   0026E4  EF76  F013         	goto	u10821
 11432   0026E8  EF78  F013         	goto	u10820
 11433   0026EC                     u10821:
 11434   0026EC  EF7A  F013         	goto	l9593
 11435   0026F0                     u10820:
 11436   0026F0                     
 11437                           ; BSR set to: 0
 11438                           ;display.c: 276:                     dig[5] = 0xc0;
 11439   0026F0  0EC0               	movlw	192
 11440   0026F2  6E06               	movwf	(_dig+5)^0,c
 11441   0026F4                     l9593:
 11442                           
 11443                           ; BSR set to: 0
 11444   0026F4  05D3               	decf	_decimalOffSet& (0+255),w,b
 11445   0026F6  A4D8               	btfss	status,2,c
 11446   0026F8  EF80  F013         	goto	u10831
 11447   0026FC  EF82  F013         	goto	u10830
 11448   002700                     u10831:
 11449   002700  EF84  F013         	goto	l9597
 11450   002704                     u10830:
 11451   002704                     
 11452                           ; BSR set to: 0
 11453                           ;display.c: 278:                         dig[5] = 0x92;
 11454   002704  0E92               	movlw	146
 11455   002706  6E06               	movwf	(_dig+5)^0,c
 11456   002708                     l9597:
 11457                           
 11458                           ; BSR set to: 0
 11459                           ;display.c: 280:                 OFFSet = OFFSet >> 1 ;
 11460   002708  90D8               	bcf	status,0,c
 11461   00270A  3027               	rrcf	_OFFSet^0,w,c
 11462   00270C  6E27               	movwf	_OFFSet^0,c
 11463   00270E                     
 11464                           ; BSR set to: 0
 11465                           ;display.c: 281:                 convBCD(OFFSet,3,4,0) ;
 11466   00270E  0E03               	movlw	3
 11467   002710  6E51               	movwf	convBCD@dign^0,c
 11468   002712  0E04               	movlw	4
 11469   002714  6E52               	movwf	convBCD@dignn^0,c
 11470   002716  0E00               	movlw	0
 11471   002718  6E53               	movwf	convBCD@puntoDec^0,c
 11472   00271A  5027               	movf	_OFFSet^0,w,c
 11473   00271C  EC6C  F023         	call	_convBCD
 11474   002720                     l9601:
 11475                           
 11476                           ;display.c: 283:          if((offSet < 20)&&(offSet < 41)){
 11477   002720  0E14               	movlw	20
 11478   002722  602F               	cpfslt	_offSet^0,c
 11479   002724  EF96  F013         	goto	u10841
 11480   002728  EF98  F013         	goto	u10840
 11481   00272C                     u10841:
 11482   00272C  EFBB  F013         	goto	l9611
 11483   002730                     u10840:
 11484   002730  0E29               	movlw	41
 11485   002732  602F               	cpfslt	_offSet^0,c
 11486   002734  EF9E  F013         	goto	u10851
 11487   002738  EFA0  F013         	goto	u10850
 11488   00273C                     u10851:
 11489   00273C  EFBB  F013         	goto	l9611
 11490   002740                     u10850:
 11491   002740                     
 11492                           ;display.c: 284:                   OFFSet = (20 - offSet)>>1 ;
 11493   002740  0E14               	movlw	20
 11494   002742  0100               	movlb	0	; () banked
 11495   002744  6FE3               	movwf	??_display& (0+255),b
 11496   002746  0E00               	movlw	0
 11497   002748  6FE4               	movwf	(??_display+1)& (0+255),b
 11498   00274A  502F               	movf	_offSet^0,w,c
 11499   00274C  5FE3               	subwf	??_display& (0+255),f,b
 11500   00274E  0E00               	movlw	0
 11501   002750  5BE4               	subwfb	(??_display+1)& (0+255),f,b
 11502   002752  35E4               	rlcf	(??_display+1)& (0+255),w,b
 11503   002754  31E4               	rrcf	(??_display+1)& (0+255),w,b
 11504   002756  6FE6               	movwf	(??_display+3)& (0+255),b
 11505   002758  31E3               	rrcf	??_display& (0+255),w,b
 11506   00275A  6FE5               	movwf	(??_display+2)& (0+255),b
 11507   00275C  51E5               	movf	(??_display+2)& (0+255),w,b
 11508   00275E  6E27               	movwf	_OFFSet^0,c
 11509   002760                     
 11510                           ; BSR set to: 0
 11511                           ;display.c: 285:                   convBCD(OFFSet,4,5,0);
 11512   002760  0E04               	movlw	4
 11513   002762  6E51               	movwf	convBCD@dign^0,c
 11514   002764  0E05               	movlw	5
 11515   002766  6E52               	movwf	convBCD@dignn^0,c
 11516   002768  0E00               	movlw	0
 11517   00276A  6E53               	movwf	convBCD@puntoDec^0,c
 11518   00276C  5027               	movf	_OFFSet^0,w,c
 11519   00276E  EC6C  F023         	call	_convBCD
 11520   002772                     
 11521                           ;display.c: 286:                   dig[3] = 0xBF;
 11522   002772  0EBF               	movlw	191
 11523   002774  6E04               	movwf	(_dig+3)^0,c
 11524   002776                     l9611:
 11525                           
 11526                           ;display.c: 288:             dig[7]=0xff;
 11527   002776  6808               	setf	(_dig+7)^0,c
 11528   002778                     
 11529                           ;display.c: 289:             dig[8]=0xff;
 11530   002778  6809               	setf	(_dig+8)^0,c
 11531                           
 11532                           ;display.c: 290:             break;
 11533   00277A  EF2E  F014         	goto	l9639
 11534   00277E                     l9615:
 11535                           
 11536                           ; BSR set to: 0
 11537                           ;display.c: 294:             resetWatch = 0;
 11538   00277E  0E00               	movlw	0
 11539   002780  6F9F               	movwf	(_resetWatch+1)& (0+255),b
 11540   002782  0E00               	movlw	0
 11541   002784  6F9E               	movwf	_resetWatch& (0+255),b
 11542                           
 11543                           ;display.c: 295:             dig[0]=0xa1;
 11544   002786  0EA1               	movlw	161
 11545   002788  6E01               	movwf	_dig^0,c
 11546                           
 11547                           ;display.c: 296:             dig[1]=0x84;
 11548   00278A  0E84               	movlw	132
 11549   00278C  6E02               	movwf	(_dig+1)^0,c
 11550                           
 11551                           ;display.c: 297:             dig[2]=0x8e;
 11552   00278E  0E8E               	movlw	142
 11553   002790  6E03               	movwf	(_dig+2)^0,c
 11554                           
 11555                           ;display.c: 298:             dig[3]=0xa0;
 11556   002792  0EA0               	movlw	160
 11557   002794  6E04               	movwf	(_dig+3)^0,c
 11558                           
 11559                           ;display.c: 299:             dig[4]=0xe3;
 11560   002796  0EE3               	movlw	227
 11561   002798  6E05               	movwf	(_dig+4)^0,c
 11562                           
 11563                           ;display.c: 300:             dig[5]=0x47;
 11564   00279A  0E47               	movlw	71
 11565   00279C  6E06               	movwf	(_dig+5)^0,c
 11566   00279E                     
 11567                           ; BSR set to: 0
 11568                           ;display.c: 302:             if(setDefault == 1){
 11569   00279E  042E               	decf	_setDefault^0,w,c
 11570   0027A0  A4D8               	btfss	status,2,c
 11571   0027A2  EFD5  F013         	goto	u10861
 11572   0027A6  EFD7  F013         	goto	u10860
 11573   0027AA                     u10861:
 11574   0027AA  EFDB  F013         	goto	l1392
 11575   0027AE                     u10860:
 11576   0027AE                     
 11577                           ; BSR set to: 0
 11578                           ;display.c: 303:                 dig[7]=0x92;
 11579   0027AE  0E92               	movlw	146
 11580   0027B0  6E08               	movwf	(_dig+7)^0,c
 11581                           
 11582                           ;display.c: 304:                 dig[8]=0xcf;
 11583   0027B2  0ECF               	movlw	207
 11584   0027B4  6E09               	movwf	(_dig+8)^0,c
 11585   0027B6                     l1392:
 11586                           
 11587                           ; BSR set to: 0
 11588   0027B6  502E               	movf	_setDefault^0,w,c
 11589   0027B8  A4D8               	btfss	status,2,c
 11590   0027BA  EFE1  F013         	goto	u10871
 11591   0027BE  EFE3  F013         	goto	u10870
 11592   0027C2                     u10871:
 11593   0027C2  EF2E  F014         	goto	l9639
 11594   0027C6                     u10870:
 11595   0027C6  EF2F  F013         	goto	l9575
 11596   0027CA                     l9623:
 11597                           
 11598                           ; BSR set to: 0
 11599                           ;display.c: 312:             resetWatch = 0;
 11600   0027CA  0E00               	movlw	0
 11601   0027CC  6F9F               	movwf	(_resetWatch+1)& (0+255),b
 11602   0027CE  0E00               	movlw	0
 11603   0027D0  6F9E               	movwf	_resetWatch& (0+255),b
 11604                           
 11605                           ;display.c: 313:             dig[0]=0x8c;
 11606   0027D2  0E8C               	movlw	140
 11607   0027D4  6E01               	movwf	_dig^0,c
 11608                           
 11609                           ;display.c: 314:             dig[1]=0xa0;
 11610   0027D6  0EA0               	movlw	160
 11611   0027D8  6E02               	movwf	(_dig+1)^0,c
 11612                           
 11613                           ;display.c: 315:             dig[2]=0x92;
 11614   0027DA  0E92               	movlw	146
 11615   0027DC  6E03               	movwf	(_dig+2)^0,c
 11616   0027DE                     
 11617                           ; BSR set to: 0
 11618                           ;display.c: 316:             dig[3]= conv7Seg(pass0);
 11619   0027DE  502C               	movf	_pass0^0,w,c
 11620   0027E0  EC41  F021         	call	_conv7Seg
 11621   0027E4  6E04               	movwf	(_dig+3)^0,c
 11622   0027E6                     
 11623                           ;display.c: 317:             dig[4]= conv7Seg(pass1);
 11624   0027E6  502B               	movf	_pass1^0,w,c
 11625   0027E8  EC41  F021         	call	_conv7Seg
 11626   0027EC  6E05               	movwf	(_dig+4)^0,c
 11627   0027EE                     
 11628                           ;display.c: 318:             dig[5]= conv7Seg(pass2);
 11629   0027EE  502A               	movf	_pass2^0,w,c
 11630   0027F0  EC41  F021         	call	_conv7Seg
 11631   0027F4  6E06               	movwf	(_dig+5)^0,c
 11632   0027F6  EFBB  F013         	goto	l9611
 11633   0027FA                     l9637:
 11634                           
 11635                           ; BSR set to: 0
 11636   0027FA  5030               	movf	_selMenu^0,w,c
 11637   0027FC  6FE3               	movwf	??_display& (0+255),b
 11638   0027FE  6BE4               	clrf	(??_display+1)& (0+255),b
 11639                           
 11640                           ; Switch on 2 bytes has been partitioned into a top level switch of size 1, and 1 sub-sw
      +                          itches
 11641                           ; Switch size 1, requested type "simple"
 11642                           ; Number of cases is 1, Range of values is 0 to 0
 11643                           ; switch strategies available:
 11644                           ; Name         Instructions Cycles
 11645                           ; simple_byte            4     3 (average)
 11646                           ;	Chosen strategy is simple_byte
 11647   002800  51E4               	movf	(??_display+1)& (0+255),w,b
 11648   002802  0A00               	xorlw	0	; case 0
 11649   002804  B4D8               	btfsc	status,2,c
 11650   002806  EF07  F014         	goto	l10339
 11651   00280A  EF2E  F014         	goto	l9639
 11652   00280E                     l10339:
 11653                           
 11654                           ; BSR set to: 0
 11655                           ; Switch size 1, requested type "simple"
 11656                           ; Number of cases is 9, Range of values is 0 to 8
 11657                           ; switch strategies available:
 11658                           ; Name         Instructions Cycles
 11659                           ; simple_byte           28    15 (average)
 11660                           ;	Chosen strategy is simple_byte
 11661   00280E  51E3               	movf	??_display& (0+255),w,b
 11662   002810  0A00               	xorlw	0	; case 0
 11663   002812  B4D8               	btfsc	status,2,c
 11664   002814  EF28  F011         	goto	l9445
 11665   002818  0A01               	xorlw	1	; case 1
 11666   00281A  B4D8               	btfsc	status,2,c
 11667   00281C  EFBA  F012         	goto	l9557
 11668   002820  0A03               	xorlw	3	; case 2
 11669   002822  B4D8               	btfsc	status,2,c
 11670   002824  EFD5  F012         	goto	l9561
 11671   002828  0A01               	xorlw	1	; case 3
 11672   00282A  B4D8               	btfsc	status,2,c
 11673   00282C  EFF0  F012         	goto	l9565
 11674   002830  0A07               	xorlw	7	; case 4
 11675   002832  B4D8               	btfsc	status,2,c
 11676   002834  EF0B  F013         	goto	l9569
 11677   002838  0A01               	xorlw	1	; case 5
 11678   00283A  B4D8               	btfsc	status,2,c
 11679   00283C  EF35  F013         	goto	l9577
 11680   002840  0A03               	xorlw	3	; case 6
 11681   002842  B4D8               	btfsc	status,2,c
 11682   002844  EF50  F013         	goto	l9581
 11683   002848  0A01               	xorlw	1	; case 7
 11684   00284A  B4D8               	btfsc	status,2,c
 11685   00284C  EFBF  F013         	goto	l9615
 11686   002850  0A0F               	xorlw	15	; case 8
 11687   002852  B4D8               	btfsc	status,2,c
 11688   002854  EFE5  F013         	goto	l9623
 11689   002858  EF2E  F014         	goto	l9639
 11690   00285C                     l9639:
 11691                           
 11692                           ;display.c: 324:     resetWatch = 0;
 11693   00285C  0E00               	movlw	0
 11694   00285E  0100               	movlb	0	; () banked
 11695   002860  6F9F               	movwf	(_resetWatch+1)& (0+255),b
 11696   002862  0E00               	movlw	0
 11697   002864  6F9E               	movwf	_resetWatch& (0+255),b
 11698   002866                     
 11699                           ; BSR set to: 0
 11700   002866  0012               	return		;funcret
 11701   002868                     __end_of_display:
 11702                           	callstack 0
 11703                           
 11704 ;; *************** function _convBCD *****************
 11705 ;; Defined at:
 11706 ;;		line 60 in file "display.c"
 11707 ;; Parameters:    Size  Location     Type
 11708 ;;  bcd             1    wreg     unsigned char 
 11709 ;;  dign            1   16[COMRAM] unsigned char 
 11710 ;;  dignn           1   17[COMRAM] unsigned char 
 11711 ;;  puntoDec        1   18[COMRAM] unsigned char 
 11712 ;; Auto vars:     Size  Location     Type
 11713 ;;  bcd             1   19[COMRAM] unsigned char 
 11714 ;; Return value:  Size  Location     Type
 11715 ;;                  1    wreg      void 
 11716 ;; Registers used:
 11717 ;;		wreg, fsr1l, fsr1h, fsr2l, fsr2h, status,2, status,0, cstack
 11718 ;; Tracked objects:
 11719 ;;		On entry : 0/0
 11720 ;;		On exit  : 0/0
 11721 ;;		Unchanged: 0/0
 11722 ;; Data sizes:     COMRAM   BANK0   BANK1   BANK2   BANK3   BANK4   BANK5
 11723 ;;      Params:         3       0       0       0       0       0       0
 11724 ;;      Locals:         1       0       0       0       0       0       0
 11725 ;;      Temps:          0       0       0       0       0       0       0
 11726 ;;      Totals:         4       0       0       0       0       0       0
 11727 ;;Total ram usage:        4 bytes
 11728 ;; Hardware stack levels used: 1
 11729 ;; Hardware stack levels required when called: 3
 11730 ;; This function calls:
 11731 ;;		___awdiv
 11732 ;;		___awmod
 11733 ;;		_conv7Seg
 11734 ;; This function is called by:
 11735 ;;		_display
 11736 ;; This function uses a non-reentrant model
 11737 ;;
 11738                           
 11739                           	psect	text25
 11740   0046D8                     __ptext25:
 11741                           	callstack 0
 11742   0046D8                     _convBCD:
 11743                           	callstack 26
 11744                           
 11745                           ; BSR set to: 0
 11746                           ;incstack = 0
 11747                           ;convBCD@bcd stored from wreg
 11748   0046D8  6E54               	movwf	convBCD@bcd^0,c
 11749   0046DA                     
 11750                           ;display.c: 61:     dig0 = bcd/10;
 11751   0046DA  C054  F049         	movff	convBCD@bcd,___awdiv@dividend
 11752   0046DE  6A4A               	clrf	(___awdiv@dividend+1)^0,c
 11753   0046E0  0E00               	movlw	0
 11754   0046E2  6E4C               	movwf	(___awdiv@divisor+1)^0,c
 11755   0046E4  0E0A               	movlw	10
 11756   0046E6  6E4B               	movwf	___awdiv@divisor^0,c
 11757   0046E8  ECAE  F021         	call	___awdiv	;wreg free
 11758   0046EC  5049               	movf	?___awdiv^0,w,c
 11759   0046EE  0100               	movlb	0	; () banked
 11760   0046F0  6FD9               	movwf	_dig0& (0+255),b
 11761                           
 11762                           ;display.c: 62:     dig1 = bcd%10;
 11763   0046F2  C054  F049         	movff	convBCD@bcd,___awmod@dividend
 11764   0046F6  6A4A               	clrf	(___awmod@dividend+1)^0,c
 11765   0046F8  0E00               	movlw	0
 11766   0046FA  6E4C               	movwf	(___awmod@divisor+1)^0,c
 11767   0046FC  0E0A               	movlw	10
 11768   0046FE  6E4B               	movwf	___awmod@divisor^0,c
 11769   004700  ECC4  F022         	call	___awmod	;wreg free
 11770   004704  5049               	movf	?___awmod^0,w,c
 11771   004706  0100               	movlb	0	; () banked
 11772   004708  6FD8               	movwf	_dig1& (0+255),b
 11773   00470A                     
 11774                           ; BSR set to: 0
 11775                           ;display.c: 63:     dig[dign]=conv7Seg(dig0);
 11776   00470A  0E01               	movlw	low _dig
 11777   00470C  2451               	addwf	convBCD@dign^0,w,c
 11778   00470E  6ED9               	movwf	fsr2l,c
 11779   004710  6ADA               	clrf	fsr2h,c
 11780   004712  0E00               	movlw	high _dig
 11781   004714  22DA               	addwfc	fsr2h,f,c
 11782   004716  51D9               	movf	_dig0& (0+255),w,b
 11783   004718  EC41  F021         	call	_conv7Seg
 11784   00471C  6EDF               	movwf	indf2,c
 11785   00471E                     
 11786                           ;display.c: 64:     dig[dignn]=conv7Seg(dig1);
 11787   00471E  0E01               	movlw	low _dig
 11788   004720  2452               	addwf	convBCD@dignn^0,w,c
 11789   004722  6ED9               	movwf	fsr2l,c
 11790   004724  6ADA               	clrf	fsr2h,c
 11791   004726  0E00               	movlw	high _dig
 11792   004728  22DA               	addwfc	fsr2h,f,c
 11793   00472A  0100               	movlb	0	; () banked
 11794   00472C  51D8               	movf	_dig1& (0+255),w,b
 11795   00472E  EC41  F021         	call	_conv7Seg
 11796   004732  6EDF               	movwf	indf2,c
 11797   004734                     
 11798                           ;display.c: 65:     if(puntoDec == 0){
 11799   004734  5053               	movf	convBCD@puntoDec^0,w,c
 11800   004736  A4D8               	btfss	status,2,c
 11801   004738  EFA0  F023         	goto	u6231
 11802   00473C  EFA2  F023         	goto	u6230
 11803   004740                     u6231:
 11804   004740  EFB1  F023         	goto	l1339
 11805   004744                     u6230:
 11806   004744                     
 11807                           ;display.c: 66:         dig[dignn]=dig[dignn] - 0x80;
 11808   004744  0E01               	movlw	low _dig
 11809   004746  2452               	addwf	convBCD@dignn^0,w,c
 11810   004748  6ED9               	movwf	fsr2l,c
 11811   00474A  6ADA               	clrf	fsr2h,c
 11812   00474C  0E00               	movlw	high _dig
 11813   00474E  22DA               	addwfc	fsr2h,f,c
 11814   004750  0E01               	movlw	low _dig
 11815   004752  2452               	addwf	convBCD@dignn^0,w,c
 11816   004754  6EE1               	movwf	fsr1l,c
 11817   004756  6AE2               	clrf	fsr1h,c
 11818   004758  0E00               	movlw	high _dig
 11819   00475A  22E2               	addwfc	fsr1h,f,c
 11820   00475C  50E7               	movf	indf1,w,c
 11821   00475E  0F80               	addlw	128
 11822   004760  6EDF               	movwf	indf2,c
 11823   004762                     l1339:
 11824   004762  0012               	return		;funcret
 11825   004764                     __end_of_convBCD:
 11826                           	callstack 0
 11827                           
 11828 ;; *************** function _conv7Seg *****************
 11829 ;; Defined at:
 11830 ;;		line 15 in file "display.c"
 11831 ;; Parameters:    Size  Location     Type
 11832 ;;  dig             1    wreg     unsigned char 
 11833 ;; Auto vars:     Size  Location     Type
 11834 ;;  dig             1   10[COMRAM] unsigned char 
 11835 ;; Return value:  Size  Location     Type
 11836 ;;                  1    wreg      unsigned char 
 11837 ;; Registers used:
 11838 ;;		wreg, status,2, status,0
 11839 ;; Tracked objects:
 11840 ;;		On entry : 0/0
 11841 ;;		On exit  : 0/0
 11842 ;;		Unchanged: 0/0
 11843 ;; Data sizes:     COMRAM   BANK0   BANK1   BANK2   BANK3   BANK4   BANK5
 11844 ;;      Params:         0       0       0       0       0       0       0
 11845 ;;      Locals:         1       0       0       0       0       0       0
 11846 ;;      Temps:          2       0       0       0       0       0       0
 11847 ;;      Totals:         3       0       0       0       0       0       0
 11848 ;;Total ram usage:        3 bytes
 11849 ;; Hardware stack levels used: 1
 11850 ;; Hardware stack levels required when called: 2
 11851 ;; This function calls:
 11852 ;;		Nothing
 11853 ;; This function is called by:
 11854 ;;		_convBCD
 11855 ;;		_display
 11856 ;; This function uses a non-reentrant model
 11857 ;;
 11858                           
 11859                           	psect	text26
 11860   004282                     __ptext26:
 11861                           	callstack 0
 11862   004282                     _conv7Seg:
 11863                           	callstack 26
 11864                           
 11865                           ;incstack = 0
 11866                           ;conv7Seg@dig stored from wreg
 11867   004282  6E4B               	movwf	conv7Seg@dig^0,c
 11868   004284                     
 11869                           ;display.c: 16:     switch (dig) {
 11870   004284  EF76  F021         	goto	l6267
 11871   004288                     l6245:
 11872                           
 11873                           ;display.c: 18:             digito = 0xc0;
 11874   004288  0EC0               	movlw	192
 11875   00428A  0100               	movlb	0	; () banked
 11876   00428C  6FD7               	movwf	_digito& (0+255),b
 11877                           
 11878                           ;display.c: 19:             break;
 11879   00428E  EFAB  F021         	goto	l6269
 11880   004292                     l6247:
 11881                           
 11882                           ;display.c: 21:             digito = 0xf9;
 11883   004292  0EF9               	movlw	249
 11884   004294  0100               	movlb	0	; () banked
 11885   004296  6FD7               	movwf	_digito& (0+255),b
 11886                           
 11887                           ;display.c: 22:             break;
 11888   004298  EFAB  F021         	goto	l6269
 11889   00429C                     l6249:
 11890                           
 11891                           ;display.c: 25:             digito = 0xa4;
 11892   00429C  0EA4               	movlw	164
 11893   00429E  0100               	movlb	0	; () banked
 11894   0042A0  6FD7               	movwf	_digito& (0+255),b
 11895                           
 11896                           ;display.c: 26:             break;
 11897   0042A2  EFAB  F021         	goto	l6269
 11898   0042A6                     l6251:
 11899                           
 11900                           ;display.c: 29:             digito = 0xb0;
 11901   0042A6  0EB0               	movlw	176
 11902   0042A8  0100               	movlb	0	; () banked
 11903   0042AA  6FD7               	movwf	_digito& (0+255),b
 11904                           
 11905                           ;display.c: 30:             break;
 11906   0042AC  EFAB  F021         	goto	l6269
 11907   0042B0                     l6253:
 11908                           
 11909                           ;display.c: 33:             digito = 0x99;
 11910   0042B0  0E99               	movlw	153
 11911   0042B2  0100               	movlb	0	; () banked
 11912   0042B4  6FD7               	movwf	_digito& (0+255),b
 11913                           
 11914                           ;display.c: 34:             break;
 11915   0042B6  EFAB  F021         	goto	l6269
 11916   0042BA                     l6255:
 11917                           
 11918                           ;display.c: 37:             digito = 0x92;
 11919   0042BA  0E92               	movlw	146
 11920   0042BC  0100               	movlb	0	; () banked
 11921   0042BE  6FD7               	movwf	_digito& (0+255),b
 11922                           
 11923                           ;display.c: 38:             break;
 11924   0042C0  EFAB  F021         	goto	l6269
 11925   0042C4                     l6257:
 11926                           
 11927                           ;display.c: 41:             digito = 0x82;
 11928   0042C4  0E82               	movlw	130
 11929   0042C6  0100               	movlb	0	; () banked
 11930   0042C8  6FD7               	movwf	_digito& (0+255),b
 11931                           
 11932                           ;display.c: 42:             break;
 11933   0042CA  EFAB  F021         	goto	l6269
 11934   0042CE                     l6259:
 11935                           
 11936                           ;display.c: 45:             digito = 0xf8;
 11937   0042CE  0EF8               	movlw	248
 11938   0042D0  0100               	movlb	0	; () banked
 11939   0042D2  6FD7               	movwf	_digito& (0+255),b
 11940                           
 11941                           ;display.c: 46:             break;
 11942   0042D4  EFAB  F021         	goto	l6269
 11943   0042D8                     l6261:
 11944                           
 11945                           ;display.c: 49:             digito = 0x80;
 11946   0042D8  0E80               	movlw	128
 11947   0042DA  0100               	movlb	0	; () banked
 11948   0042DC  6FD7               	movwf	_digito& (0+255),b
 11949                           
 11950                           ;display.c: 50:             break;
 11951   0042DE  EFAB  F021         	goto	l6269
 11952   0042E2                     l6263:
 11953                           
 11954                           ;display.c: 53:             digito = 0x90;
 11955   0042E2  0E90               	movlw	144
 11956   0042E4  0100               	movlb	0	; () banked
 11957   0042E6  6FD7               	movwf	_digito& (0+255),b
 11958                           
 11959                           ;display.c: 54:             break;
 11960   0042E8  EFAB  F021         	goto	l6269
 11961   0042EC                     l6267:
 11962   0042EC  504B               	movf	conv7Seg@dig^0,w,c
 11963   0042EE  6E49               	movwf	??_conv7Seg^0,c
 11964   0042F0  6A4A               	clrf	(??_conv7Seg+1)^0,c
 11965                           
 11966                           ; Switch on 2 bytes has been partitioned into a top level switch of size 1, and 1 sub-sw
      +                          itches
 11967                           ; Switch size 1, requested type "simple"
 11968                           ; Number of cases is 1, Range of values is 0 to 0
 11969                           ; switch strategies available:
 11970                           ; Name         Instructions Cycles
 11971                           ; simple_byte            4     3 (average)
 11972                           ;	Chosen strategy is simple_byte
 11973   0042F2  504A               	movf	(??_conv7Seg+1)^0,w,c
 11974   0042F4  0A00               	xorlw	0	; case 0
 11975   0042F6  B4D8               	btfsc	status,2,c
 11976   0042F8  EF80  F021         	goto	l10341
 11977   0042FC  EFAB  F021         	goto	l6269
 11978   004300                     l10341:
 11979                           
 11980                           ; Switch size 1, requested type "simple"
 11981                           ; Number of cases is 10, Range of values is 0 to 9
 11982                           ; switch strategies available:
 11983                           ; Name         Instructions Cycles
 11984                           ; simple_byte           31    16 (average)
 11985                           ;	Chosen strategy is simple_byte
 11986   004300  5049               	movf	??_conv7Seg^0,w,c
 11987   004302  0A00               	xorlw	0	; case 0
 11988   004304  B4D8               	btfsc	status,2,c
 11989   004306  EF44  F021         	goto	l6245
 11990   00430A  0A01               	xorlw	1	; case 1
 11991   00430C  B4D8               	btfsc	status,2,c
 11992   00430E  EF49  F021         	goto	l6247
 11993   004312  0A03               	xorlw	3	; case 2
 11994   004314  B4D8               	btfsc	status,2,c
 11995   004316  EF4E  F021         	goto	l6249
 11996   00431A  0A01               	xorlw	1	; case 3
 11997   00431C  B4D8               	btfsc	status,2,c
 11998   00431E  EF53  F021         	goto	l6251
 11999   004322  0A07               	xorlw	7	; case 4
 12000   004324  B4D8               	btfsc	status,2,c
 12001   004326  EF58  F021         	goto	l6253
 12002   00432A  0A01               	xorlw	1	; case 5
 12003   00432C  B4D8               	btfsc	status,2,c
 12004   00432E  EF5D  F021         	goto	l6255
 12005   004332  0A03               	xorlw	3	; case 6
 12006   004334  B4D8               	btfsc	status,2,c
 12007   004336  EF62  F021         	goto	l6257
 12008   00433A  0A01               	xorlw	1	; case 7
 12009   00433C  B4D8               	btfsc	status,2,c
 12010   00433E  EF67  F021         	goto	l6259
 12011   004342  0A0F               	xorlw	15	; case 8
 12012   004344  B4D8               	btfsc	status,2,c
 12013   004346  EF6C  F021         	goto	l6261
 12014   00434A  0A01               	xorlw	1	; case 9
 12015   00434C  B4D8               	btfsc	status,2,c
 12016   00434E  EF71  F021         	goto	l6263
 12017   004352  EFAB  F021         	goto	l6269
 12018   004356                     l6269:
 12019                           
 12020                           ;display.c: 57:     return(digito);
 12021   004356  0100               	movlb	0	; () banked
 12022   004358  51D7               	movf	_digito& (0+255),w,b
 12023   00435A                     
 12024                           ; BSR set to: 0
 12025   00435A  0012               	return		;funcret
 12026   00435C                     __end_of_conv7Seg:
 12027                           	callstack 0
 12028                           
 12029 ;; *************** function ___awmod *****************
 12030 ;; Defined at:
 12031 ;;		line 7 in file "C:\Program Files\Microchip\xc8\v2.40\pic\sources\c99\common\awmod.c"
 12032 ;; Parameters:    Size  Location     Type
 12033 ;;  dividend        2    8[COMRAM] int 
 12034 ;;  divisor         2   10[COMRAM] int 
 12035 ;; Auto vars:     Size  Location     Type
 12036 ;;  sign            1   13[COMRAM] unsigned char 
 12037 ;;  counter         1   12[COMRAM] unsigned char 
 12038 ;; Return value:  Size  Location     Type
 12039 ;;                  2    8[COMRAM] int 
 12040 ;; Registers used:
 12041 ;;		wreg, status,2, status,0
 12042 ;; Tracked objects:
 12043 ;;		On entry : 0/0
 12044 ;;		On exit  : 0/0
 12045 ;;		Unchanged: 0/0
 12046 ;; Data sizes:     COMRAM   BANK0   BANK1   BANK2   BANK3   BANK4   BANK5
 12047 ;;      Params:         4       0       0       0       0       0       0
 12048 ;;      Locals:         2       0       0       0       0       0       0
 12049 ;;      Temps:          0       0       0       0       0       0       0
 12050 ;;      Totals:         6       0       0       0       0       0       0
 12051 ;;Total ram usage:        6 bytes
 12052 ;; Hardware stack levels used: 1
 12053 ;; Hardware stack levels required when called: 2
 12054 ;; This function calls:
 12055 ;;		Nothing
 12056 ;; This function is called by:
 12057 ;;		_convBCD
 12058 ;; This function uses a non-reentrant model
 12059 ;;
 12060                           
 12061                           	psect	text27
 12062   004588                     __ptext27:
 12063                           	callstack 0
 12064   004588                     ___awmod:
 12065                           	callstack 26
 12066   004588  0E00               	movlw	0
 12067   00458A  6E4E               	movwf	___awmod@sign^0,c
 12068   00458C  BE4A               	btfsc	(___awmod@dividend+1)^0,7,c
 12069   00458E  EFCD  F022         	goto	u5820
 12070   004592  EFCB  F022         	goto	u5821
 12071   004596                     u5821:
 12072   004596  EFD3  F022         	goto	l6329
 12073   00459A                     u5820:
 12074   00459A  6C49               	negf	___awmod@dividend^0,c
 12075   00459C  1E4A               	comf	(___awmod@dividend+1)^0,f,c
 12076   00459E  B0D8               	btfsc	status,0,c
 12077   0045A0  2A4A               	incf	(___awmod@dividend+1)^0,f,c
 12078   0045A2  0E01               	movlw	1
 12079   0045A4  6E4E               	movwf	___awmod@sign^0,c
 12080   0045A6                     l6329:
 12081   0045A6  BE4C               	btfsc	(___awmod@divisor+1)^0,7,c
 12082   0045A8  EFDA  F022         	goto	u5830
 12083   0045AC  EFD8  F022         	goto	u5831
 12084   0045B0                     u5831:
 12085   0045B0  EFDE  F022         	goto	l6333
 12086   0045B4                     u5830:
 12087   0045B4  6C4B               	negf	___awmod@divisor^0,c
 12088   0045B6  1E4C               	comf	(___awmod@divisor+1)^0,f,c
 12089   0045B8  B0D8               	btfsc	status,0,c
 12090   0045BA  2A4C               	incf	(___awmod@divisor+1)^0,f,c
 12091   0045BC                     l6333:
 12092   0045BC  504B               	movf	___awmod@divisor^0,w,c
 12093   0045BE  104C               	iorwf	(___awmod@divisor+1)^0,w,c
 12094   0045C0  B4D8               	btfsc	status,2,c
 12095   0045C2  EFE5  F022         	goto	u5841
 12096   0045C6  EFE7  F022         	goto	u5840
 12097   0045CA                     u5841:
 12098   0045CA  EF0B  F023         	goto	l6349
 12099   0045CE                     u5840:
 12100   0045CE  0E01               	movlw	1
 12101   0045D0  6E4D               	movwf	___awmod@counter^0,c
 12102   0045D2  EFEF  F022         	goto	l6339
 12103   0045D6                     l6337:
 12104   0045D6  90D8               	bcf	status,0,c
 12105   0045D8  364B               	rlcf	___awmod@divisor^0,f,c
 12106   0045DA  364C               	rlcf	(___awmod@divisor+1)^0,f,c
 12107   0045DC  2A4D               	incf	___awmod@counter^0,f,c
 12108   0045DE                     l6339:
 12109   0045DE  AE4C               	btfss	(___awmod@divisor+1)^0,7,c
 12110   0045E0  EFF4  F022         	goto	u5851
 12111   0045E4  EFF6  F022         	goto	u5850
 12112   0045E8                     u5851:
 12113   0045E8  EFEB  F022         	goto	l6337
 12114   0045EC                     u5850:
 12115   0045EC                     l6341:
 12116   0045EC  504B               	movf	___awmod@divisor^0,w,c
 12117   0045EE  5C49               	subwf	___awmod@dividend^0,w,c
 12118   0045F0  504C               	movf	(___awmod@divisor+1)^0,w,c
 12119   0045F2  584A               	subwfb	(___awmod@dividend+1)^0,w,c
 12120   0045F4  A0D8               	btfss	status,0,c
 12121   0045F6  EFFF  F022         	goto	u5861
 12122   0045FA  EF01  F023         	goto	u5860
 12123   0045FE                     u5861:
 12124   0045FE  EF05  F023         	goto	l6345
 12125   004602                     u5860:
 12126   004602  504B               	movf	___awmod@divisor^0,w,c
 12127   004604  5E49               	subwf	___awmod@dividend^0,f,c
 12128   004606  504C               	movf	(___awmod@divisor+1)^0,w,c
 12129   004608  5A4A               	subwfb	(___awmod@dividend+1)^0,f,c
 12130   00460A                     l6345:
 12131   00460A  90D8               	bcf	status,0,c
 12132   00460C  324C               	rrcf	(___awmod@divisor+1)^0,f,c
 12133   00460E  324B               	rrcf	___awmod@divisor^0,f,c
 12134   004610  2E4D               	decfsz	___awmod@counter^0,f,c
 12135   004612  EFF6  F022         	goto	l6341
 12136   004616                     l6349:
 12137   004616  504E               	movf	___awmod@sign^0,w,c
 12138   004618  B4D8               	btfsc	status,2,c
 12139   00461A  EF11  F023         	goto	u5871
 12140   00461E  EF13  F023         	goto	u5870
 12141   004622                     u5871:
 12142   004622  EF17  F023         	goto	l6353
 12143   004626                     u5870:
 12144   004626  6C49               	negf	___awmod@dividend^0,c
 12145   004628  1E4A               	comf	(___awmod@dividend+1)^0,f,c
 12146   00462A  B0D8               	btfsc	status,0,c
 12147   00462C  2A4A               	incf	(___awmod@dividend+1)^0,f,c
 12148   00462E                     l6353:
 12149   00462E  C049  F049         	movff	___awmod@dividend,?___awmod
 12150   004632  C04A  F04A         	movff	___awmod@dividend+1,?___awmod+1
 12151   004636  0012               	return		;funcret
 12152   004638                     __end_of___awmod:
 12153                           	callstack 0
 12154                           
 12155 ;; *************** function ___awdiv *****************
 12156 ;; Defined at:
 12157 ;;		line 7 in file "C:\Program Files\Microchip\xc8\v2.40\pic\sources\c99\common\awdiv.c"
 12158 ;; Parameters:    Size  Location     Type
 12159 ;;  dividend        2    8[COMRAM] int 
 12160 ;;  divisor         2   10[COMRAM] int 
 12161 ;; Auto vars:     Size  Location     Type
 12162 ;;  quotient        2   14[COMRAM] int 
 12163 ;;  sign            1   13[COMRAM] unsigned char 
 12164 ;;  counter         1   12[COMRAM] unsigned char 
 12165 ;; Return value:  Size  Location     Type
 12166 ;;                  2    8[COMRAM] int 
 12167 ;; Registers used:
 12168 ;;		wreg, status,2, status,0
 12169 ;; Tracked objects:
 12170 ;;		On entry : 0/0
 12171 ;;		On exit  : 0/0
 12172 ;;		Unchanged: 0/0
 12173 ;; Data sizes:     COMRAM   BANK0   BANK1   BANK2   BANK3   BANK4   BANK5
 12174 ;;      Params:         4       0       0       0       0       0       0
 12175 ;;      Locals:         4       0       0       0       0       0       0
 12176 ;;      Temps:          0       0       0       0       0       0       0
 12177 ;;      Totals:         8       0       0       0       0       0       0
 12178 ;;Total ram usage:        8 bytes
 12179 ;; Hardware stack levels used: 1
 12180 ;; Hardware stack levels required when called: 2
 12181 ;; This function calls:
 12182 ;;		Nothing
 12183 ;; This function is called by:
 12184 ;;		_salidaPotencia
 12185 ;;		_convBCD
 12186 ;; This function uses a non-reentrant model
 12187 ;;
 12188                           
 12189                           	psect	text28
 12190   00435C                     __ptext28:
 12191                           	callstack 0
 12192   00435C                     ___awdiv:
 12193                           	callstack 27
 12194   00435C  0E00               	movlw	0
 12195   00435E  6E4E               	movwf	___awdiv@sign^0,c
 12196   004360  BE4C               	btfsc	(___awdiv@divisor+1)^0,7,c
 12197   004362  EFB7  F021         	goto	u5760
 12198   004366  EFB5  F021         	goto	u5761
 12199   00436A                     u5761:
 12200   00436A  EFBD  F021         	goto	l6285
 12201   00436E                     u5760:
 12202   00436E  6C4B               	negf	___awdiv@divisor^0,c
 12203   004370  1E4C               	comf	(___awdiv@divisor+1)^0,f,c
 12204   004372  B0D8               	btfsc	status,0,c
 12205   004374  2A4C               	incf	(___awdiv@divisor+1)^0,f,c
 12206   004376  0E01               	movlw	1
 12207   004378  6E4E               	movwf	___awdiv@sign^0,c
 12208   00437A                     l6285:
 12209   00437A  BE4A               	btfsc	(___awdiv@dividend+1)^0,7,c
 12210   00437C  EFC4  F021         	goto	u5770
 12211   004380  EFC2  F021         	goto	u5771
 12212   004384                     u5771:
 12213   004384  EFCA  F021         	goto	l6291
 12214   004388                     u5770:
 12215   004388  6C49               	negf	___awdiv@dividend^0,c
 12216   00438A  1E4A               	comf	(___awdiv@dividend+1)^0,f,c
 12217   00438C  B0D8               	btfsc	status,0,c
 12218   00438E  2A4A               	incf	(___awdiv@dividend+1)^0,f,c
 12219   004390  0E01               	movlw	1
 12220   004392  1A4E               	xorwf	___awdiv@sign^0,f,c
 12221   004394                     l6291:
 12222   004394  0E00               	movlw	0
 12223   004396  6E50               	movwf	(___awdiv@quotient+1)^0,c
 12224   004398  0E00               	movlw	0
 12225   00439A  6E4F               	movwf	___awdiv@quotient^0,c
 12226   00439C  504B               	movf	___awdiv@divisor^0,w,c
 12227   00439E  104C               	iorwf	(___awdiv@divisor+1)^0,w,c
 12228   0043A0  B4D8               	btfsc	status,2,c
 12229   0043A2  EFD5  F021         	goto	u5781
 12230   0043A6  EFD7  F021         	goto	u5780
 12231   0043AA                     u5781:
 12232   0043AA  EFFF  F021         	goto	l6313
 12233   0043AE                     u5780:
 12234   0043AE  0E01               	movlw	1
 12235   0043B0  6E4D               	movwf	___awdiv@counter^0,c
 12236   0043B2  EFDF  F021         	goto	l6299
 12237   0043B6                     l6297:
 12238   0043B6  90D8               	bcf	status,0,c
 12239   0043B8  364B               	rlcf	___awdiv@divisor^0,f,c
 12240   0043BA  364C               	rlcf	(___awdiv@divisor+1)^0,f,c
 12241   0043BC  2A4D               	incf	___awdiv@counter^0,f,c
 12242   0043BE                     l6299:
 12243   0043BE  AE4C               	btfss	(___awdiv@divisor+1)^0,7,c
 12244   0043C0  EFE4  F021         	goto	u5791
 12245   0043C4  EFE6  F021         	goto	u5790
 12246   0043C8                     u5791:
 12247   0043C8  EFDB  F021         	goto	l6297
 12248   0043CC                     u5790:
 12249   0043CC                     l6301:
 12250   0043CC  90D8               	bcf	status,0,c
 12251   0043CE  364F               	rlcf	___awdiv@quotient^0,f,c
 12252   0043D0  3650               	rlcf	(___awdiv@quotient+1)^0,f,c
 12253   0043D2  504B               	movf	___awdiv@divisor^0,w,c
 12254   0043D4  5C49               	subwf	___awdiv@dividend^0,w,c
 12255   0043D6  504C               	movf	(___awdiv@divisor+1)^0,w,c
 12256   0043D8  584A               	subwfb	(___awdiv@dividend+1)^0,w,c
 12257   0043DA  A0D8               	btfss	status,0,c
 12258   0043DC  EFF2  F021         	goto	u5801
 12259   0043E0  EFF4  F021         	goto	u5800
 12260   0043E4                     u5801:
 12261   0043E4  EFF9  F021         	goto	l6309
 12262   0043E8                     u5800:
 12263   0043E8  504B               	movf	___awdiv@divisor^0,w,c
 12264   0043EA  5E49               	subwf	___awdiv@dividend^0,f,c
 12265   0043EC  504C               	movf	(___awdiv@divisor+1)^0,w,c
 12266   0043EE  5A4A               	subwfb	(___awdiv@dividend+1)^0,f,c
 12267   0043F0  804F               	bsf	___awdiv@quotient^0,0,c
 12268   0043F2                     l6309:
 12269   0043F2  90D8               	bcf	status,0,c
 12270   0043F4  324C               	rrcf	(___awdiv@divisor+1)^0,f,c
 12271   0043F6  324B               	rrcf	___awdiv@divisor^0,f,c
 12272   0043F8  2E4D               	decfsz	___awdiv@counter^0,f,c
 12273   0043FA  EFE6  F021         	goto	l6301
 12274   0043FE                     l6313:
 12275   0043FE  504E               	movf	___awdiv@sign^0,w,c
 12276   004400  B4D8               	btfsc	status,2,c
 12277   004402  EF05  F022         	goto	u5811
 12278   004406  EF07  F022         	goto	u5810
 12279   00440A                     u5811:
 12280   00440A  EF0B  F022         	goto	l6317
 12281   00440E                     u5810:
 12282   00440E  6C4F               	negf	___awdiv@quotient^0,c
 12283   004410  1E50               	comf	(___awdiv@quotient+1)^0,f,c
 12284   004412  B0D8               	btfsc	status,0,c
 12285   004414  2A50               	incf	(___awdiv@quotient+1)^0,f,c
 12286   004416                     l6317:
 12287   004416  C04F  F049         	movff	___awdiv@quotient,?___awdiv
 12288   00441A  C050  F04A         	movff	___awdiv@quotient+1,?___awdiv+1
 12289   00441E  0012               	return		;funcret
 12290   004420                     __end_of___awdiv:
 12291                           	callstack 0
 12292                           
 12293 ;; *************** function _conversionTemp *****************
 12294 ;; Defined at:
 12295 ;;		line 16 in file "conversionTemp.c"
 12296 ;; Parameters:    Size  Location     Type
 12297 ;;		None
 12298 ;; Auto vars:     Size  Location     Type
 12299 ;;		None
 12300 ;; Return value:  Size  Location     Type
 12301 ;;                  1    wreg      void 
 12302 ;; Registers used:
 12303 ;;		wreg, status,2, status,0
 12304 ;; Tracked objects:
 12305 ;;		On entry : 0/0
 12306 ;;		On exit  : 0/0
 12307 ;;		Unchanged: 0/0
 12308 ;; Data sizes:     COMRAM   BANK0   BANK1   BANK2   BANK3   BANK4   BANK5
 12309 ;;      Params:         0       0       0       0       0       0       0
 12310 ;;      Locals:         0       0       0       0       0       0       0
 12311 ;;      Temps:          5       0       0       0       0       0       0
 12312 ;;      Totals:         5       0       0       0       0       0       0
 12313 ;;Total ram usage:        5 bytes
 12314 ;; Hardware stack levels used: 1
 12315 ;; Hardware stack levels required when called: 2
 12316 ;; This function calls:
 12317 ;;		Nothing
 12318 ;; This function is called by:
 12319 ;;		_main
 12320 ;; This function uses a non-reentrant model
 12321 ;;
 12322                           
 12323                           	psect	text29
 12324   002E78                     __ptext29:
 12325                           	callstack 0
 12326   002E78                     _conversionTemp:
 12327                           	callstack 28
 12328   002E78                     
 12329                           ;conversionTemp.c: 17:     resetWatch = 0;
 12330   002E78  0E00               	movlw	0
 12331   002E7A  0100               	movlb	0	; () banked
 12332   002E7C  6F9F               	movwf	(_resetWatch+1)& (0+255),b
 12333   002E7E  0E00               	movlw	0
 12334   002E80  6F9E               	movwf	_resetWatch& (0+255),b
 12335   002E82                     
 12336                           ; BSR set to: 0
 12337                           ;conversionTemp.c: 18:     INTCONbits.INT0E = 1;
 12338   002E82  88F2               	bsf	242,4,c	;volatile
 12339   002E84                     
 12340                           ; BSR set to: 0
 12341                           ;conversionTemp.c: 19:     if(offSet > 19){
 12342   002E84  0E13               	movlw	19
 12343   002E86  642F               	cpfsgt	_offSet^0,c
 12344   002E88  EF48  F017         	goto	u8271
 12345   002E8C  EF4A  F017         	goto	u8270
 12346   002E90                     u8271:
 12347   002E90  EF50  F017         	goto	l1191
 12348   002E94                     u8270:
 12349   002E94                     
 12350                           ; BSR set to: 0
 12351                           ;conversionTemp.c: 20:         offSet1 = offSet - 20;
 12352   002E94  502F               	movf	_offSet^0,w,c
 12353   002E96  0FEC               	addlw	236
 12354   002E98  6E21               	movwf	_offSet1^0,c
 12355                           
 12356                           ;conversionTemp.c: 21:         offSet2 = offSet - 20;
 12357   002E9A  502F               	movf	_offSet^0,w,c
 12358   002E9C  0FEC               	addlw	236
 12359   002E9E  6E22               	movwf	_offSet2^0,c
 12360   002EA0                     l1191:
 12361                           
 12362                           ; BSR set to: 0
 12363   002EA0  0E14               	movlw	20
 12364   002EA2  602F               	cpfslt	_offSet^0,c
 12365   002EA4  EF56  F017         	goto	u8281
 12366   002EA8  EF58  F017         	goto	u8280
 12367   002EAC                     u8281:
 12368   002EAC  EF12  F018         	goto	l8165
 12369   002EB0                     u8280:
 12370   002EB0                     
 12371                           ; BSR set to: 0
 12372                           ;conversionTemp.c: 23:         offSet1 = 20 - offSet;
 12373   002EB0  502F               	movf	_offSet^0,w,c
 12374   002EB2  0814               	sublw	20
 12375   002EB4  6E21               	movwf	_offSet1^0,c
 12376                           
 12377                           ;conversionTemp.c: 24:         offSet2 = 20 - offSet;
 12378   002EB6  502F               	movf	_offSet^0,w,c
 12379   002EB8  0814               	sublw	20
 12380   002EBA  6E22               	movwf	_offSet2^0,c
 12381   002EBC  EF12  F018         	goto	l8165
 12382   002EC0                     l1194:
 12383                           
 12384                           ; BSR set to: 0
 12385                           ;conversionTemp.c: 28:                 aux1=aux10;
 12386   002EC0  C0B7  F01A         	movff	_aux10,_aux1
 12387   002EC4                     
 12388                           ; BSR set to: 0
 12389                           ;conversionTemp.c: 34:                 tempNeg1=0;
 12390   002EC4  0E00               	movlw	0
 12391   002EC6  6FC5               	movwf	_tempNeg1& (0+255),b
 12392   002EC8                     
 12393                           ; BSR set to: 0
 12394                           ;conversionTemp.c: 35:                 if(offSet > 20){
 12395   002EC8  0E14               	movlw	20
 12396   002ECA  642F               	cpfsgt	_offSet^0,c
 12397   002ECC  EF6A  F017         	goto	u8291
 12398   002ED0  EF6C  F017         	goto	u8290
 12399   002ED4                     u8291:
 12400   002ED4  EF6F  F017         	goto	l1195
 12401   002ED8                     u8290:
 12402   002ED8                     
 12403                           ; BSR set to: 0
 12404                           ;conversionTemp.c: 36:                     aux1 = aux1 + offSet1;
 12405   002ED8  501A               	movf	_aux1^0,w,c
 12406   002EDA  2421               	addwf	_offSet1^0,w,c
 12407   002EDC  6E1A               	movwf	_aux1^0,c
 12408   002EDE                     l1195:
 12409                           
 12410                           ; BSR set to: 0
 12411   002EDE  0E14               	movlw	20
 12412   002EE0  602F               	cpfslt	_offSet^0,c
 12413   002EE2  EF75  F017         	goto	u8301
 12414   002EE6  EF77  F017         	goto	u8300
 12415   002EEA                     u8301:
 12416   002EEA  EF83  F017         	goto	l8115
 12417   002EEE                     u8300:
 12418   002EEE                     
 12419                           ; BSR set to: 0
 12420   002EEE  501A               	movf	_aux1^0,w,c
 12421   002EF0  5C21               	subwf	_offSet1^0,w,c
 12422   002EF2  B0D8               	btfsc	status,0,c
 12423   002EF4  EF7E  F017         	goto	u8311
 12424   002EF8  EF80  F017         	goto	u8310
 12425   002EFC                     u8311:
 12426   002EFC  EF83  F017         	goto	l8115
 12427   002F00                     u8310:
 12428   002F00                     
 12429                           ; BSR set to: 0
 12430                           ;conversionTemp.c: 38:                     aux1 = aux1 - offSet1;
 12431   002F00  5021               	movf	_offSet1^0,w,c
 12432   002F02  5C1A               	subwf	_aux1^0,w,c
 12433   002F04  6E1A               	movwf	_aux1^0,c
 12434   002F06                     l8115:
 12435                           
 12436                           ; BSR set to: 0
 12437                           ;conversionTemp.c: 40:                 if(aux11 > 0){
 12438   002F06  5015               	movf	_aux11^0,w,c
 12439   002F08  B4D8               	btfsc	status,2,c
 12440   002F0A  EF89  F017         	goto	u8321
 12441   002F0E  EF8B  F017         	goto	u8320
 12442   002F12                     u8321:
 12443   002F12  EF27  F018         	goto	l8167
 12444   002F16                     u8320:
 12445   002F16                     
 12446                           ; BSR set to: 0
 12447                           ;conversionTemp.c: 41:                     aux1=~aux10;
 12448   002F16  51B7               	movf	_aux10& (0+255),w,b
 12449   002F18  0AFF               	xorlw	255
 12450   002F1A  6E1A               	movwf	_aux1^0,c
 12451                           
 12452                           ;conversionTemp.c: 42:                     aux1=aux1+1;
 12453   002F1C  281A               	incf	_aux1^0,w,c
 12454   002F1E  6E1A               	movwf	_aux1^0,c
 12455   002F20                     
 12456                           ; BSR set to: 0
 12457                           ;conversionTemp.c: 43:                     tempNeg1=1;
 12458   002F20  0E01               	movlw	1
 12459   002F22  6FC5               	movwf	_tempNeg1& (0+255),b
 12460   002F24                     
 12461                           ; BSR set to: 0
 12462                           ;conversionTemp.c: 44:                     if(offSet > 20){
 12463   002F24  0E14               	movlw	20
 12464   002F26  642F               	cpfsgt	_offSet^0,c
 12465   002F28  EF98  F017         	goto	u8331
 12466   002F2C  EF9A  F017         	goto	u8330
 12467   002F30                     u8331:
 12468   002F30  EF9D  F017         	goto	l1198
 12469   002F34                     u8330:
 12470   002F34                     
 12471                           ; BSR set to: 0
 12472                           ;conversionTemp.c: 45:                     aux1 = aux1 - offSet1;
 12473   002F34  5021               	movf	_offSet1^0,w,c
 12474   002F36  5C1A               	subwf	_aux1^0,w,c
 12475   002F38  6E1A               	movwf	_aux1^0,c
 12476   002F3A                     l1198:
 12477                           
 12478                           ; BSR set to: 0
 12479   002F3A  0E14               	movlw	20
 12480   002F3C  602F               	cpfslt	_offSet^0,c
 12481   002F3E  EFA3  F017         	goto	u8341
 12482   002F42  EFA5  F017         	goto	u8340
 12483   002F46                     u8341:
 12484   002F46  EF27  F018         	goto	l8167
 12485   002F4A                     u8340:
 12486   002F4A                     l8125:
 12487                           
 12488                           ; BSR set to: 0
 12489                           ;conversionTemp.c: 47:                     aux1 = aux1 + offSet1;
 12490   002F4A  501A               	movf	_aux1^0,w,c
 12491   002F4C  2421               	addwf	_offSet1^0,w,c
 12492   002F4E  6E1A               	movwf	_aux1^0,c
 12493   002F50  EF27  F018         	goto	l8167
 12494   002F54                     l8127:
 12495                           
 12496                           ; BSR set to: 0
 12497                           ;conversionTemp.c: 66:                         aux1=aux10>>3;
 12498   002F54  39B7               	swapf	_aux10& (0+255),w,b
 12499   002F56  46E8               	rlncf	wreg,f,c
 12500   002F58  0B1F               	andlw	31
 12501   002F5A  6E1A               	movwf	_aux1^0,c
 12502                           
 12503                           ;conversionTemp.c: 68:                         aux1=aux1&0b00011111;
 12504   002F5C  501A               	movf	_aux1^0,w,c
 12505   002F5E  0B1F               	andlw	31
 12506   002F60  6E1A               	movwf	_aux1^0,c
 12507   002F62                     
 12508                           ; BSR set to: 0
 12509                           ;conversionTemp.c: 69:                         if((aux11 & 0x01) == 0x01 ){
 12510   002F62  A015               	btfss	_aux11^0,0,c
 12511   002F64  EFB6  F017         	goto	u8351
 12512   002F68  EFB8  F017         	goto	u8350
 12513   002F6C                     u8351:
 12514   002F6C  EFBB  F017         	goto	l8133
 12515   002F70                     u8350:
 12516   002F70                     
 12517                           ; BSR set to: 0
 12518                           ;conversionTemp.c: 70:                             aux1 = aux1 + 0x20;
 12519   002F70  501A               	movf	_aux1^0,w,c
 12520   002F72  0F20               	addlw	32
 12521   002F74  6E1A               	movwf	_aux1^0,c
 12522   002F76                     l8133:
 12523                           
 12524                           ; BSR set to: 0
 12525   002F76  A215               	btfss	_aux11^0,1,c
 12526   002F78  EFC0  F017         	goto	u8361
 12527   002F7C  EFC2  F017         	goto	u8360
 12528   002F80                     u8361:
 12529   002F80  EFC5  F017         	goto	l8137
 12530   002F84                     u8360:
 12531   002F84                     
 12532                           ; BSR set to: 0
 12533                           ;conversionTemp.c: 72:                             aux1 = aux1 + 0x40;
 12534   002F84  501A               	movf	_aux1^0,w,c
 12535   002F86  0F40               	addlw	64
 12536   002F88  6E1A               	movwf	_aux1^0,c
 12537   002F8A                     l8137:
 12538                           
 12539                           ; BSR set to: 0
 12540   002F8A  A415               	btfss	_aux11^0,2,c
 12541   002F8C  EFCA  F017         	goto	u8371
 12542   002F90  EFCC  F017         	goto	u8370
 12543   002F94                     u8371:
 12544   002F94  EFCF  F017         	goto	l1204
 12545   002F98                     u8370:
 12546   002F98                     
 12547                           ; BSR set to: 0
 12548                           ;conversionTemp.c: 74:                             aux1 = aux1 + 0x80;
 12549   002F98  501A               	movf	_aux1^0,w,c
 12550   002F9A  0F80               	addlw	128
 12551   002F9C  6E1A               	movwf	_aux1^0,c
 12552   002F9E                     l1204:
 12553                           
 12554                           ; BSR set to: 0
 12555                           ;conversionTemp.c: 76:                         if(offSet > 20){
 12556   002F9E  0E14               	movlw	20
 12557   002FA0  642F               	cpfsgt	_offSet^0,c
 12558   002FA2  EFD5  F017         	goto	u8381
 12559   002FA6  EFD7  F017         	goto	u8380
 12560   002FAA                     u8381:
 12561   002FAA  EFDA  F017         	goto	l1205
 12562   002FAE                     u8380:
 12563   002FAE                     
 12564                           ; BSR set to: 0
 12565                           ;conversionTemp.c: 77:                     aux1 = aux1 + offSet1;
 12566   002FAE  501A               	movf	_aux1^0,w,c
 12567   002FB0  2421               	addwf	_offSet1^0,w,c
 12568   002FB2  6E1A               	movwf	_aux1^0,c
 12569   002FB4                     l1205:
 12570                           
 12571                           ; BSR set to: 0
 12572   002FB4  0E14               	movlw	20
 12573   002FB6  602F               	cpfslt	_offSet^0,c
 12574   002FB8  EFE0  F017         	goto	u8391
 12575   002FBC  EFE2  F017         	goto	u8390
 12576   002FC0                     u8391:
 12577   002FC0  EFEE  F017         	goto	l8147
 12578   002FC4                     u8390:
 12579   002FC4                     
 12580                           ; BSR set to: 0
 12581   002FC4  501A               	movf	_aux1^0,w,c
 12582   002FC6  5C21               	subwf	_offSet1^0,w,c
 12583   002FC8  B0D8               	btfsc	status,0,c
 12584   002FCA  EFE9  F017         	goto	u8401
 12585   002FCE  EFEB  F017         	goto	u8400
 12586   002FD2                     u8401:
 12587   002FD2  EFEE  F017         	goto	l8147
 12588   002FD6                     u8400:
 12589   002FD6                     
 12590                           ; BSR set to: 0
 12591                           ;conversionTemp.c: 79:                     aux1 = aux1 - offSet1;
 12592   002FD6  5021               	movf	_offSet1^0,w,c
 12593   002FD8  5C1A               	subwf	_aux1^0,w,c
 12594   002FDA  6E1A               	movwf	_aux1^0,c
 12595   002FDC                     l8147:
 12596                           
 12597                           ; BSR set to: 0
 12598                           ;conversionTemp.c: 81:                         tempNeg1=0;
 12599   002FDC  0E00               	movlw	0
 12600   002FDE  6FC5               	movwf	_tempNeg1& (0+255),b
 12601   002FE0                     
 12602                           ; BSR set to: 0
 12603                           ;conversionTemp.c: 82:                         if(aux11 >=0x08){
 12604   002FE0  0E07               	movlw	7
 12605   002FE2  6415               	cpfsgt	_aux11^0,c
 12606   002FE4  EFF6  F017         	goto	u8411
 12607   002FE8  EFF8  F017         	goto	u8410
 12608   002FEC                     u8411:
 12609   002FEC  EF27  F018         	goto	l8167
 12610   002FF0                     u8410:
 12611   002FF0                     
 12612                           ; BSR set to: 0
 12613                           ;conversionTemp.c: 83:                             aux1=~aux1;
 12614   002FF0  1E1A               	comf	_aux1^0,f,c
 12615   002FF2                     
 12616                           ; BSR set to: 0
 12617                           ;conversionTemp.c: 84:                             aux1=aux1+1;
 12618   002FF2  281A               	incf	_aux1^0,w,c
 12619   002FF4  6E1A               	movwf	_aux1^0,c
 12620   002FF6                     
 12621                           ; BSR set to: 0
 12622                           ;conversionTemp.c: 85:                             tempNeg1=1;
 12623   002FF6  0E01               	movlw	1
 12624   002FF8  6FC5               	movwf	_tempNeg1& (0+255),b
 12625   002FFA                     
 12626                           ; BSR set to: 0
 12627                           ;conversionTemp.c: 86:                             if(offSet > 20){
 12628   002FFA  0E14               	movlw	20
 12629   002FFC  642F               	cpfsgt	_offSet^0,c
 12630   002FFE  EF03  F018         	goto	u8421
 12631   003002  EF05  F018         	goto	u8420
 12632   003006                     u8421:
 12633   003006  EF08  F018         	goto	l1208
 12634   00300A                     u8420:
 12635   00300A                     
 12636                           ; BSR set to: 0
 12637                           ;conversionTemp.c: 87:                     aux1 = aux1 - offSet1;
 12638   00300A  5021               	movf	_offSet1^0,w,c
 12639   00300C  5C1A               	subwf	_aux1^0,w,c
 12640   00300E  6E1A               	movwf	_aux1^0,c
 12641   003010                     l1208:
 12642                           
 12643                           ; BSR set to: 0
 12644   003010  0E14               	movlw	20
 12645   003012  602F               	cpfslt	_offSet^0,c
 12646   003014  EF0E  F018         	goto	u8431
 12647   003018  EF10  F018         	goto	u8430
 12648   00301C                     u8431:
 12649   00301C  EF27  F018         	goto	l8167
 12650   003020                     u8430:
 12651   003020  EFA5  F017         	goto	l8125
 12652   003024                     l8165:
 12653                           
 12654                           ; BSR set to: 0
 12655   003024  5182               	movf	_lectRom1& (0+255),w,b
 12656   003026  6E49               	movwf	??_conversionTemp^0,c
 12657   003028  6A4A               	clrf	(??_conversionTemp+1)^0,c
 12658                           
 12659                           ; Switch on 2 bytes has been partitioned into a top level switch of size 1, and 1 sub-sw
      +                          itches
 12660                           ; Switch size 1, requested type "simple"
 12661                           ; Number of cases is 1, Range of values is 0 to 0
 12662                           ; switch strategies available:
 12663                           ; Name         Instructions Cycles
 12664                           ; simple_byte            4     3 (average)
 12665                           ;	Chosen strategy is simple_byte
 12666   00302A  504A               	movf	(??_conversionTemp+1)^0,w,c
 12667   00302C  0A00               	xorlw	0	; case 0
 12668   00302E  B4D8               	btfsc	status,2,c
 12669   003030  EF1C  F018         	goto	l10343
 12670   003034  EF27  F018         	goto	l8167
 12671   003038                     l10343:
 12672                           
 12673                           ; BSR set to: 0
 12674                           ; Switch size 1, requested type "simple"
 12675                           ; Number of cases is 2, Range of values is 16 to 40
 12676                           ; switch strategies available:
 12677                           ; Name         Instructions Cycles
 12678                           ; simple_byte            7     4 (average)
 12679                           ;	Chosen strategy is simple_byte
 12680   003038  5049               	movf	??_conversionTemp^0,w,c
 12681   00303A  0A10               	xorlw	16	; case 16
 12682   00303C  B4D8               	btfsc	status,2,c
 12683   00303E  EF60  F017         	goto	l1194
 12684   003042  0A38               	xorlw	56	; case 40
 12685   003044  B4D8               	btfsc	status,2,c
 12686   003046  EFAA  F017         	goto	l8127
 12687   00304A  EF27  F018         	goto	l8167
 12688   00304E                     l8167:
 12689                           
 12690                           ; BSR set to: 0
 12691                           ;conversionTemp.c: 122:   resetWatch = 0;
 12692   00304E  0E00               	movlw	0
 12693   003050  6F9F               	movwf	(_resetWatch+1)& (0+255),b
 12694   003052  0E00               	movlw	0
 12695   003054  6F9E               	movwf	_resetWatch& (0+255),b
 12696                           
 12697                           ;conversionTemp.c: 123:         switch(lectRom2[0]){
 12698   003056  EFDF  F018         	goto	l8229
 12699   00305A                     l1211:
 12700                           
 12701                           ; BSR set to: 0
 12702                           ;conversionTemp.c: 133:                 aux2=aux20;
 12703   00305A  C0B6  F019         	movff	_aux20,_aux2
 12704   00305E                     
 12705                           ; BSR set to: 0
 12706                           ;conversionTemp.c: 139:                 tempNeg2=0;
 12707   00305E  0E00               	movlw	0
 12708   003060  6FC4               	movwf	_tempNeg2& (0+255),b
 12709   003062                     
 12710                           ; BSR set to: 0
 12711                           ;conversionTemp.c: 140:                 if(offSet > 20){
 12712   003062  0E14               	movlw	20
 12713   003064  642F               	cpfsgt	_offSet^0,c
 12714   003066  EF37  F018         	goto	u8441
 12715   00306A  EF39  F018         	goto	u8440
 12716   00306E                     u8441:
 12717   00306E  EF3C  F018         	goto	l1212
 12718   003072                     u8440:
 12719   003072                     
 12720                           ; BSR set to: 0
 12721                           ;conversionTemp.c: 141:                     aux2 = aux2 + offSet2;
 12722   003072  5019               	movf	_aux2^0,w,c
 12723   003074  2422               	addwf	_offSet2^0,w,c
 12724   003076  6E19               	movwf	_aux2^0,c
 12725   003078                     l1212:
 12726                           
 12727                           ; BSR set to: 0
 12728   003078  0E14               	movlw	20
 12729   00307A  602F               	cpfslt	_offSet^0,c
 12730   00307C  EF42  F018         	goto	u8451
 12731   003080  EF44  F018         	goto	u8450
 12732   003084                     u8451:
 12733   003084  EF50  F018         	goto	l8179
 12734   003088                     u8450:
 12735   003088                     
 12736                           ; BSR set to: 0
 12737   003088  5019               	movf	_aux2^0,w,c
 12738   00308A  5C22               	subwf	_offSet2^0,w,c
 12739   00308C  B0D8               	btfsc	status,0,c
 12740   00308E  EF4B  F018         	goto	u8461
 12741   003092  EF4D  F018         	goto	u8460
 12742   003096                     u8461:
 12743   003096  EF50  F018         	goto	l8179
 12744   00309A                     u8460:
 12745   00309A                     
 12746                           ; BSR set to: 0
 12747                           ;conversionTemp.c: 143:                     aux2 = aux2 - offSet2;
 12748   00309A  5022               	movf	_offSet2^0,w,c
 12749   00309C  5C19               	subwf	_aux2^0,w,c
 12750   00309E  6E19               	movwf	_aux2^0,c
 12751   0030A0                     l8179:
 12752                           
 12753                           ; BSR set to: 0
 12754                           ;conversionTemp.c: 145:                 if(aux21 > 0){
 12755   0030A0  5014               	movf	_aux21^0,w,c
 12756   0030A2  B4D8               	btfsc	status,2,c
 12757   0030A4  EF56  F018         	goto	u8471
 12758   0030A8  EF58  F018         	goto	u8470
 12759   0030AC                     u8471:
 12760   0030AC  EFF4  F018         	goto	l8231
 12761   0030B0                     u8470:
 12762   0030B0                     
 12763                           ; BSR set to: 0
 12764                           ;conversionTemp.c: 146:                     aux2=~aux20;
 12765   0030B0  51B6               	movf	_aux20& (0+255),w,b
 12766   0030B2  0AFF               	xorlw	255
 12767   0030B4  6E19               	movwf	_aux2^0,c
 12768                           
 12769                           ;conversionTemp.c: 147:                     aux2=aux2+1;
 12770   0030B6  2819               	incf	_aux2^0,w,c
 12771   0030B8  6E19               	movwf	_aux2^0,c
 12772   0030BA                     
 12773                           ; BSR set to: 0
 12774                           ;conversionTemp.c: 148:                     tempNeg2=1;
 12775   0030BA  0E01               	movlw	1
 12776   0030BC  6FC4               	movwf	_tempNeg2& (0+255),b
 12777   0030BE                     
 12778                           ; BSR set to: 0
 12779                           ;conversionTemp.c: 149:                     if(offSet > 20){
 12780   0030BE  0E14               	movlw	20
 12781   0030C0  642F               	cpfsgt	_offSet^0,c
 12782   0030C2  EF65  F018         	goto	u8481
 12783   0030C6  EF67  F018         	goto	u8480
 12784   0030CA                     u8481:
 12785   0030CA  EF6A  F018         	goto	l1215
 12786   0030CE                     u8480:
 12787   0030CE                     
 12788                           ; BSR set to: 0
 12789                           ;conversionTemp.c: 150:                     aux2 = aux2 - offSet2;
 12790   0030CE  5022               	movf	_offSet2^0,w,c
 12791   0030D0  5C19               	subwf	_aux2^0,w,c
 12792   0030D2  6E19               	movwf	_aux2^0,c
 12793   0030D4                     l1215:
 12794                           
 12795                           ; BSR set to: 0
 12796   0030D4  0E14               	movlw	20
 12797   0030D6  602F               	cpfslt	_offSet^0,c
 12798   0030D8  EF70  F018         	goto	u8491
 12799   0030DC  EF72  F018         	goto	u8490
 12800   0030E0                     u8491:
 12801   0030E0  EFF4  F018         	goto	l8231
 12802   0030E4                     u8490:
 12803   0030E4                     l8189:
 12804                           
 12805                           ; BSR set to: 0
 12806                           ;conversionTemp.c: 152:                     aux2 = aux2 + offSet2;
 12807   0030E4  5019               	movf	_aux2^0,w,c
 12808   0030E6  2422               	addwf	_offSet2^0,w,c
 12809   0030E8  6E19               	movwf	_aux2^0,c
 12810   0030EA  EFF4  F018         	goto	l8231
 12811   0030EE                     l8191:
 12812                           
 12813                           ; BSR set to: 0
 12814                           ;conversionTemp.c: 170:                         aux2=aux20>>3;
 12815   0030EE  39B6               	swapf	_aux20& (0+255),w,b
 12816   0030F0  46E8               	rlncf	wreg,f,c
 12817   0030F2  0B1F               	andlw	31
 12818   0030F4  6E19               	movwf	_aux2^0,c
 12819                           
 12820                           ;conversionTemp.c: 172:                         aux2=aux2&0b00011111;
 12821   0030F6  5019               	movf	_aux2^0,w,c
 12822   0030F8  0B1F               	andlw	31
 12823   0030FA  6E19               	movwf	_aux2^0,c
 12824   0030FC                     
 12825                           ; BSR set to: 0
 12826                           ;conversionTemp.c: 173:                         if((aux21 & 0x01) == 0x01 ){
 12827   0030FC  A014               	btfss	_aux21^0,0,c
 12828   0030FE  EF83  F018         	goto	u8501
 12829   003102  EF85  F018         	goto	u8500
 12830   003106                     u8501:
 12831   003106  EF88  F018         	goto	l8197
 12832   00310A                     u8500:
 12833   00310A                     
 12834                           ; BSR set to: 0
 12835                           ;conversionTemp.c: 174:                             aux2 = aux2 + 0x20;
 12836   00310A  5019               	movf	_aux2^0,w,c
 12837   00310C  0F20               	addlw	32
 12838   00310E  6E19               	movwf	_aux2^0,c
 12839   003110                     l8197:
 12840                           
 12841                           ; BSR set to: 0
 12842   003110  A214               	btfss	_aux21^0,1,c
 12843   003112  EF8D  F018         	goto	u8511
 12844   003116  EF8F  F018         	goto	u8510
 12845   00311A                     u8511:
 12846   00311A  EF92  F018         	goto	l8201
 12847   00311E                     u8510:
 12848   00311E                     
 12849                           ; BSR set to: 0
 12850                           ;conversionTemp.c: 176:                             aux2 = aux2 + 0x40;
 12851   00311E  5019               	movf	_aux2^0,w,c
 12852   003120  0F40               	addlw	64
 12853   003122  6E19               	movwf	_aux2^0,c
 12854   003124                     l8201:
 12855                           
 12856                           ; BSR set to: 0
 12857   003124  A414               	btfss	_aux21^0,2,c
 12858   003126  EF97  F018         	goto	u8521
 12859   00312A  EF99  F018         	goto	u8520
 12860   00312E                     u8521:
 12861   00312E  EF9C  F018         	goto	l1221
 12862   003132                     u8520:
 12863   003132                     
 12864                           ; BSR set to: 0
 12865                           ;conversionTemp.c: 178:                             aux2 = aux2 + 0x80;
 12866   003132  5019               	movf	_aux2^0,w,c
 12867   003134  0F80               	addlw	128
 12868   003136  6E19               	movwf	_aux2^0,c
 12869   003138                     l1221:
 12870                           
 12871                           ; BSR set to: 0
 12872                           ;conversionTemp.c: 180:                         if(offSet > 20){
 12873   003138  0E14               	movlw	20
 12874   00313A  642F               	cpfsgt	_offSet^0,c
 12875   00313C  EFA2  F018         	goto	u8531
 12876   003140  EFA4  F018         	goto	u8530
 12877   003144                     u8531:
 12878   003144  EFA7  F018         	goto	l1222
 12879   003148                     u8530:
 12880   003148                     
 12881                           ; BSR set to: 0
 12882                           ;conversionTemp.c: 181:                     aux2 = aux2 + offSet2;
 12883   003148  5019               	movf	_aux2^0,w,c
 12884   00314A  2422               	addwf	_offSet2^0,w,c
 12885   00314C  6E19               	movwf	_aux2^0,c
 12886   00314E                     l1222:
 12887                           
 12888                           ; BSR set to: 0
 12889   00314E  0E14               	movlw	20
 12890   003150  602F               	cpfslt	_offSet^0,c
 12891   003152  EFAD  F018         	goto	u8541
 12892   003156  EFAF  F018         	goto	u8540
 12893   00315A                     u8541:
 12894   00315A  EFBB  F018         	goto	l8211
 12895   00315E                     u8540:
 12896   00315E                     
 12897                           ; BSR set to: 0
 12898   00315E  5019               	movf	_aux2^0,w,c
 12899   003160  5C22               	subwf	_offSet2^0,w,c
 12900   003162  B0D8               	btfsc	status,0,c
 12901   003164  EFB6  F018         	goto	u8551
 12902   003168  EFB8  F018         	goto	u8550
 12903   00316C                     u8551:
 12904   00316C  EFBB  F018         	goto	l8211
 12905   003170                     u8550:
 12906   003170                     
 12907                           ; BSR set to: 0
 12908                           ;conversionTemp.c: 183:                     aux2 = aux2 - offSet2;
 12909   003170  5022               	movf	_offSet2^0,w,c
 12910   003172  5C19               	subwf	_aux2^0,w,c
 12911   003174  6E19               	movwf	_aux2^0,c
 12912   003176                     l8211:
 12913                           
 12914                           ; BSR set to: 0
 12915                           ;conversionTemp.c: 185:                         tempNeg2=0;
 12916   003176  0E00               	movlw	0
 12917   003178  6FC4               	movwf	_tempNeg2& (0+255),b
 12918   00317A                     
 12919                           ; BSR set to: 0
 12920                           ;conversionTemp.c: 186:                         if(aux21>=0x08){
 12921   00317A  0E07               	movlw	7
 12922   00317C  6414               	cpfsgt	_aux21^0,c
 12923   00317E  EFC3  F018         	goto	u8561
 12924   003182  EFC5  F018         	goto	u8560
 12925   003186                     u8561:
 12926   003186  EFF4  F018         	goto	l8231
 12927   00318A                     u8560:
 12928   00318A                     
 12929                           ; BSR set to: 0
 12930                           ;conversionTemp.c: 187:                             aux2=~aux2;
 12931   00318A  1E19               	comf	_aux2^0,f,c
 12932   00318C                     
 12933                           ; BSR set to: 0
 12934                           ;conversionTemp.c: 188:                             aux2=aux2+1;
 12935   00318C  2819               	incf	_aux2^0,w,c
 12936   00318E  6E19               	movwf	_aux2^0,c
 12937   003190                     
 12938                           ; BSR set to: 0
 12939                           ;conversionTemp.c: 189:                             tempNeg2=1;
 12940   003190  0E01               	movlw	1
 12941   003192  6FC4               	movwf	_tempNeg2& (0+255),b
 12942   003194                     
 12943                           ; BSR set to: 0
 12944                           ;conversionTemp.c: 190:                             if(offSet > 20){
 12945   003194  0E14               	movlw	20
 12946   003196  642F               	cpfsgt	_offSet^0,c
 12947   003198  EFD0  F018         	goto	u8571
 12948   00319C  EFD2  F018         	goto	u8570
 12949   0031A0                     u8571:
 12950   0031A0  EFD5  F018         	goto	l1225
 12951   0031A4                     u8570:
 12952   0031A4                     
 12953                           ; BSR set to: 0
 12954                           ;conversionTemp.c: 191:                     aux2 = aux2 - offSet2;
 12955   0031A4  5022               	movf	_offSet2^0,w,c
 12956   0031A6  5C19               	subwf	_aux2^0,w,c
 12957   0031A8  6E19               	movwf	_aux2^0,c
 12958   0031AA                     l1225:
 12959                           
 12960                           ; BSR set to: 0
 12961   0031AA  0E14               	movlw	20
 12962   0031AC  602F               	cpfslt	_offSet^0,c
 12963   0031AE  EFDB  F018         	goto	u8581
 12964   0031B2  EFDD  F018         	goto	u8580
 12965   0031B6                     u8581:
 12966   0031B6  EFF4  F018         	goto	l8231
 12967   0031BA                     u8580:
 12968   0031BA  EF72  F018         	goto	l8189
 12969   0031BE                     l8229:
 12970                           
 12971                           ; BSR set to: 0
 12972   0031BE  517A               	movf	_lectRom2& (0+255),w,b
 12973   0031C0  6E49               	movwf	??_conversionTemp^0,c
 12974   0031C2  6A4A               	clrf	(??_conversionTemp+1)^0,c
 12975                           
 12976                           ; Switch on 2 bytes has been partitioned into a top level switch of size 1, and 1 sub-sw
      +                          itches
 12977                           ; Switch size 1, requested type "simple"
 12978                           ; Number of cases is 1, Range of values is 0 to 0
 12979                           ; switch strategies available:
 12980                           ; Name         Instructions Cycles
 12981                           ; simple_byte            4     3 (average)
 12982                           ;	Chosen strategy is simple_byte
 12983   0031C4  504A               	movf	(??_conversionTemp+1)^0,w,c
 12984   0031C6  0A00               	xorlw	0	; case 0
 12985   0031C8  B4D8               	btfsc	status,2,c
 12986   0031CA  EFE9  F018         	goto	l10345
 12987   0031CE  EFF4  F018         	goto	l8231
 12988   0031D2                     l10345:
 12989                           
 12990                           ; BSR set to: 0
 12991                           ; Switch size 1, requested type "simple"
 12992                           ; Number of cases is 2, Range of values is 16 to 40
 12993                           ; switch strategies available:
 12994                           ; Name         Instructions Cycles
 12995                           ; simple_byte            7     4 (average)
 12996                           ;	Chosen strategy is simple_byte
 12997   0031D2  5049               	movf	??_conversionTemp^0,w,c
 12998   0031D4  0A10               	xorlw	16	; case 16
 12999   0031D6  B4D8               	btfsc	status,2,c
 13000   0031D8  EF2D  F018         	goto	l1211
 13001   0031DC  0A38               	xorlw	56	; case 40
 13002   0031DE  B4D8               	btfsc	status,2,c
 13003   0031E0  EF77  F018         	goto	l8191
 13004   0031E4  EFF4  F018         	goto	l8231
 13005   0031E8                     l8231:
 13006                           
 13007                           ; BSR set to: 0
 13008                           ;conversionTemp.c: 214:         resetWatch = 0;
 13009   0031E8  0E00               	movlw	0
 13010   0031EA  6F9F               	movwf	(_resetWatch+1)& (0+255),b
 13011   0031EC  0E00               	movlw	0
 13012   0031EE  6F9E               	movwf	_resetWatch& (0+255),b
 13013                           
 13014                           ;conversionTemp.c: 216:         if((alarmLect1==0)&&(alarmLect2==0)&&(alarma1==0)&&(alar
      +                          ma2==0)&&(alarmaLamp1==0)&&(alarmaLamp2==0)){
 13015   0031F0  5024               	movf	_alarmLect1^0,w,c
 13016   0031F2  A4D8               	btfss	status,2,c
 13017   0031F4  EFFE  F018         	goto	u8591
 13018   0031F8  EF00  F019         	goto	u8590
 13019   0031FC                     u8591:
 13020   0031FC  EF42  F019         	goto	l1227
 13021   003200                     u8590:
 13022   003200                     
 13023                           ; BSR set to: 0
 13024   003200  5023               	movf	_alarmLect2^0,w,c
 13025   003202  A4D8               	btfss	status,2,c
 13026   003204  EF06  F019         	goto	u8601
 13027   003208  EF08  F019         	goto	u8600
 13028   00320C                     u8601:
 13029   00320C  EF42  F019         	goto	l1227
 13030   003210                     u8600:
 13031   003210                     
 13032                           ; BSR set to: 0
 13033   003210  501D               	movf	_alarma1^0,w,c
 13034   003212  A4D8               	btfss	status,2,c
 13035   003214  EF0E  F019         	goto	u8611
 13036   003218  EF10  F019         	goto	u8610
 13037   00321C                     u8611:
 13038   00321C  EF42  F019         	goto	l1227
 13039   003220                     u8610:
 13040   003220                     
 13041                           ; BSR set to: 0
 13042   003220  501E               	movf	_alarma2^0,w,c
 13043   003222  A4D8               	btfss	status,2,c
 13044   003224  EF16  F019         	goto	u8621
 13045   003228  EF18  F019         	goto	u8620
 13046   00322C                     u8621:
 13047   00322C  EF42  F019         	goto	l1227
 13048   003230                     u8620:
 13049   003230                     
 13050                           ; BSR set to: 0
 13051   003230  5018               	movf	_alarmaLamp1^0,w,c
 13052   003232  A4D8               	btfss	status,2,c
 13053   003234  EF1E  F019         	goto	u8631
 13054   003238  EF20  F019         	goto	u8630
 13055   00323C                     u8631:
 13056   00323C  EF42  F019         	goto	l1227
 13057   003240                     u8630:
 13058   003240                     
 13059                           ; BSR set to: 0
 13060   003240  5017               	movf	_alarmaLamp2^0,w,c
 13061   003242  A4D8               	btfss	status,2,c
 13062   003244  EF26  F019         	goto	u8641
 13063   003248  EF28  F019         	goto	u8640
 13064   00324C                     u8641:
 13065   00324C  EF42  F019         	goto	l1227
 13066   003250                     u8640:
 13067   003250                     
 13068                           ; BSR set to: 0
 13069                           ;conversionTemp.c: 217:             tempDisplay = (aux1 + aux2)>>2;
 13070   003250  5019               	movf	_aux2^0,w,c
 13071   003252  C01A  F049         	movff	_aux1,??_conversionTemp
 13072   003256  6A4A               	clrf	(??_conversionTemp+1)^0,c
 13073   003258  2649               	addwf	??_conversionTemp^0,f,c
 13074   00325A  0E00               	movlw	0
 13075   00325C  224A               	addwfc	(??_conversionTemp+1)^0,f,c
 13076   00325E  344A               	rlcf	(??_conversionTemp+1)^0,w,c
 13077   003260  324A               	rrcf	(??_conversionTemp+1)^0,f,c
 13078   003262  3249               	rrcf	??_conversionTemp^0,f,c
 13079   003264  344A               	rlcf	(??_conversionTemp+1)^0,w,c
 13080   003266  324A               	rrcf	(??_conversionTemp+1)^0,f,c
 13081   003268  3249               	rrcf	??_conversionTemp^0,f,c
 13082   00326A  5049               	movf	??_conversionTemp^0,w,c
 13083   00326C  6E37               	movwf	_tempDisplay^0,c
 13084                           
 13085                           ;conversionTemp.c: 218:             tempDisplay = tempAnterior + tempDisplay;
 13086   00326E  51D0               	movf	_tempAnterior& (0+255),w,b
 13087   003270  2437               	addwf	_tempDisplay^0,w,c
 13088   003272  6E37               	movwf	_tempDisplay^0,c
 13089                           
 13090                           ;conversionTemp.c: 219:             tempDecimal = tempDisplay & 0x01;
 13091   003274  5037               	movf	_tempDisplay^0,w,c
 13092   003276  0B01               	andlw	1
 13093   003278  6E36               	movwf	_tempDecimal^0,c
 13094                           
 13095                           ;conversionTemp.c: 220:             tempDisplay = tempDisplay >> 1;
 13096   00327A  90D8               	bcf	status,0,c
 13097   00327C  3037               	rrcf	_tempDisplay^0,w,c
 13098   00327E  6E37               	movwf	_tempDisplay^0,c
 13099   003280                     
 13100                           ; BSR set to: 0
 13101                           ;conversionTemp.c: 221:             tempAnterior = tempDisplay;
 13102   003280  C037  F0D0         	movff	_tempDisplay,_tempAnterior
 13103   003284                     l1227:
 13104                           
 13105                           ; BSR set to: 0
 13106                           ;conversionTemp.c: 335:         if((((alarmLect1==1)||(alarma1>0))&&((alarma2==0)&&(alar
      +                          mLect2==0)))||(alarmaLamp1 > 0)){
 13107   003284  0424               	decf	_alarmLect1^0,w,c
 13108   003286  B4D8               	btfsc	status,2,c
 13109   003288  EF48  F019         	goto	u8651
 13110   00328C  EF4A  F019         	goto	u8650
 13111   003290                     u8651:
 13112   003290  EF52  F019         	goto	l8249
 13113   003294                     u8650:
 13114   003294                     
 13115                           ; BSR set to: 0
 13116   003294  501D               	movf	_alarma1^0,w,c
 13117   003296  B4D8               	btfsc	status,2,c
 13118   003298  EF50  F019         	goto	u8661
 13119   00329C  EF52  F019         	goto	u8660
 13120   0032A0                     u8661:
 13121   0032A0  EF62  F019         	goto	l8253
 13122   0032A4                     u8660:
 13123   0032A4                     l8249:
 13124                           
 13125                           ; BSR set to: 0
 13126   0032A4  501E               	movf	_alarma2^0,w,c
 13127   0032A6  A4D8               	btfss	status,2,c
 13128   0032A8  EF58  F019         	goto	u8671
 13129   0032AC  EF5A  F019         	goto	u8670
 13130   0032B0                     u8671:
 13131   0032B0  EF62  F019         	goto	l8253
 13132   0032B4                     u8670:
 13133   0032B4                     
 13134                           ; BSR set to: 0
 13135   0032B4  5023               	movf	_alarmLect2^0,w,c
 13136   0032B6  B4D8               	btfsc	status,2,c
 13137   0032B8  EF60  F019         	goto	u8681
 13138   0032BC  EF62  F019         	goto	u8680
 13139   0032C0                     u8681:
 13140   0032C0  EF6A  F019         	goto	l8255
 13141   0032C4                     u8680:
 13142   0032C4                     l8253:
 13143                           
 13144                           ; BSR set to: 0
 13145   0032C4  5018               	movf	_alarmaLamp1^0,w,c
 13146   0032C6  B4D8               	btfsc	status,2,c
 13147   0032C8  EF68  F019         	goto	u8691
 13148   0032CC  EF6A  F019         	goto	u8690
 13149   0032D0                     u8691:
 13150   0032D0  EF84  F019         	goto	l1228
 13151   0032D4                     u8690:
 13152   0032D4                     l8255:
 13153                           
 13154                           ; BSR set to: 0
 13155                           ;conversionTemp.c: 336:             tempDeci2 = aux2 & 0x01;
 13156   0032D4  5019               	movf	_aux2^0,w,c
 13157   0032D6  0B01               	andlw	1
 13158   0032D8  6FC2               	movwf	_tempDeci2& (0+255),b
 13159   0032DA                     
 13160                           ; BSR set to: 0
 13161                           ;conversionTemp.c: 337:             tempNeg=tempNeg2;
 13162   0032DA  C0C4  F035         	movff	_tempNeg2,_tempNeg
 13163                           
 13164                           ;conversionTemp.c: 338:             tempDisplay=((aux2>>1) + tempAnterior)>>1;
 13165   0032DE  51D0               	movf	_tempAnterior& (0+255),w,b
 13166   0032E0  C019  F049         	movff	_aux2,??_conversionTemp
 13167   0032E4  90D8               	bcf	status,0,c
 13168   0032E6  3249               	rrcf	??_conversionTemp^0,f,c
 13169   0032E8  C049  F04A         	movff	??_conversionTemp,??_conversionTemp+1
 13170   0032EC  6A4B               	clrf	(??_conversionTemp+2)^0,c
 13171   0032EE  264A               	addwf	(??_conversionTemp+1)^0,f,c
 13172   0032F0  0E00               	movlw	0
 13173   0032F2  224B               	addwfc	(??_conversionTemp+2)^0,f,c
 13174   0032F4  344B               	rlcf	(??_conversionTemp+2)^0,w,c
 13175   0032F6  304B               	rrcf	(??_conversionTemp+2)^0,w,c
 13176   0032F8  6E4D               	movwf	(??_conversionTemp+4)^0,c
 13177   0032FA  304A               	rrcf	(??_conversionTemp+1)^0,w,c
 13178   0032FC  6E4C               	movwf	(??_conversionTemp+3)^0,c
 13179   0032FE  504C               	movf	(??_conversionTemp+3)^0,w,c
 13180   003300  6E37               	movwf	_tempDisplay^0,c
 13181                           
 13182                           ;conversionTemp.c: 339:             tempAnterior=aux2>>1;
 13183   003302  90D8               	bcf	status,0,c
 13184   003304  3019               	rrcf	_aux2^0,w,c
 13185   003306  6FD0               	movwf	_tempAnterior& (0+255),b
 13186   003308                     l1228:
 13187                           
 13188                           ; BSR set to: 0
 13189                           ;conversionTemp.c: 341:         if((((alarmLect2==1)||(alarma2>0))&&((alarma1==0)&&(alar
      +                          mLect1==0)))||(alarmaLamp2 > 0)){
 13190   003308  0423               	decf	_alarmLect2^0,w,c
 13191   00330A  B4D8               	btfsc	status,2,c
 13192   00330C  EF8A  F019         	goto	u8701
 13193   003310  EF8C  F019         	goto	u8700
 13194   003314                     u8701:
 13195   003314  EF94  F019         	goto	l8261
 13196   003318                     u8700:
 13197   003318                     
 13198                           ; BSR set to: 0
 13199   003318  501E               	movf	_alarma2^0,w,c
 13200   00331A  B4D8               	btfsc	status,2,c
 13201   00331C  EF92  F019         	goto	u8711
 13202   003320  EF94  F019         	goto	u8710
 13203   003324                     u8711:
 13204   003324  EFA4  F019         	goto	l8265
 13205   003328                     u8710:
 13206   003328                     l8261:
 13207                           
 13208                           ; BSR set to: 0
 13209   003328  501D               	movf	_alarma1^0,w,c
 13210   00332A  A4D8               	btfss	status,2,c
 13211   00332C  EF9A  F019         	goto	u8721
 13212   003330  EF9C  F019         	goto	u8720
 13213   003334                     u8721:
 13214   003334  EFA4  F019         	goto	l8265
 13215   003338                     u8720:
 13216   003338                     
 13217                           ; BSR set to: 0
 13218   003338  5024               	movf	_alarmLect1^0,w,c
 13219   00333A  B4D8               	btfsc	status,2,c
 13220   00333C  EFA2  F019         	goto	u8731
 13221   003340  EFA4  F019         	goto	u8730
 13222   003344                     u8731:
 13223   003344  EFAC  F019         	goto	l8267
 13224   003348                     u8730:
 13225   003348                     l8265:
 13226                           
 13227                           ; BSR set to: 0
 13228   003348  5017               	movf	_alarmaLamp2^0,w,c
 13229   00334A  B4D8               	btfsc	status,2,c
 13230   00334C  EFAA  F019         	goto	u8741
 13231   003350  EFAC  F019         	goto	u8740
 13232   003354                     u8741:
 13233   003354  EFC6  F019         	goto	l8271
 13234   003358                     u8740:
 13235   003358                     l8267:
 13236                           
 13237                           ; BSR set to: 0
 13238                           ;conversionTemp.c: 342:             tempDeci1 = aux1 & 0x01;
 13239   003358  501A               	movf	_aux1^0,w,c
 13240   00335A  0B01               	andlw	1
 13241   00335C  6FC3               	movwf	_tempDeci1& (0+255),b
 13242   00335E                     
 13243                           ; BSR set to: 0
 13244                           ;conversionTemp.c: 343:             tempNeg=tempNeg1;
 13245   00335E  C0C5  F035         	movff	_tempNeg1,_tempNeg
 13246                           
 13247                           ;conversionTemp.c: 344:             tempDisplay=((aux1>>1) + tempAnterior)>>1;
 13248   003362  51D0               	movf	_tempAnterior& (0+255),w,b
 13249   003364  C01A  F049         	movff	_aux1,??_conversionTemp
 13250   003368  90D8               	bcf	status,0,c
 13251   00336A  3249               	rrcf	??_conversionTemp^0,f,c
 13252   00336C  C049  F04A         	movff	??_conversionTemp,??_conversionTemp+1
 13253   003370  6A4B               	clrf	(??_conversionTemp+2)^0,c
 13254   003372  264A               	addwf	(??_conversionTemp+1)^0,f,c
 13255   003374  0E00               	movlw	0
 13256   003376  224B               	addwfc	(??_conversionTemp+2)^0,f,c
 13257   003378  344B               	rlcf	(??_conversionTemp+2)^0,w,c
 13258   00337A  304B               	rrcf	(??_conversionTemp+2)^0,w,c
 13259   00337C  6E4D               	movwf	(??_conversionTemp+4)^0,c
 13260   00337E  304A               	rrcf	(??_conversionTemp+1)^0,w,c
 13261   003380  6E4C               	movwf	(??_conversionTemp+3)^0,c
 13262   003382  504C               	movf	(??_conversionTemp+3)^0,w,c
 13263   003384  6E37               	movwf	_tempDisplay^0,c
 13264                           
 13265                           ;conversionTemp.c: 345:             tempAnterior=aux1>>1;
 13266   003386  90D8               	bcf	status,0,c
 13267   003388  301A               	rrcf	_aux1^0,w,c
 13268   00338A  6FD0               	movwf	_tempAnterior& (0+255),b
 13269   00338C                     l8271:
 13270                           
 13271                           ; BSR set to: 0
 13272                           ;conversionTemp.c: 347:         if(((alarma1>0)||(alarmLect1==1))&&((alarma2>0)||(alarmL
      +                          ect2==1))){
 13273   00338C  501D               	movf	_alarma1^0,w,c
 13274   00338E  A4D8               	btfss	status,2,c
 13275   003390  EFCC  F019         	goto	u8751
 13276   003394  EFCE  F019         	goto	u8750
 13277   003398                     u8751:
 13278   003398  EFD6  F019         	goto	l8275
 13279   00339C                     u8750:
 13280   00339C                     
 13281                           ; BSR set to: 0
 13282   00339C  0424               	decf	_alarmLect1^0,w,c
 13283   00339E  A4D8               	btfss	status,2,c
 13284   0033A0  EFD4  F019         	goto	u8761
 13285   0033A4  EFD6  F019         	goto	u8760
 13286   0033A8                     u8761:
 13287   0033A8  EFEA  F019         	goto	l8281
 13288   0033AC                     u8760:
 13289   0033AC                     l8275:
 13290                           
 13291                           ; BSR set to: 0
 13292   0033AC  501E               	movf	_alarma2^0,w,c
 13293   0033AE  A4D8               	btfss	status,2,c
 13294   0033B0  EFDC  F019         	goto	u8771
 13295   0033B4  EFDE  F019         	goto	u8770
 13296   0033B8                     u8771:
 13297   0033B8  EFE6  F019         	goto	l8279
 13298   0033BC                     u8770:
 13299   0033BC                     
 13300                           ; BSR set to: 0
 13301   0033BC  0423               	decf	_alarmLect2^0,w,c
 13302   0033BE  A4D8               	btfss	status,2,c
 13303   0033C0  EFE4  F019         	goto	u8781
 13304   0033C4  EFE6  F019         	goto	u8780
 13305   0033C8                     u8781:
 13306   0033C8  EFEA  F019         	goto	l8281
 13307   0033CC                     u8780:
 13308   0033CC                     l8279:
 13309                           
 13310                           ; BSR set to: 0
 13311                           ;conversionTemp.c: 348:             alarmaLectura=1;
 13312   0033CC  0E01               	movlw	1
 13313   0033CE  6FCE               	movwf	_alarmaLectura& (0+255),b
 13314                           
 13315                           ;conversionTemp.c: 349:         }else{
 13316   0033D0  EFEC  F019         	goto	l1251
 13317   0033D4                     l8281:
 13318                           
 13319                           ; BSR set to: 0
 13320                           ;conversionTemp.c: 350:            alarmaLectura=0;
 13321   0033D4  0E00               	movlw	0
 13322   0033D6  6FCE               	movwf	_alarmaLectura& (0+255),b
 13323   0033D8                     l1251:
 13324                           
 13325                           ; BSR set to: 0
 13326                           ;conversionTemp.c: 352:     resetWatch = 0;
 13327   0033D8  0E00               	movlw	0
 13328   0033DA  6F9F               	movwf	(_resetWatch+1)& (0+255),b
 13329   0033DC  0E00               	movlw	0
 13330   0033DE  6F9E               	movwf	_resetWatch& (0+255),b
 13331   0033E0                     
 13332                           ; BSR set to: 0
 13333   0033E0  0012               	return		;funcret
 13334   0033E2                     __end_of_conversionTemp:
 13335                           	callstack 0
 13336                           
 13337 ;; *************** function _alarma *****************
 13338 ;; Defined at:
 13339 ;;		line 22 in file "alarma.c"
 13340 ;; Parameters:    Size  Location     Type
 13341 ;;		None
 13342 ;; Auto vars:     Size  Location     Type
 13343 ;;		None
 13344 ;; Return value:  Size  Location     Type
 13345 ;;                  1    wreg      void 
 13346 ;; Registers used:
 13347 ;;		wreg, status,2, status,0
 13348 ;; Tracked objects:
 13349 ;;		On entry : 0/0
 13350 ;;		On exit  : 0/0
 13351 ;;		Unchanged: 0/0
 13352 ;; Data sizes:     COMRAM   BANK0   BANK1   BANK2   BANK3   BANK4   BANK5
 13353 ;;      Params:         0       0       0       0       0       0       0
 13354 ;;      Locals:         0       0       0       0       0       0       0
 13355 ;;      Temps:          5       0       0       0       0       0       0
 13356 ;;      Totals:         5       0       0       0       0       0       0
 13357 ;;Total ram usage:        5 bytes
 13358 ;; Hardware stack levels used: 1
 13359 ;; Hardware stack levels required when called: 2
 13360 ;; This function calls:
 13361 ;;		Nothing
 13362 ;; This function is called by:
 13363 ;;		_main
 13364 ;; This function uses a non-reentrant model
 13365 ;;
 13366                           
 13367                           	psect	text30
 13368   001B60                     __ptext30:
 13369                           	callstack 0
 13370   001B60                     _alarma:
 13371                           	callstack 28
 13372   001B60                     
 13373                           ;alarma.c: 23:     INTCONbits.INT0E = 1;
 13374   001B60  88F2               	bsf	242,4,c	;volatile
 13375   001B62                     
 13376                           ;alarma.c: 31:       resetWatch = 0;
 13377   001B62  0E00               	movlw	0
 13378   001B64  0100               	movlb	0	; () banked
 13379   001B66  6F9F               	movwf	(_resetWatch+1)& (0+255),b
 13380   001B68  0E00               	movlw	0
 13381   001B6A  6F9E               	movwf	_resetWatch& (0+255),b
 13382                           
 13383                           ;alarma.c: 32:    if(((lectScrat1[0]== 0)&&(lectScrat1[1]==0)&&(lectScrat1[2]==0)&&(lect
      +                          Scrat1[3]==0)
 13384   001B6C  5169               	movf	_lectScrat1& (0+255),w,b
 13385   001B6E  A4D8               	btfss	status,2,c
 13386   001B70  EFBC  F00D         	goto	u8791
 13387   001B74  EFBE  F00D         	goto	u8790
 13388   001B78                     u8791:
 13389   001B78  EFFE  F00D         	goto	l8317
 13390   001B7C                     u8790:
 13391   001B7C                     
 13392                           ; BSR set to: 0
 13393   001B7C  516A               	movf	(_lectScrat1+1)& (0+255),w,b
 13394   001B7E  A4D8               	btfss	status,2,c
 13395   001B80  EFC4  F00D         	goto	u8801
 13396   001B84  EFC6  F00D         	goto	u8800
 13397   001B88                     u8801:
 13398   001B88  EFFE  F00D         	goto	l8317
 13399   001B8C                     u8800:
 13400   001B8C                     
 13401                           ; BSR set to: 0
 13402   001B8C  516B               	movf	(_lectScrat1+2)& (0+255),w,b
 13403   001B8E  A4D8               	btfss	status,2,c
 13404   001B90  EFCC  F00D         	goto	u8811
 13405   001B94  EFCE  F00D         	goto	u8810
 13406   001B98                     u8811:
 13407   001B98  EFFE  F00D         	goto	l8317
 13408   001B9C                     u8810:
 13409   001B9C                     
 13410                           ; BSR set to: 0
 13411   001B9C  516C               	movf	(_lectScrat1+3)& (0+255),w,b
 13412   001B9E  A4D8               	btfss	status,2,c
 13413   001BA0  EFD4  F00D         	goto	u8821
 13414   001BA4  EFD6  F00D         	goto	u8820
 13415   001BA8                     u8821:
 13416   001BA8  EFFE  F00D         	goto	l8317
 13417   001BAC                     u8820:
 13418   001BAC                     
 13419                           ; BSR set to: 0
 13420   001BAC  516D               	movf	(_lectScrat1+4)& (0+255),w,b
 13421   001BAE  A4D8               	btfss	status,2,c
 13422   001BB0  EFDC  F00D         	goto	u8831
 13423   001BB4  EFDE  F00D         	goto	u8830
 13424   001BB8                     u8831:
 13425   001BB8  EFFE  F00D         	goto	l8317
 13426   001BBC                     u8830:
 13427   001BBC                     
 13428                           ; BSR set to: 0
 13429   001BBC  516E               	movf	(_lectScrat1+5)& (0+255),w,b
 13430   001BBE  A4D8               	btfss	status,2,c
 13431   001BC0  EFE4  F00D         	goto	u8841
 13432   001BC4  EFE6  F00D         	goto	u8840
 13433   001BC8                     u8841:
 13434   001BC8  EFFE  F00D         	goto	l8317
 13435   001BCC                     u8840:
 13436   001BCC                     
 13437                           ; BSR set to: 0
 13438   001BCC  516F               	movf	(_lectScrat1+6)& (0+255),w,b
 13439   001BCE  A4D8               	btfss	status,2,c
 13440   001BD0  EFEC  F00D         	goto	u8851
 13441   001BD4  EFEE  F00D         	goto	u8850
 13442   001BD8                     u8851:
 13443   001BD8  EFFE  F00D         	goto	l8317
 13444   001BDC                     u8850:
 13445   001BDC                     
 13446                           ; BSR set to: 0
 13447   001BDC  5170               	movf	(_lectScrat1+7)& (0+255),w,b
 13448   001BDE  A4D8               	btfss	status,2,c
 13449   001BE0  EFF4  F00D         	goto	u8861
 13450   001BE4  EFF6  F00D         	goto	u8860
 13451   001BE8                     u8861:
 13452   001BE8  EFFE  F00D         	goto	l8317
 13453   001BEC                     u8860:
 13454   001BEC                     
 13455                           ; BSR set to: 0
 13456   001BEC  5171               	movf	(_lectScrat1+8)& (0+255),w,b
 13457   001BEE  B4D8               	btfsc	status,2,c
 13458   001BF0  EFFC  F00D         	goto	u8871
 13459   001BF4  EFFE  F00D         	goto	u8870
 13460   001BF8                     u8871:
 13461   001BF8  EF66  F00E         	goto	l8343
 13462   001BFC                     u8870:
 13463   001BFC                     l8317:
 13464                           
 13465                           ; BSR set to: 0
 13466   001BFC  2969               	incf	_lectScrat1& (0+255),w,b
 13467   001BFE  A4D8               	btfss	status,2,c
 13468   001C00  EF04  F00E         	goto	u8881
 13469   001C04  EF06  F00E         	goto	u8880
 13470   001C08                     u8881:
 13471   001C08  EF46  F00E         	goto	l8335
 13472   001C0C                     u8880:
 13473   001C0C                     
 13474                           ; BSR set to: 0
 13475   001C0C  296A               	incf	(_lectScrat1+1)& (0+255),w,b
 13476   001C0E  A4D8               	btfss	status,2,c
 13477   001C10  EF0C  F00E         	goto	u8891
 13478   001C14  EF0E  F00E         	goto	u8890
 13479   001C18                     u8891:
 13480   001C18  EF46  F00E         	goto	l8335
 13481   001C1C                     u8890:
 13482   001C1C                     
 13483                           ; BSR set to: 0
 13484   001C1C  296B               	incf	(_lectScrat1+2)& (0+255),w,b
 13485   001C1E  A4D8               	btfss	status,2,c
 13486   001C20  EF14  F00E         	goto	u8901
 13487   001C24  EF16  F00E         	goto	u8900
 13488   001C28                     u8901:
 13489   001C28  EF46  F00E         	goto	l8335
 13490   001C2C                     u8900:
 13491   001C2C                     
 13492                           ; BSR set to: 0
 13493   001C2C  296C               	incf	(_lectScrat1+3)& (0+255),w,b
 13494   001C2E  A4D8               	btfss	status,2,c
 13495   001C30  EF1C  F00E         	goto	u8911
 13496   001C34  EF1E  F00E         	goto	u8910
 13497   001C38                     u8911:
 13498   001C38  EF46  F00E         	goto	l8335
 13499   001C3C                     u8910:
 13500   001C3C                     
 13501                           ; BSR set to: 0
 13502   001C3C  296D               	incf	(_lectScrat1+4)& (0+255),w,b
 13503   001C3E  A4D8               	btfss	status,2,c
 13504   001C40  EF24  F00E         	goto	u8921
 13505   001C44  EF26  F00E         	goto	u8920
 13506   001C48                     u8921:
 13507   001C48  EF46  F00E         	goto	l8335
 13508   001C4C                     u8920:
 13509   001C4C                     
 13510                           ; BSR set to: 0
 13511   001C4C  296E               	incf	(_lectScrat1+5)& (0+255),w,b
 13512   001C4E  A4D8               	btfss	status,2,c
 13513   001C50  EF2C  F00E         	goto	u8931
 13514   001C54  EF2E  F00E         	goto	u8930
 13515   001C58                     u8931:
 13516   001C58  EF46  F00E         	goto	l8335
 13517   001C5C                     u8930:
 13518   001C5C                     
 13519                           ; BSR set to: 0
 13520   001C5C  296F               	incf	(_lectScrat1+6)& (0+255),w,b
 13521   001C5E  A4D8               	btfss	status,2,c
 13522   001C60  EF34  F00E         	goto	u8941
 13523   001C64  EF36  F00E         	goto	u8940
 13524   001C68                     u8941:
 13525   001C68  EF46  F00E         	goto	l8335
 13526   001C6C                     u8940:
 13527   001C6C                     
 13528                           ; BSR set to: 0
 13529   001C6C  2970               	incf	(_lectScrat1+7)& (0+255),w,b
 13530   001C6E  A4D8               	btfss	status,2,c
 13531   001C70  EF3C  F00E         	goto	u8951
 13532   001C74  EF3E  F00E         	goto	u8950
 13533   001C78                     u8951:
 13534   001C78  EF46  F00E         	goto	l8335
 13535   001C7C                     u8950:
 13536   001C7C                     
 13537                           ; BSR set to: 0
 13538   001C7C  2971               	incf	(_lectScrat1+8)& (0+255),w,b
 13539   001C7E  B4D8               	btfsc	status,2,c
 13540   001C80  EF44  F00E         	goto	u8961
 13541   001C84  EF46  F00E         	goto	u8960
 13542   001C88                     u8961:
 13543   001C88  EF66  F00E         	goto	l8343
 13544   001C8C                     u8960:
 13545   001C8C                     l8335:
 13546                           
 13547                           ; BSR set to: 0
 13548   001C8C  2969               	incf	_lectScrat1& (0+255),w,b
 13549   001C8E  A4D8               	btfss	status,2,c
 13550   001C90  EF4C  F00E         	goto	u8971
 13551   001C94  EF4E  F00E         	goto	u8970
 13552   001C98                     u8971:
 13553   001C98  EF56  F00E         	goto	l8339
 13554   001C9C                     u8970:
 13555   001C9C                     
 13556                           ; BSR set to: 0
 13557   001C9C  516A               	movf	(_lectScrat1+1)& (0+255),w,b
 13558   001C9E  B4D8               	btfsc	status,2,c
 13559   001CA0  EF54  F00E         	goto	u8981
 13560   001CA4  EF56  F00E         	goto	u8980
 13561   001CA8                     u8981:
 13562   001CA8  EF66  F00E         	goto	l8343
 13563   001CAC                     u8980:
 13564   001CAC                     l8339:
 13565                           
 13566                           ; BSR set to: 0
 13567   001CAC  2969               	incf	_lectScrat1& (0+255),w,b
 13568   001CAE  A4D8               	btfss	status,2,c
 13569   001CB0  EF5C  F00E         	goto	u8991
 13570   001CB4  EF5E  F00E         	goto	u8990
 13571   001CB8                     u8991:
 13572   001CB8  EF6A  F00E         	goto	l8345
 13573   001CBC                     u8990:
 13574   001CBC                     
 13575                           ; BSR set to: 0
 13576   001CBC  516A               	movf	(_lectScrat1+1)& (0+255),w,b
 13577   001CBE  A4D8               	btfss	status,2,c
 13578   001CC0  EF64  F00E         	goto	u9001
 13579   001CC4  EF66  F00E         	goto	u9000
 13580   001CC8                     u9001:
 13581   001CC8  EF6A  F00E         	goto	l8345
 13582   001CCC                     u9000:
 13583   001CCC                     l8343:
 13584                           
 13585                           ; BSR set to: 0
 13586                           ;alarma.c: 36:             &&(lectScrat1[6]==0xff)&&(lectScrat1[7]==0xff)&&(lectScrat1[8
      +                          ]==0xff))||(((lectScrat1[0]==0xff))&&(lectScrat1[1]==0x00))||((lectScrat1[0] == 0xff) &&
      +                           (lectScrat1[1] == 0))){;alarma.c: 37:         alarmLect1 = 1;
 13587   001CCC  0E01               	movlw	1
 13588   001CCE  6E24               	movwf	_alarmLect1^0,c
 13589                           
 13590                           ;alarma.c: 39:     }else{
 13591   001CD0  EF6C  F00E         	goto	l897
 13592   001CD4                     l8345:
 13593                           
 13594                           ; BSR set to: 0
 13595                           ;alarma.c: 40:         alarmLect1 = 0;
 13596   001CD4  0E00               	movlw	0
 13597   001CD6  6E24               	movwf	_alarmLect1^0,c
 13598   001CD8                     l897:
 13599                           
 13600                           ; BSR set to: 0
 13601                           ;alarma.c: 49:    if(((lectScrat2[0]== 0)&&(lectScrat2[1]==0)&&(lectScrat2[2]==0)&&(lect
      +                          Scrat2[3]==0)
 13602   001CD8  5160               	movf	_lectScrat2& (0+255),w,b
 13603   001CDA  A4D8               	btfss	status,2,c
 13604   001CDC  EF72  F00E         	goto	u9011
 13605   001CE0  EF74  F00E         	goto	u9010
 13606   001CE4                     u9011:
 13607   001CE4  EFB4  F00E         	goto	l8363
 13608   001CE8                     u9010:
 13609   001CE8                     
 13610                           ; BSR set to: 0
 13611   001CE8  5161               	movf	(_lectScrat2+1)& (0+255),w,b
 13612   001CEA  A4D8               	btfss	status,2,c
 13613   001CEC  EF7A  F00E         	goto	u9021
 13614   001CF0  EF7C  F00E         	goto	u9020
 13615   001CF4                     u9021:
 13616   001CF4  EFB4  F00E         	goto	l8363
 13617   001CF8                     u9020:
 13618   001CF8                     
 13619                           ; BSR set to: 0
 13620   001CF8  5162               	movf	(_lectScrat2+2)& (0+255),w,b
 13621   001CFA  A4D8               	btfss	status,2,c
 13622   001CFC  EF82  F00E         	goto	u9031
 13623   001D00  EF84  F00E         	goto	u9030
 13624   001D04                     u9031:
 13625   001D04  EFB4  F00E         	goto	l8363
 13626   001D08                     u9030:
 13627   001D08                     
 13628                           ; BSR set to: 0
 13629   001D08  5163               	movf	(_lectScrat2+3)& (0+255),w,b
 13630   001D0A  A4D8               	btfss	status,2,c
 13631   001D0C  EF8A  F00E         	goto	u9041
 13632   001D10  EF8C  F00E         	goto	u9040
 13633   001D14                     u9041:
 13634   001D14  EFB4  F00E         	goto	l8363
 13635   001D18                     u9040:
 13636   001D18                     
 13637                           ; BSR set to: 0
 13638   001D18  5164               	movf	(_lectScrat2+4)& (0+255),w,b
 13639   001D1A  A4D8               	btfss	status,2,c
 13640   001D1C  EF92  F00E         	goto	u9051
 13641   001D20  EF94  F00E         	goto	u9050
 13642   001D24                     u9051:
 13643   001D24  EFB4  F00E         	goto	l8363
 13644   001D28                     u9050:
 13645   001D28                     
 13646                           ; BSR set to: 0
 13647   001D28  5165               	movf	(_lectScrat2+5)& (0+255),w,b
 13648   001D2A  A4D8               	btfss	status,2,c
 13649   001D2C  EF9A  F00E         	goto	u9061
 13650   001D30  EF9C  F00E         	goto	u9060
 13651   001D34                     u9061:
 13652   001D34  EFB4  F00E         	goto	l8363
 13653   001D38                     u9060:
 13654   001D38                     
 13655                           ; BSR set to: 0
 13656   001D38  5166               	movf	(_lectScrat2+6)& (0+255),w,b
 13657   001D3A  A4D8               	btfss	status,2,c
 13658   001D3C  EFA2  F00E         	goto	u9071
 13659   001D40  EFA4  F00E         	goto	u9070
 13660   001D44                     u9071:
 13661   001D44  EFB4  F00E         	goto	l8363
 13662   001D48                     u9070:
 13663   001D48                     
 13664                           ; BSR set to: 0
 13665   001D48  5167               	movf	(_lectScrat2+7)& (0+255),w,b
 13666   001D4A  A4D8               	btfss	status,2,c
 13667   001D4C  EFAA  F00E         	goto	u9081
 13668   001D50  EFAC  F00E         	goto	u9080
 13669   001D54                     u9081:
 13670   001D54  EFB4  F00E         	goto	l8363
 13671   001D58                     u9080:
 13672   001D58                     
 13673                           ; BSR set to: 0
 13674   001D58  5168               	movf	(_lectScrat2+8)& (0+255),w,b
 13675   001D5A  B4D8               	btfsc	status,2,c
 13676   001D5C  EFB2  F00E         	goto	u9091
 13677   001D60  EFB4  F00E         	goto	u9090
 13678   001D64                     u9091:
 13679   001D64  EF1C  F00F         	goto	l8389
 13680   001D68                     u9090:
 13681   001D68                     l8363:
 13682                           
 13683                           ; BSR set to: 0
 13684   001D68  2960               	incf	_lectScrat2& (0+255),w,b
 13685   001D6A  A4D8               	btfss	status,2,c
 13686   001D6C  EFBA  F00E         	goto	u9101
 13687   001D70  EFBC  F00E         	goto	u9100
 13688   001D74                     u9101:
 13689   001D74  EFFC  F00E         	goto	l8381
 13690   001D78                     u9100:
 13691   001D78                     
 13692                           ; BSR set to: 0
 13693   001D78  2961               	incf	(_lectScrat2+1)& (0+255),w,b
 13694   001D7A  A4D8               	btfss	status,2,c
 13695   001D7C  EFC2  F00E         	goto	u9111
 13696   001D80  EFC4  F00E         	goto	u9110
 13697   001D84                     u9111:
 13698   001D84  EFFC  F00E         	goto	l8381
 13699   001D88                     u9110:
 13700   001D88                     
 13701                           ; BSR set to: 0
 13702   001D88  2962               	incf	(_lectScrat2+2)& (0+255),w,b
 13703   001D8A  A4D8               	btfss	status,2,c
 13704   001D8C  EFCA  F00E         	goto	u9121
 13705   001D90  EFCC  F00E         	goto	u9120
 13706   001D94                     u9121:
 13707   001D94  EFFC  F00E         	goto	l8381
 13708   001D98                     u9120:
 13709   001D98                     
 13710                           ; BSR set to: 0
 13711   001D98  2963               	incf	(_lectScrat2+3)& (0+255),w,b
 13712   001D9A  A4D8               	btfss	status,2,c
 13713   001D9C  EFD2  F00E         	goto	u9131
 13714   001DA0  EFD4  F00E         	goto	u9130
 13715   001DA4                     u9131:
 13716   001DA4  EFFC  F00E         	goto	l8381
 13717   001DA8                     u9130:
 13718   001DA8                     
 13719                           ; BSR set to: 0
 13720   001DA8  2964               	incf	(_lectScrat2+4)& (0+255),w,b
 13721   001DAA  A4D8               	btfss	status,2,c
 13722   001DAC  EFDA  F00E         	goto	u9141
 13723   001DB0  EFDC  F00E         	goto	u9140
 13724   001DB4                     u9141:
 13725   001DB4  EFFC  F00E         	goto	l8381
 13726   001DB8                     u9140:
 13727   001DB8                     
 13728                           ; BSR set to: 0
 13729   001DB8  2965               	incf	(_lectScrat2+5)& (0+255),w,b
 13730   001DBA  A4D8               	btfss	status,2,c
 13731   001DBC  EFE2  F00E         	goto	u9151
 13732   001DC0  EFE4  F00E         	goto	u9150
 13733   001DC4                     u9151:
 13734   001DC4  EFFC  F00E         	goto	l8381
 13735   001DC8                     u9150:
 13736   001DC8                     
 13737                           ; BSR set to: 0
 13738   001DC8  2966               	incf	(_lectScrat2+6)& (0+255),w,b
 13739   001DCA  A4D8               	btfss	status,2,c
 13740   001DCC  EFEA  F00E         	goto	u9161
 13741   001DD0  EFEC  F00E         	goto	u9160
 13742   001DD4                     u9161:
 13743   001DD4  EFFC  F00E         	goto	l8381
 13744   001DD8                     u9160:
 13745   001DD8                     
 13746                           ; BSR set to: 0
 13747   001DD8  2967               	incf	(_lectScrat2+7)& (0+255),w,b
 13748   001DDA  A4D8               	btfss	status,2,c
 13749   001DDC  EFF2  F00E         	goto	u9171
 13750   001DE0  EFF4  F00E         	goto	u9170
 13751   001DE4                     u9171:
 13752   001DE4  EFFC  F00E         	goto	l8381
 13753   001DE8                     u9170:
 13754   001DE8                     
 13755                           ; BSR set to: 0
 13756   001DE8  2968               	incf	(_lectScrat2+8)& (0+255),w,b
 13757   001DEA  B4D8               	btfsc	status,2,c
 13758   001DEC  EFFA  F00E         	goto	u9181
 13759   001DF0  EFFC  F00E         	goto	u9180
 13760   001DF4                     u9181:
 13761   001DF4  EF1C  F00F         	goto	l8389
 13762   001DF8                     u9180:
 13763   001DF8                     l8381:
 13764                           
 13765                           ; BSR set to: 0
 13766   001DF8  2960               	incf	_lectScrat2& (0+255),w,b
 13767   001DFA  A4D8               	btfss	status,2,c
 13768   001DFC  EF02  F00F         	goto	u9191
 13769   001E00  EF04  F00F         	goto	u9190
 13770   001E04                     u9191:
 13771   001E04  EF0C  F00F         	goto	l8385
 13772   001E08                     u9190:
 13773   001E08                     
 13774                           ; BSR set to: 0
 13775   001E08  5161               	movf	(_lectScrat2+1)& (0+255),w,b
 13776   001E0A  B4D8               	btfsc	status,2,c
 13777   001E0C  EF0A  F00F         	goto	u9201
 13778   001E10  EF0C  F00F         	goto	u9200
 13779   001E14                     u9201:
 13780   001E14  EF1C  F00F         	goto	l8389
 13781   001E18                     u9200:
 13782   001E18                     l8385:
 13783                           
 13784                           ; BSR set to: 0
 13785   001E18  2960               	incf	_lectScrat2& (0+255),w,b
 13786   001E1A  A4D8               	btfss	status,2,c
 13787   001E1C  EF12  F00F         	goto	u9211
 13788   001E20  EF14  F00F         	goto	u9210
 13789   001E24                     u9211:
 13790   001E24  EF20  F00F         	goto	l8391
 13791   001E28                     u9210:
 13792   001E28                     
 13793                           ; BSR set to: 0
 13794   001E28  5161               	movf	(_lectScrat2+1)& (0+255),w,b
 13795   001E2A  A4D8               	btfss	status,2,c
 13796   001E2C  EF1A  F00F         	goto	u9221
 13797   001E30  EF1C  F00F         	goto	u9220
 13798   001E34                     u9221:
 13799   001E34  EF20  F00F         	goto	l8391
 13800   001E38                     u9220:
 13801   001E38                     l8389:
 13802                           
 13803                           ; BSR set to: 0
 13804                           ;alarma.c: 53:      &&(lectScrat2[6]==0xff)&&(lectScrat2[7]==0xff)&&(lectScrat2[8]==0xff
      +                          ))||(((lectScrat2[0]==0xff))&&(lectScrat2[1]==0x00))||((lectScrat2[0] == 0xff) && (lectS
      +                          crat2[1] == 0))){;alarma.c: 57:         alarmLect2 = 1;
 13805   001E38  0E01               	movlw	1
 13806   001E3A  6E23               	movwf	_alarmLect2^0,c
 13807                           
 13808                           ;alarma.c: 58:     }else{
 13809   001E3C  EF22  F00F         	goto	l8393
 13810   001E40                     l8391:
 13811                           
 13812                           ; BSR set to: 0
 13813                           ;alarma.c: 59:         alarmLect2 = 0;
 13814   001E40  0E00               	movlw	0
 13815   001E42  6E23               	movwf	_alarmLect2^0,c
 13816   001E44                     l8393:
 13817                           
 13818                           ; BSR set to: 0
 13819                           ;alarma.c: 61:    setPointAUX= setPoint>>1;
 13820   001E44  90D8               	bcf	status,0,c
 13821   001E46  3040               	rrcf	_setPoint^0,w,c
 13822   001E48  6E34               	movwf	_setPointAUX^0,c
 13823   001E4A                     
 13824                           ; BSR set to: 0
 13825                           ;alarma.c: 63:     if((tempDisplay < (setPointAUX+5))&&(tempDisplay > (setPointAUX - 5))
      +                          ){
 13826   001E4A  5034               	movf	_setPointAUX^0,w,c
 13827   001E4C  6E49               	movwf	??_alarma^0,c
 13828   001E4E  6A4A               	clrf	(??_alarma+1)^0,c
 13829   001E50  0E05               	movlw	5
 13830   001E52  2649               	addwf	??_alarma^0,f,c
 13831   001E54  0E00               	movlw	0
 13832   001E56  224A               	addwfc	(??_alarma+1)^0,f,c
 13833   001E58  5037               	movf	_tempDisplay^0,w,c
 13834   001E5A  6E4B               	movwf	(??_alarma+2)^0,c
 13835   001E5C  6A4C               	clrf	(??_alarma+3)^0,c
 13836   001E5E  5049               	movf	??_alarma^0,w,c
 13837   001E60  5C4B               	subwf	(??_alarma+2)^0,w,c
 13838   001E62  504C               	movf	(??_alarma+3)^0,w,c
 13839   001E64  0A80               	xorlw	128
 13840   001E66  6E4D               	movwf	(??_alarma+4)^0,c
 13841   001E68  504A               	movf	(??_alarma+1)^0,w,c
 13842   001E6A  0A80               	xorlw	128
 13843   001E6C  584D               	subwfb	(??_alarma+4)^0,w,c
 13844   001E6E  B0D8               	btfsc	status,0,c
 13845   001E70  EF3C  F00F         	goto	u9231
 13846   001E74  EF3E  F00F         	goto	u9230
 13847   001E78                     u9231:
 13848   001E78  EF66  F00F         	goto	l8401
 13849   001E7C                     u9230:
 13850   001E7C                     
 13851                           ; BSR set to: 0
 13852   001E7C  5037               	movf	_tempDisplay^0,w,c
 13853   001E7E  6E49               	movwf	??_alarma^0,c
 13854   001E80  6A4A               	clrf	(??_alarma+1)^0,c
 13855   001E82  0EFB               	movlw	251
 13856   001E84  2434               	addwf	_setPointAUX^0,w,c
 13857   001E86  6E4B               	movwf	(??_alarma+2)^0,c
 13858   001E88  6A4C               	clrf	(??_alarma+3)^0,c
 13859   001E8A  0EFF               	movlw	255
 13860   001E8C  224C               	addwfc	(??_alarma+3)^0,f,c
 13861   001E8E  5049               	movf	??_alarma^0,w,c
 13862   001E90  5C4B               	subwf	(??_alarma+2)^0,w,c
 13863   001E92  504C               	movf	(??_alarma+3)^0,w,c
 13864   001E94  0A80               	xorlw	128
 13865   001E96  6E4D               	movwf	(??_alarma+4)^0,c
 13866   001E98  504A               	movf	(??_alarma+1)^0,w,c
 13867   001E9A  0A80               	xorlw	128
 13868   001E9C  584D               	subwfb	(??_alarma+4)^0,w,c
 13869   001E9E  B0D8               	btfsc	status,0,c
 13870   001EA0  EF54  F00F         	goto	u9241
 13871   001EA4  EF56  F00F         	goto	u9240
 13872   001EA8                     u9241:
 13873   001EA8  EF66  F00F         	goto	l8401
 13874   001EAC                     u9240:
 13875   001EAC                     
 13876                           ; BSR set to: 0
 13877                           ;alarma.c: 64:         tiempoAlarma = 0;
 13878   001EAC  0E00               	movlw	0
 13879   001EAE  6F8A               	movwf	_tiempoAlarma& (0+255),b
 13880   001EB0  0E00               	movlw	0
 13881   001EB2  6F8B               	movwf	(_tiempoAlarma+1)& (0+255),b
 13882   001EB4  0E00               	movlw	0
 13883   001EB6  6F8C               	movwf	(_tiempoAlarma+2)& (0+255),b
 13884   001EB8  0E00               	movlw	0
 13885   001EBA  6F8D               	movwf	(_tiempoAlarma+3)& (0+255),b
 13886                           
 13887                           ;alarma.c: 65:         estable = 1;
 13888   001EBC  0E01               	movlw	1
 13889   001EBE  6FBF               	movwf	_estable& (0+255),b
 13890                           
 13891                           ;alarma.c: 67:         alarmaFxBaj = 0;
 13892   001EC0  0E00               	movlw	0
 13893   001EC2  6E3B               	movwf	_alarmaFxBaj^0,c
 13894                           
 13895                           ;alarma.c: 68:         alarmaFxAlt = 0;
 13896   001EC4  0E00               	movlw	0
 13897   001EC6  6E39               	movwf	_alarmaFxAlt^0,c
 13898                           
 13899                           ;alarma.c: 69:     }else{
 13900   001EC8  EF68  F00F         	goto	l909
 13901   001ECC                     l8401:
 13902                           
 13903                           ; BSR set to: 0
 13904                           ;alarma.c: 71:         estable = 0;
 13905   001ECC  0E00               	movlw	0
 13906   001ECE  6FBF               	movwf	_estable& (0+255),b
 13907   001ED0                     l909:
 13908                           
 13909                           ; BSR set to: 0
 13910                           ;alarma.c: 74:     if((alarmLect1==0)&&(alarmLect2==0)&&(alarma1==0)&&(alarma2==0)){
 13911   001ED0  5024               	movf	_alarmLect1^0,w,c
 13912   001ED2  A4D8               	btfss	status,2,c
 13913   001ED4  EF6E  F00F         	goto	u9251
 13914   001ED8  EF70  F00F         	goto	u9250
 13915   001EDC                     u9251:
 13916   001EDC  EFD4  F00F         	goto	l910
 13917   001EE0                     u9250:
 13918   001EE0                     
 13919                           ; BSR set to: 0
 13920   001EE0  5023               	movf	_alarmLect2^0,w,c
 13921   001EE2  A4D8               	btfss	status,2,c
 13922   001EE4  EF76  F00F         	goto	u9261
 13923   001EE8  EF78  F00F         	goto	u9260
 13924   001EEC                     u9261:
 13925   001EEC  EFD4  F00F         	goto	l910
 13926   001EF0                     u9260:
 13927   001EF0                     
 13928                           ; BSR set to: 0
 13929   001EF0  501D               	movf	_alarma1^0,w,c
 13930   001EF2  A4D8               	btfss	status,2,c
 13931   001EF4  EF7E  F00F         	goto	u9271
 13932   001EF8  EF80  F00F         	goto	u9270
 13933   001EFC                     u9271:
 13934   001EFC  EFD4  F00F         	goto	l910
 13935   001F00                     u9270:
 13936   001F00                     
 13937                           ; BSR set to: 0
 13938   001F00  501E               	movf	_alarma2^0,w,c
 13939   001F02  A4D8               	btfss	status,2,c
 13940   001F04  EF86  F00F         	goto	u9281
 13941   001F08  EF88  F00F         	goto	u9280
 13942   001F0C                     u9281:
 13943   001F0C  EFD4  F00F         	goto	l910
 13944   001F10                     u9280:
 13945   001F10                     
 13946                           ; BSR set to: 0
 13947                           ;alarma.c: 75:         if(aux1>aux2){
 13948   001F10  501A               	movf	_aux1^0,w,c
 13949   001F12  5C19               	subwf	_aux2^0,w,c
 13950   001F14  B0D8               	btfsc	status,0,c
 13951   001F16  EF8F  F00F         	goto	u9291
 13952   001F1A  EF91  F00F         	goto	u9290
 13953   001F1E                     u9291:
 13954   001F1E  EFAE  F00F         	goto	l8419
 13955   001F22                     u9290:
 13956   001F22                     
 13957                           ; BSR set to: 0
 13958                           ;alarma.c: 76:             alarmaLamp1 = 0;
 13959   001F22  0E00               	movlw	0
 13960   001F24  6E18               	movwf	_alarmaLamp1^0,c
 13961   001F26                     
 13962                           ; BSR set to: 0
 13963                           ;alarma.c: 77:             if(aux1-aux2 > 14){
 13964   001F26  5019               	movf	_aux2^0,w,c
 13965   001F28  C01A  F049         	movff	_aux1,??_alarma
 13966   001F2C  6A4A               	clrf	(??_alarma+1)^0,c
 13967   001F2E  5E49               	subwf	??_alarma^0,f,c
 13968   001F30  0E00               	movlw	0
 13969   001F32  5A4A               	subwfb	(??_alarma+1)^0,f,c
 13970   001F34  BE4A               	btfsc	(??_alarma+1)^0,7,c
 13971   001F36  EFA6  F00F         	goto	u9301
 13972   001F3A  504A               	movf	(??_alarma+1)^0,w,c
 13973   001F3C  E109               	bnz	u9300
 13974   001F3E  0E0F               	movlw	15
 13975   001F40  5C49               	subwf	??_alarma^0,w,c
 13976   001F42  A0D8               	btfss	status,0,c
 13977   001F44  EFA6  F00F         	goto	u9301
 13978   001F48  EFA8  F00F         	goto	u9300
 13979   001F4C                     u9301:
 13980   001F4C  EFAC  F00F         	goto	l8417
 13981   001F50                     u9300:
 13982   001F50                     
 13983                           ; BSR set to: 0
 13984                           ;alarma.c: 78:                 alarmaLamp2 = 1;
 13985   001F50  0E01               	movlw	1
 13986   001F52  6E17               	movwf	_alarmaLamp2^0,c
 13987                           
 13988                           ;alarma.c: 79:             }else{
 13989   001F54  EFAE  F00F         	goto	l8419
 13990   001F58                     l8417:
 13991                           
 13992                           ; BSR set to: 0
 13993                           ;alarma.c: 80:             alarmaLamp2 = 0;
 13994   001F58  0E00               	movlw	0
 13995   001F5A  6E17               	movwf	_alarmaLamp2^0,c
 13996   001F5C                     l8419:
 13997                           
 13998                           ; BSR set to: 0
 13999                           ;alarma.c: 83:         if(aux2 > aux1){
 14000   001F5C  5019               	movf	_aux2^0,w,c
 14001   001F5E  5C1A               	subwf	_aux1^0,w,c
 14002   001F60  B0D8               	btfsc	status,0,c
 14003   001F62  EFB5  F00F         	goto	u9311
 14004   001F66  EFB7  F00F         	goto	u9310
 14005   001F6A                     u9311:
 14006   001F6A  EFD4  F00F         	goto	l910
 14007   001F6E                     u9310:
 14008   001F6E                     
 14009                           ; BSR set to: 0
 14010                           ;alarma.c: 84:             alarmaLamp2 = 0;
 14011   001F6E  0E00               	movlw	0
 14012   001F70  6E17               	movwf	_alarmaLamp2^0,c
 14013   001F72                     
 14014                           ; BSR set to: 0
 14015                           ;alarma.c: 85:             if(aux2-aux1 > 14){
 14016   001F72  501A               	movf	_aux1^0,w,c
 14017   001F74  C019  F049         	movff	_aux2,??_alarma
 14018   001F78  6A4A               	clrf	(??_alarma+1)^0,c
 14019   001F7A  5E49               	subwf	??_alarma^0,f,c
 14020   001F7C  0E00               	movlw	0
 14021   001F7E  5A4A               	subwfb	(??_alarma+1)^0,f,c
 14022   001F80  BE4A               	btfsc	(??_alarma+1)^0,7,c
 14023   001F82  EFCC  F00F         	goto	u9321
 14024   001F86  504A               	movf	(??_alarma+1)^0,w,c
 14025   001F88  E109               	bnz	u9320
 14026   001F8A  0E0F               	movlw	15
 14027   001F8C  5C49               	subwf	??_alarma^0,w,c
 14028   001F8E  A0D8               	btfss	status,0,c
 14029   001F90  EFCC  F00F         	goto	u9321
 14030   001F94  EFCE  F00F         	goto	u9320
 14031   001F98                     u9321:
 14032   001F98  EFD2  F00F         	goto	l8427
 14033   001F9C                     u9320:
 14034   001F9C                     
 14035                           ; BSR set to: 0
 14036                           ;alarma.c: 86:                 alarmaLamp1 = 1;
 14037   001F9C  0E01               	movlw	1
 14038   001F9E  6E18               	movwf	_alarmaLamp1^0,c
 14039                           
 14040                           ;alarma.c: 87:             }else{
 14041   001FA0  EFD4  F00F         	goto	l910
 14042   001FA4                     l8427:
 14043                           
 14044                           ; BSR set to: 0
 14045                           ;alarma.c: 88:             alarmaLamp1 = 0;
 14046   001FA4  0E00               	movlw	0
 14047   001FA6  6E18               	movwf	_alarmaLamp1^0,c
 14048   001FA8                     l910:
 14049                           
 14050                           ; BSR set to: 0
 14051                           ;alarma.c: 92:    resetWatch = 0;
 14052   001FA8  0E00               	movlw	0
 14053   001FAA  6F9F               	movwf	(_resetWatch+1)& (0+255),b
 14054   001FAC  0E00               	movlw	0
 14055   001FAE  6F9E               	movwf	_resetWatch& (0+255),b
 14056   001FB0                     
 14057                           ; BSR set to: 0
 14058                           ;alarma.c: 93:     if((tempDisplay > (setPointAUX + 5)) && (tiempoAlarma > 38000)){
 14059   001FB0  5037               	movf	_tempDisplay^0,w,c
 14060   001FB2  6E49               	movwf	??_alarma^0,c
 14061   001FB4  6A4A               	clrf	(??_alarma+1)^0,c
 14062   001FB6  5034               	movf	_setPointAUX^0,w,c
 14063   001FB8  6E4B               	movwf	(??_alarma+2)^0,c
 14064   001FBA  6A4C               	clrf	(??_alarma+3)^0,c
 14065   001FBC  0E05               	movlw	5
 14066   001FBE  264B               	addwf	(??_alarma+2)^0,f,c
 14067   001FC0  0E00               	movlw	0
 14068   001FC2  224C               	addwfc	(??_alarma+3)^0,f,c
 14069   001FC4  5049               	movf	??_alarma^0,w,c
 14070   001FC6  5C4B               	subwf	(??_alarma+2)^0,w,c
 14071   001FC8  504C               	movf	(??_alarma+3)^0,w,c
 14072   001FCA  0A80               	xorlw	128
 14073   001FCC  6E4D               	movwf	(??_alarma+4)^0,c
 14074   001FCE  504A               	movf	(??_alarma+1)^0,w,c
 14075   001FD0  0A80               	xorlw	128
 14076   001FD2  584D               	subwfb	(??_alarma+4)^0,w,c
 14077   001FD4  B0D8               	btfsc	status,0,c
 14078   001FD6  EFEF  F00F         	goto	u9331
 14079   001FDA  EFF1  F00F         	goto	u9330
 14080   001FDE                     u9331:
 14081   001FDE  EF07  F010         	goto	l8435
 14082   001FE2                     u9330:
 14083   001FE2                     
 14084                           ; BSR set to: 0
 14085   001FE2  518D               	movf	(_tiempoAlarma+3)& (0+255),w,b
 14086   001FE4  118C               	iorwf	(_tiempoAlarma+2)& (0+255),w,b
 14087   001FE6  E10B               	bnz	u9340
 14088   001FE8  0E71               	movlw	113
 14089   001FEA  5D8A               	subwf	_tiempoAlarma& (0+255),w,b
 14090   001FEC  0E94               	movlw	148
 14091   001FEE  598B               	subwfb	(_tiempoAlarma+1)& (0+255),w,b
 14092   001FF0  A0D8               	btfss	status,0,c
 14093   001FF2  EFFD  F00F         	goto	u9341
 14094   001FF6  EFFF  F00F         	goto	u9340
 14095   001FFA                     u9341:
 14096   001FFA  EF07  F010         	goto	l8435
 14097   001FFE                     u9340:
 14098   001FFE                     
 14099                           ; BSR set to: 0
 14100                           ;alarma.c: 94:         alarmaFxAlt = 1;
 14101   001FFE  0E01               	movlw	1
 14102   002000  6E39               	movwf	_alarmaFxAlt^0,c
 14103                           
 14104                           ;alarma.c: 95:         pilotoAlarma = 1;
 14105   002002  0E01               	movlw	1
 14106   002004  6FDB               	movwf	_pilotoAlarma& (0+255),b
 14107                           
 14108                           ;alarma.c: 96:         estable = 0;
 14109   002006  0E00               	movlw	0
 14110   002008  6FBF               	movwf	_estable& (0+255),b
 14111                           
 14112                           ;alarma.c: 97:         alarmaFxBaj = 0;
 14113   00200A  0E00               	movlw	0
 14114   00200C  6E3B               	movwf	_alarmaFxBaj^0,c
 14115   00200E                     l8435:
 14116                           
 14117                           ; BSR set to: 0
 14118                           ;alarma.c: 100:     if((tempDisplay < (setPointAUX - 5)) && (tiempoAlarma > 38000)){
 14119   00200E  0EFB               	movlw	251
 14120   002010  2434               	addwf	_setPointAUX^0,w,c
 14121   002012  6E49               	movwf	??_alarma^0,c
 14122   002014  6A4A               	clrf	(??_alarma+1)^0,c
 14123   002016  0EFF               	movlw	255
 14124   002018  224A               	addwfc	(??_alarma+1)^0,f,c
 14125   00201A  5037               	movf	_tempDisplay^0,w,c
 14126   00201C  6E4B               	movwf	(??_alarma+2)^0,c
 14127   00201E  6A4C               	clrf	(??_alarma+3)^0,c
 14128   002020  5049               	movf	??_alarma^0,w,c
 14129   002022  5C4B               	subwf	(??_alarma+2)^0,w,c
 14130   002024  504C               	movf	(??_alarma+3)^0,w,c
 14131   002026  0A80               	xorlw	128
 14132   002028  6E4D               	movwf	(??_alarma+4)^0,c
 14133   00202A  504A               	movf	(??_alarma+1)^0,w,c
 14134   00202C  0A80               	xorlw	128
 14135   00202E  584D               	subwfb	(??_alarma+4)^0,w,c
 14136   002030  B0D8               	btfsc	status,0,c
 14137   002032  EF1D  F010         	goto	u9351
 14138   002036  EF1F  F010         	goto	u9350
 14139   00203A                     u9351:
 14140   00203A  EF35  F010         	goto	l8441
 14141   00203E                     u9350:
 14142   00203E                     
 14143                           ; BSR set to: 0
 14144   00203E  518D               	movf	(_tiempoAlarma+3)& (0+255),w,b
 14145   002040  118C               	iorwf	(_tiempoAlarma+2)& (0+255),w,b
 14146   002042  E10B               	bnz	u9360
 14147   002044  0E71               	movlw	113
 14148   002046  5D8A               	subwf	_tiempoAlarma& (0+255),w,b
 14149   002048  0E94               	movlw	148
 14150   00204A  598B               	subwfb	(_tiempoAlarma+1)& (0+255),w,b
 14151   00204C  A0D8               	btfss	status,0,c
 14152   00204E  EF2B  F010         	goto	u9361
 14153   002052  EF2D  F010         	goto	u9360
 14154   002056                     u9361:
 14155   002056  EF35  F010         	goto	l8441
 14156   00205A                     u9360:
 14157   00205A                     
 14158                           ; BSR set to: 0
 14159                           ;alarma.c: 101:         alarmaFxBaj = 1;
 14160   00205A  0E01               	movlw	1
 14161   00205C  6E3B               	movwf	_alarmaFxBaj^0,c
 14162                           
 14163                           ;alarma.c: 102:         pilotoAlarma = 1;
 14164   00205E  0E01               	movlw	1
 14165   002060  6FDB               	movwf	_pilotoAlarma& (0+255),b
 14166                           
 14167                           ;alarma.c: 103:         estable = 0;
 14168   002062  0E00               	movlw	0
 14169   002064  6FBF               	movwf	_estable& (0+255),b
 14170                           
 14171                           ;alarma.c: 104:         alarmaFxAlt = 0;
 14172   002066  0E00               	movlw	0
 14173   002068  6E39               	movwf	_alarmaFxAlt^0,c
 14174   00206A                     l8441:
 14175                           
 14176                           ; BSR set to: 0
 14177                           ;alarma.c: 108:     if(CTRauto == 1){
 14178   00206A  043E               	decf	_CTRauto^0,w,c
 14179   00206C  A4D8               	btfss	status,2,c
 14180   00206E  EF3B  F010         	goto	u9371
 14181   002072  EF3D  F010         	goto	u9370
 14182   002076                     u9371:
 14183   002076  EF51  F010         	goto	l8445
 14184   00207A                     u9370:
 14185   00207A                     
 14186                           ; BSR set to: 0
 14187                           ;alarma.c: 109:         alarmaFxBaj = 0;
 14188   00207A  0E00               	movlw	0
 14189   00207C  6E3B               	movwf	_alarmaFxBaj^0,c
 14190                           
 14191                           ;alarma.c: 110:         pilotoAlarma = 0;
 14192   00207E  0E00               	movlw	0
 14193   002080  6FDB               	movwf	_pilotoAlarma& (0+255),b
 14194                           
 14195                           ;alarma.c: 111:         estable = 0;
 14196   002082  0E00               	movlw	0
 14197   002084  6FBF               	movwf	_estable& (0+255),b
 14198                           
 14199                           ;alarma.c: 112:         alarmaFxAlt = 0;
 14200   002086  0E00               	movlw	0
 14201   002088  6E39               	movwf	_alarmaFxAlt^0,c
 14202                           
 14203                           ;alarma.c: 113:         tiempoAlarma = 0;
 14204   00208A  0E00               	movlw	0
 14205   00208C  6F8A               	movwf	_tiempoAlarma& (0+255),b
 14206   00208E  0E00               	movlw	0
 14207   002090  6F8B               	movwf	(_tiempoAlarma+1)& (0+255),b
 14208   002092  0E00               	movlw	0
 14209   002094  6F8C               	movwf	(_tiempoAlarma+2)& (0+255),b
 14210   002096  0E00               	movlw	0
 14211   002098  6F8D               	movwf	(_tiempoAlarma+3)& (0+255),b
 14212                           
 14213                           ;alarma.c: 114:         ManAuto = 1;
 14214   00209A  0E01               	movlw	1
 14215   00209C  6FBA               	movwf	_ManAuto& (0+255),b
 14216                           
 14217                           ;alarma.c: 115:     }else{
 14218   00209E  EF53  F010         	goto	l8447
 14219   0020A2                     l8445:
 14220                           
 14221                           ; BSR set to: 0
 14222                           ;alarma.c: 116:         ManAuto = 0 ;
 14223   0020A2  0E00               	movlw	0
 14224   0020A4  6FBA               	movwf	_ManAuto& (0+255),b
 14225   0020A6                     l8447:
 14226                           
 14227                           ; BSR set to: 0
 14228                           ;alarma.c: 119:     if(((alarmLect2==1)||(alarma2>0))&&((alarma1>0)||(alarmLect1==1))){
 14229   0020A6  0423               	decf	_alarmLect2^0,w,c
 14230   0020A8  B4D8               	btfsc	status,2,c
 14231   0020AA  EF59  F010         	goto	u9381
 14232   0020AE  EF5B  F010         	goto	u9380
 14233   0020B2                     u9381:
 14234   0020B2  EF63  F010         	goto	l8451
 14235   0020B6                     u9380:
 14236   0020B6                     
 14237                           ; BSR set to: 0
 14238   0020B6  501E               	movf	_alarma2^0,w,c
 14239   0020B8  B4D8               	btfsc	status,2,c
 14240   0020BA  EF61  F010         	goto	u9391
 14241   0020BE  EF63  F010         	goto	u9390
 14242   0020C2                     u9391:
 14243   0020C2  EF95  F010         	goto	l8465
 14244   0020C6                     u9390:
 14245   0020C6                     l8451:
 14246                           
 14247                           ; BSR set to: 0
 14248   0020C6  501D               	movf	_alarma1^0,w,c
 14249   0020C8  A4D8               	btfss	status,2,c
 14250   0020CA  EF69  F010         	goto	u9401
 14251   0020CE  EF6B  F010         	goto	u9400
 14252   0020D2                     u9401:
 14253   0020D2  EF73  F010         	goto	l8455
 14254   0020D6                     u9400:
 14255   0020D6                     
 14256                           ; BSR set to: 0
 14257   0020D6  0424               	decf	_alarmLect1^0,w,c
 14258   0020D8  A4D8               	btfss	status,2,c
 14259   0020DA  EF71  F010         	goto	u9411
 14260   0020DE  EF73  F010         	goto	u9410
 14261   0020E2                     u9411:
 14262   0020E2  EF95  F010         	goto	l8465
 14263   0020E6                     u9410:
 14264   0020E6                     l8455:
 14265                           
 14266                           ; BSR set to: 0
 14267                           ;alarma.c: 120:         alarmaSenAUX++;
 14268   0020E6  4B96               	infsnz	_alarmaSenAUX& (0+255),f,b
 14269   0020E8  2B97               	incf	(_alarmaSenAUX+1)& (0+255),f,b
 14270   0020EA                     
 14271                           ; BSR set to: 0
 14272                           ;alarma.c: 121:         if(alarmaSenAUX > 20000){
 14273   0020EA  0E21               	movlw	33
 14274   0020EC  5D96               	subwf	_alarmaSenAUX& (0+255),w,b
 14275   0020EE  0E4E               	movlw	78
 14276   0020F0  5997               	subwfb	(_alarmaSenAUX+1)& (0+255),w,b
 14277   0020F2  A0D8               	btfss	status,0,c
 14278   0020F4  EF7E  F010         	goto	u9421
 14279   0020F8  EF80  F010         	goto	u9420
 14280   0020FC                     u9421:
 14281   0020FC  EF84  F010         	goto	l8461
 14282   002100                     u9420:
 14283   002100                     
 14284                           ; BSR set to: 0
 14285                           ;alarma.c: 122:         alarmaSenAUX = 11;
 14286   002100  0E00               	movlw	0
 14287   002102  6F97               	movwf	(_alarmaSenAUX+1)& (0+255),b
 14288   002104  0E0B               	movlw	11
 14289   002106  6F96               	movwf	_alarmaSenAUX& (0+255),b
 14290   002108                     l8461:
 14291                           
 14292                           ; BSR set to: 0
 14293                           ;alarma.c: 124:         if(alarmaSenAUX > 10){
 14294   002108  5197               	movf	(_alarmaSenAUX+1)& (0+255),w,b
 14295   00210A  E109               	bnz	u9430
 14296   00210C  0E0B               	movlw	11
 14297   00210E  5D96               	subwf	_alarmaSenAUX& (0+255),w,b
 14298   002110  A0D8               	btfss	status,0,c
 14299   002112  EF8D  F010         	goto	u9431
 14300   002116  EF8F  F010         	goto	u9430
 14301   00211A                     u9431:
 14302   00211A  EF9B  F010         	goto	l8467
 14303   00211E                     u9430:
 14304   00211E                     
 14305                           ; BSR set to: 0
 14306                           ;alarma.c: 125:         alarmaFxSen = 1;
 14307   00211E  0E01               	movlw	1
 14308   002120  6E3D               	movwf	_alarmaFxSen^0,c
 14309                           
 14310                           ;alarma.c: 126:         pilotoSensor = 1;
 14311   002122  0E01               	movlw	1
 14312   002124  6FDC               	movwf	_pilotoSensor& (0+255),b
 14313   002126  EF9B  F010         	goto	l8467
 14314   00212A                     l8465:
 14315                           
 14316                           ; BSR set to: 0
 14317                           ;alarma.c: 129:         alarmaSenAUX = 0;
 14318   00212A  0E00               	movlw	0
 14319   00212C  6F97               	movwf	(_alarmaSenAUX+1)& (0+255),b
 14320   00212E  0E00               	movlw	0
 14321   002130  6F96               	movwf	_alarmaSenAUX& (0+255),b
 14322                           
 14323                           ;alarma.c: 130:         alarmaFxSen = 0;
 14324   002132  0E00               	movlw	0
 14325   002134  6E3D               	movwf	_alarmaFxSen^0,c
 14326   002136                     l8467:
 14327                           
 14328                           ; BSR set to: 0
 14329                           ;alarma.c: 133:     if((alarmLect2==1)||(alarma2>0)){
 14330   002136  0423               	decf	_alarmLect2^0,w,c
 14331   002138  B4D8               	btfsc	status,2,c
 14332   00213A  EFA1  F010         	goto	u9441
 14333   00213E  EFA3  F010         	goto	u9440
 14334   002142                     u9441:
 14335   002142  EFAB  F010         	goto	l8471
 14336   002146                     u9440:
 14337   002146                     
 14338                           ; BSR set to: 0
 14339   002146  501E               	movf	_alarma2^0,w,c
 14340   002148  B4D8               	btfsc	status,2,c
 14341   00214A  EFA9  F010         	goto	u9451
 14342   00214E  EFAB  F010         	goto	u9450
 14343   002152                     u9451:
 14344   002152  EFD5  F010         	goto	l8481
 14345   002156                     u9450:
 14346   002156                     l8471:
 14347                           
 14348                           ; BSR set to: 0
 14349                           ;alarma.c: 134:         alarmaSen2AUX++;
 14350   002156  4B8E               	infsnz	_alarmaSen2AUX& (0+255),f,b
 14351   002158  2B8F               	incf	(_alarmaSen2AUX+1)& (0+255),f,b
 14352   00215A                     
 14353                           ; BSR set to: 0
 14354                           ;alarma.c: 135:         if(alarmaSen2AUX > 20000){
 14355   00215A  BF8F               	btfsc	(_alarmaSen2AUX+1)& (0+255),7,b
 14356   00215C  EFB9  F010         	goto	u9461
 14357   002160  0E21               	movlw	33
 14358   002162  5D8E               	subwf	_alarmaSen2AUX& (0+255),w,b
 14359   002164  0E4E               	movlw	78
 14360   002166  598F               	subwfb	(_alarmaSen2AUX+1)& (0+255),w,b
 14361   002168  A0D8               	btfss	status,0,c
 14362   00216A  EFB9  F010         	goto	u9461
 14363   00216E  EFBB  F010         	goto	u9460
 14364   002172                     u9461:
 14365   002172  EFBF  F010         	goto	l8477
 14366   002176                     u9460:
 14367   002176                     
 14368                           ; BSR set to: 0
 14369                           ;alarma.c: 139:             alarmaSen2AUX =16;
 14370   002176  0E00               	movlw	0
 14371   002178  6F8F               	movwf	(_alarmaSen2AUX+1)& (0+255),b
 14372   00217A  0E10               	movlw	16
 14373   00217C  6F8E               	movwf	_alarmaSen2AUX& (0+255),b
 14374   00217E                     l8477:
 14375                           
 14376                           ; BSR set to: 0
 14377                           ;alarma.c: 141:         if(alarmaSen2AUX > 15 ){
 14378   00217E  BF8F               	btfsc	(_alarmaSen2AUX+1)& (0+255),7,b
 14379   002180  EFCB  F010         	goto	u9471
 14380   002184  518F               	movf	(_alarmaSen2AUX+1)& (0+255),w,b
 14381   002186  E109               	bnz	u9470
 14382   002188  0E10               	movlw	16
 14383   00218A  5D8E               	subwf	_alarmaSen2AUX& (0+255),w,b
 14384   00218C  A0D8               	btfss	status,0,c
 14385   00218E  EFCB  F010         	goto	u9471
 14386   002192  EFCD  F010         	goto	u9470
 14387   002196                     u9471:
 14388   002196  EFDB  F010         	goto	l8483
 14389   00219A                     u9470:
 14390   00219A                     
 14391                           ; BSR set to: 0
 14392                           ;alarma.c: 145:         alarmaSensor2 = 1;
 14393   00219A  0E01               	movlw	1
 14394   00219C  6FBD               	movwf	_alarmaSensor2& (0+255),b
 14395                           
 14396                           ;alarma.c: 146:         alarmaLamp1 = 0;
 14397   00219E  0E00               	movlw	0
 14398   0021A0  6E18               	movwf	_alarmaLamp1^0,c
 14399                           
 14400                           ;alarma.c: 147:         alarmaLamp2 = 0;
 14401   0021A2  0E00               	movlw	0
 14402   0021A4  6E17               	movwf	_alarmaLamp2^0,c
 14403   0021A6  EFDB  F010         	goto	l8483
 14404   0021AA                     l8481:
 14405                           
 14406                           ; BSR set to: 0
 14407                           ;alarma.c: 151:         alarmaSensor2 = 0;
 14408   0021AA  0E00               	movlw	0
 14409   0021AC  6FBD               	movwf	_alarmaSensor2& (0+255),b
 14410                           
 14411                           ;alarma.c: 152:         alarmaSen2AUX = 0;
 14412   0021AE  0E00               	movlw	0
 14413   0021B0  6F8F               	movwf	(_alarmaSen2AUX+1)& (0+255),b
 14414   0021B2  0E00               	movlw	0
 14415   0021B4  6F8E               	movwf	_alarmaSen2AUX& (0+255),b
 14416   0021B6                     l8483:
 14417                           
 14418                           ; BSR set to: 0
 14419                           ;alarma.c: 155:     if((alarmLect1==1)||(alarma1>0)){
 14420   0021B6  0424               	decf	_alarmLect1^0,w,c
 14421   0021B8  B4D8               	btfsc	status,2,c
 14422   0021BA  EFE1  F010         	goto	u9481
 14423   0021BE  EFE3  F010         	goto	u9480
 14424   0021C2                     u9481:
 14425   0021C2  EFEB  F010         	goto	l8487
 14426   0021C6                     u9480:
 14427   0021C6                     
 14428                           ; BSR set to: 0
 14429   0021C6  501D               	movf	_alarma1^0,w,c
 14430   0021C8  B4D8               	btfsc	status,2,c
 14431   0021CA  EFE9  F010         	goto	u9491
 14432   0021CE  EFEB  F010         	goto	u9490
 14433   0021D2                     u9491:
 14434   0021D2  EF15  F011         	goto	l8497
 14435   0021D6                     u9490:
 14436   0021D6                     l8487:
 14437                           
 14438                           ; BSR set to: 0
 14439                           ;alarma.c: 156:        alarmaSen1AUX++;
 14440   0021D6  4B90               	infsnz	_alarmaSen1AUX& (0+255),f,b
 14441   0021D8  2B91               	incf	(_alarmaSen1AUX+1)& (0+255),f,b
 14442   0021DA                     
 14443                           ; BSR set to: 0
 14444                           ;alarma.c: 157:         if(alarmaSen1AUX > 20000){
 14445   0021DA  BF91               	btfsc	(_alarmaSen1AUX+1)& (0+255),7,b
 14446   0021DC  EFF9  F010         	goto	u9501
 14447   0021E0  0E21               	movlw	33
 14448   0021E2  5D90               	subwf	_alarmaSen1AUX& (0+255),w,b
 14449   0021E4  0E4E               	movlw	78
 14450   0021E6  5991               	subwfb	(_alarmaSen1AUX+1)& (0+255),w,b
 14451   0021E8  A0D8               	btfss	status,0,c
 14452   0021EA  EFF9  F010         	goto	u9501
 14453   0021EE  EFFB  F010         	goto	u9500
 14454   0021F2                     u9501:
 14455   0021F2  EFFF  F010         	goto	l8493
 14456   0021F6                     u9500:
 14457   0021F6                     
 14458                           ; BSR set to: 0
 14459                           ;alarma.c: 161:             alarmaSen1AUX =16;
 14460   0021F6  0E00               	movlw	0
 14461   0021F8  6F91               	movwf	(_alarmaSen1AUX+1)& (0+255),b
 14462   0021FA  0E10               	movlw	16
 14463   0021FC  6F90               	movwf	_alarmaSen1AUX& (0+255),b
 14464   0021FE                     l8493:
 14465                           
 14466                           ; BSR set to: 0
 14467                           ;alarma.c: 163:         if(alarmaSen1AUX > 15 ){
 14468   0021FE  BF91               	btfsc	(_alarmaSen1AUX+1)& (0+255),7,b
 14469   002200  EF0B  F011         	goto	u9511
 14470   002204  5191               	movf	(_alarmaSen1AUX+1)& (0+255),w,b
 14471   002206  E109               	bnz	u9510
 14472   002208  0E10               	movlw	16
 14473   00220A  5D90               	subwf	_alarmaSen1AUX& (0+255),w,b
 14474   00220C  A0D8               	btfss	status,0,c
 14475   00220E  EF0B  F011         	goto	u9511
 14476   002212  EF0D  F011         	goto	u9510
 14477   002216                     u9511:
 14478   002216  EF1B  F011         	goto	l940
 14479   00221A                     u9510:
 14480   00221A                     
 14481                           ; BSR set to: 0
 14482                           ;alarma.c: 167:         alarmaSensor1 = 1;
 14483   00221A  0E01               	movlw	1
 14484   00221C  6FBE               	movwf	_alarmaSensor1& (0+255),b
 14485                           
 14486                           ;alarma.c: 168:         alarmaLamp1 = 0;
 14487   00221E  0E00               	movlw	0
 14488   002220  6E18               	movwf	_alarmaLamp1^0,c
 14489                           
 14490                           ;alarma.c: 169:         alarmaLamp2 = 0;
 14491   002222  0E00               	movlw	0
 14492   002224  6E17               	movwf	_alarmaLamp2^0,c
 14493   002226  EF1B  F011         	goto	l940
 14494   00222A                     l8497:
 14495                           
 14496                           ; BSR set to: 0
 14497                           ;alarma.c: 173:         alarmaSensor1 = 0;
 14498   00222A  0E00               	movlw	0
 14499   00222C  6FBE               	movwf	_alarmaSensor1& (0+255),b
 14500                           
 14501                           ;alarma.c: 174:         alarmaSen1AUX = 0;
 14502   00222E  0E00               	movlw	0
 14503   002230  6F91               	movwf	(_alarmaSen1AUX+1)& (0+255),b
 14504   002232  0E00               	movlw	0
 14505   002234  6F90               	movwf	_alarmaSen1AUX& (0+255),b
 14506   002236                     l940:
 14507                           
 14508                           ; BSR set to: 0
 14509                           ;alarma.c: 177: resetWatch = 0;
 14510   002236  0E00               	movlw	0
 14511   002238  6F9F               	movwf	(_resetWatch+1)& (0+255),b
 14512   00223A  0E00               	movlw	0
 14513   00223C  6F9E               	movwf	_resetWatch& (0+255),b
 14514   00223E                     
 14515                           ; BSR set to: 0
 14516   00223E  0012               	return		;funcret
 14517   002240                     __end_of_alarma:
 14518                           	callstack 0
 14519                           
 14520 ;; *************** function _myLoIsr *****************
 14521 ;; Defined at:
 14522 ;;		line 335 in file "main.c"
 14523 ;; Parameters:    Size  Location     Type
 14524 ;;		None
 14525 ;; Auto vars:     Size  Location     Type
 14526 ;;  a               1    7[COMRAM] unsigned char 
 14527 ;; Return value:  Size  Location     Type
 14528 ;;                  1    wreg      void 
 14529 ;; Registers used:
 14530 ;;		wreg, fsr2l, fsr2h, status,2, status,0
 14531 ;; Tracked objects:
 14532 ;;		On entry : 0/0
 14533 ;;		On exit  : 0/0
 14534 ;;		Unchanged: 0/0
 14535 ;; Data sizes:     COMRAM   BANK0   BANK1   BANK2   BANK3   BANK4   BANK5
 14536 ;;      Params:         0       0       0       0       0       0       0
 14537 ;;      Locals:         1       0       0       0       0       0       0
 14538 ;;      Temps:          7       0       0       0       0       0       0
 14539 ;;      Totals:         8       0       0       0       0       0       0
 14540 ;;Total ram usage:        8 bytes
 14541 ;; Hardware stack levels used: 1
 14542 ;; Hardware stack levels required when called: 1
 14543 ;; This function calls:
 14544 ;;		Nothing
 14545 ;; This function is called by:
 14546 ;;		Interrupt level 1
 14547 ;; This function uses a non-reentrant model
 14548 ;;
 14549                           
 14550                           	psect	intcodelo
 14551   000018                     __pintcodelo:
 14552                           	callstack 0
 14553   000018                     _myLoIsr:
 14554                           	callstack 24
 14555                           
 14556                           ; BSR set to: 0
 14557                           ;incstack = 0
 14558   000018  8057               	bsf	int$flags,0,c	;set compiler interrupt flag (level 1)
 14559   00001A  CFD8 F043          	movff	status,??_myLoIsr+2
 14560   00001E  CFE8 F044          	movff	wreg,??_myLoIsr+3
 14561   000022  CFE0 F045          	movff	bsr,??_myLoIsr+4
 14562   000026  CFD9 F046          	movff	fsr2l,??_myLoIsr+5
 14563   00002A  CFDA F047          	movff	fsr2h,??_myLoIsr+6
 14564   00002E                     
 14565                           ;main.c: 338:   INTCONbits.INT0E = 1;
 14566   00002E  88F2               	bsf	242,4,c	;volatile
 14567                           
 14568                           ;main.c: 339:     T0CONbits.TMR0ON = 0;
 14569   000030  9ED5               	bcf	213,7,c	;volatile
 14570                           
 14571                           ;main.c: 340:     INTCONbits.TMR0IF = 0;
 14572   000032  94F2               	bcf	242,2,c	;volatile
 14573   000034                     
 14574                           ;main.c: 342:     resetWatch++;
 14575   000034  0100               	movlb	0	; () banked
 14576   000036  4B9E               	infsnz	_resetWatch& (0+255),f,b
 14577   000038  2B9F               	incf	(_resetWatch+1)& (0+255),f,b
 14578   00003A                     
 14579                           ; BSR set to: 0
 14580                           ;main.c: 343:     if(resetWatch >30000){
 14581   00003A  BF9F               	btfsc	(_resetWatch+1)& (0+255),7,b
 14582   00003C  EF29  F000         	goto	i1u957_21
 14583   000040  0E31               	movlw	49
 14584   000042  5D9E               	subwf	_resetWatch& (0+255),w,b
 14585   000044  0E75               	movlw	117
 14586   000046  599F               	subwfb	(_resetWatch+1)& (0+255),w,b
 14587   000048  A0D8               	btfss	status,0,c
 14588   00004A  EF29  F000         	goto	i1u957_21
 14589   00004E  EF2B  F000         	goto	i1u957_20
 14590   000052                     i1u957_21:
 14591   000052  EF2F  F000         	goto	i1l8533
 14592   000056                     i1u957_20:
 14593   000056                     
 14594                           ; BSR set to: 0
 14595                           ;main.c: 344:         resetWatch = 10001;
 14596   000056  0E27               	movlw	39
 14597   000058  6F9F               	movwf	(_resetWatch+1)& (0+255),b
 14598   00005A  0E11               	movlw	17
 14599   00005C  6F9E               	movwf	_resetWatch& (0+255),b
 14600   00005E                     i1l8533:
 14601                           
 14602                           ; BSR set to: 0
 14603                           ;main.c: 347:     tiempoAlarma ++;
 14604   00005E  0E01               	movlw	1
 14605   000060  278A               	addwf	_tiempoAlarma& (0+255),f,b
 14606   000062  0E00               	movlw	0
 14607   000064  238B               	addwfc	(_tiempoAlarma+1)& (0+255),f,b
 14608   000066  238C               	addwfc	(_tiempoAlarma+2)& (0+255),f,b
 14609   000068  238D               	addwfc	(_tiempoAlarma+3)& (0+255),f,b
 14610   00006A                     
 14611                           ; BSR set to: 0
 14612                           ;main.c: 348:     if(tiempoAlarma > 65000){
 14613   00006A  518D               	movf	(_tiempoAlarma+3)& (0+255),w,b
 14614   00006C  118C               	iorwf	(_tiempoAlarma+2)& (0+255),w,b
 14615   00006E  E10B               	bnz	i1u958_20
 14616   000070  0EE9               	movlw	233
 14617   000072  5D8A               	subwf	_tiempoAlarma& (0+255),w,b
 14618   000074  0EFD               	movlw	253
 14619   000076  598B               	subwfb	(_tiempoAlarma+1)& (0+255),w,b
 14620   000078  A0D8               	btfss	status,0,c
 14621   00007A  EF41  F000         	goto	i1u958_21
 14622   00007E  EF43  F000         	goto	i1u958_20
 14623   000082                     i1u958_21:
 14624   000082  EF4B  F000         	goto	i1l8539
 14625   000086                     i1u958_20:
 14626   000086                     
 14627                           ; BSR set to: 0
 14628                           ;main.c: 349:         tiempoAlarma = 38001;
 14629   000086  0E71               	movlw	113
 14630   000088  6F8A               	movwf	_tiempoAlarma& (0+255),b
 14631   00008A  0E94               	movlw	148
 14632   00008C  6F8B               	movwf	(_tiempoAlarma+1)& (0+255),b
 14633   00008E  0E00               	movlw	0
 14634   000090  6F8C               	movwf	(_tiempoAlarma+2)& (0+255),b
 14635   000092  0E00               	movlw	0
 14636   000094  6F8D               	movwf	(_tiempoAlarma+3)& (0+255),b
 14637   000096                     i1l8539:
 14638                           
 14639                           ; BSR set to: 0
 14640                           ;main.c: 351:     INTCONbits.PEIE=1;
 14641   000096  8CF2               	bsf	242,6,c	;volatile
 14642   000098                     
 14643                           ; BSR set to: 0
 14644                           ;main.c: 352:     auxfallatemp1 ++;
 14645   000098  2BB4               	incf	_auxfallatemp1& (0+255),f,b
 14646   00009A                     
 14647                           ; BSR set to: 0
 14648                           ;main.c: 353:     auxfallatemp2 ++;
 14649   00009A  2BB3               	incf	_auxfallatemp2& (0+255),f,b
 14650   00009C                     
 14651                           ; BSR set to: 0
 14652                           ;main.c: 354:     z++;
 14653   00009C  4BE7               	infsnz	_z& (0+255),f,b
 14654   00009E  2BE8               	incf	(_z+1)& (0+255),f,b
 14655   0000A0                     
 14656                           ; BSR set to: 0
 14657                           ;main.c: 355:     if(z > 20000){
 14658   0000A0  BFE8               	btfsc	(_z+1)& (0+255),7,b
 14659   0000A2  EF5C  F000         	goto	i1u959_21
 14660   0000A6  0E21               	movlw	33
 14661   0000A8  5DE7               	subwf	_z& (0+255),w,b
 14662   0000AA  0E4E               	movlw	78
 14663   0000AC  59E8               	subwfb	(_z+1)& (0+255),w,b
 14664   0000AE  A0D8               	btfss	status,0,c
 14665   0000B0  EF5C  F000         	goto	i1u959_21
 14666   0000B4  EF5E  F000         	goto	i1u959_20
 14667   0000B8                     i1u959_21:
 14668   0000B8  EF62  F000         	goto	i1l8551
 14669   0000BC                     i1u959_20:
 14670   0000BC                     
 14671                           ; BSR set to: 0
 14672                           ;main.c: 356:         z = 151;
 14673   0000BC  0E00               	movlw	0
 14674   0000BE  6FE8               	movwf	(_z+1)& (0+255),b
 14675   0000C0  0E97               	movlw	151
 14676   0000C2  6FE7               	movwf	_z& (0+255),b
 14677   0000C4                     i1l8551:
 14678                           
 14679                           ; BSR set to: 0
 14680                           ;main.c: 359:     if(selMenu == 8){
 14681   0000C4  0E08               	movlw	8
 14682   0000C6  1830               	xorwf	_selMenu^0,w,c
 14683   0000C8  A4D8               	btfss	status,2,c
 14684   0000CA  EF69  F000         	goto	i1u960_21
 14685   0000CE  EF6B  F000         	goto	i1u960_20
 14686   0000D2                     i1u960_21:
 14687   0000D2  EFB2  F000         	goto	i1l594
 14688   0000D6                     i1u960_20:
 14689   0000D6  EF8E  F000         	goto	i1l8569
 14690   0000DA                     i1l8555:
 14691                           
 14692                           ; BSR set to: 0
 14693                           ;main.c: 362:                 if(auxPass > 40){
 14694   0000DA  0E28               	movlw	40
 14695   0000DC  641F               	cpfsgt	_auxPass^0,c
 14696   0000DE  EF73  F000         	goto	i1u961_21
 14697   0000E2  EF75  F000         	goto	i1u961_20
 14698   0000E6                     i1u961_21:
 14699   0000E6  EFA7  F000         	goto	i1l8571
 14700   0000EA                     i1u961_20:
 14701   0000EA                     
 14702                           ; BSR set to: 0
 14703                           ;main.c: 363:                     dig[3]=0xff;
 14704   0000EA  6804               	setf	(_dig+3)^0,c
 14705   0000EC  EFA7  F000         	goto	i1l8571
 14706   0000F0                     i1l8559:
 14707                           
 14708                           ; BSR set to: 0
 14709                           ;main.c: 368:                 if(auxPass > 40){
 14710   0000F0  0E28               	movlw	40
 14711   0000F2  641F               	cpfsgt	_auxPass^0,c
 14712   0000F4  EF7E  F000         	goto	i1u962_21
 14713   0000F8  EF80  F000         	goto	i1u962_20
 14714   0000FC                     i1u962_21:
 14715   0000FC  EFA7  F000         	goto	i1l8571
 14716   000100                     i1u962_20:
 14717   000100                     
 14718                           ; BSR set to: 0
 14719                           ;main.c: 369:                     dig[4]=0xff;
 14720   000100  6805               	setf	(_dig+4)^0,c
 14721   000102  EFA7  F000         	goto	i1l8571
 14722   000106                     i1l8563:
 14723                           
 14724                           ; BSR set to: 0
 14725                           ;main.c: 374:                 if(auxPass > 40){
 14726   000106  0E28               	movlw	40
 14727   000108  641F               	cpfsgt	_auxPass^0,c
 14728   00010A  EF89  F000         	goto	i1u963_21
 14729   00010E  EF8B  F000         	goto	i1u963_20
 14730   000112                     i1u963_21:
 14731   000112  EFA7  F000         	goto	i1l8571
 14732   000116                     i1u963_20:
 14733   000116                     
 14734                           ; BSR set to: 0
 14735                           ;main.c: 375:                     dig[5]=0xff;
 14736   000116  6806               	setf	(_dig+5)^0,c
 14737   000118  EFA7  F000         	goto	i1l8571
 14738   00011C                     i1l8569:
 14739                           
 14740                           ; BSR set to: 0
 14741   00011C  502D               	movf	_pass^0,w,c
 14742   00011E  6E41               	movwf	??_myLoIsr^0,c
 14743   000120  6A42               	clrf	(??_myLoIsr+1)^0,c
 14744                           
 14745                           ; Switch on 2 bytes has been partitioned into a top level switch of size 1, and 1 sub-sw
      +                          itches
 14746                           ; Switch size 1, requested type "simple"
 14747                           ; Number of cases is 1, Range of values is 0 to 0
 14748                           ; switch strategies available:
 14749                           ; Name         Instructions Cycles
 14750                           ; simple_byte            4     3 (average)
 14751                           ;	Chosen strategy is simple_byte
 14752   000122  5042               	movf	(??_myLoIsr+1)^0,w,c
 14753   000124  0A00               	xorlw	0	; case 0
 14754   000126  B4D8               	btfsc	status,2,c
 14755   000128  EF98  F000         	goto	i1l10347
 14756   00012C  EFA7  F000         	goto	i1l8571
 14757   000130                     i1l10347:
 14758                           
 14759                           ; BSR set to: 0
 14760                           ; Switch size 1, requested type "simple"
 14761                           ; Number of cases is 3, Range of values is 0 to 2
 14762                           ; switch strategies available:
 14763                           ; Name         Instructions Cycles
 14764                           ; simple_byte           10     6 (average)
 14765                           ;	Chosen strategy is simple_byte
 14766   000130  5041               	movf	??_myLoIsr^0,w,c
 14767   000132  0A00               	xorlw	0	; case 0
 14768   000134  B4D8               	btfsc	status,2,c
 14769   000136  EF6D  F000         	goto	i1l8555
 14770   00013A  0A01               	xorlw	1	; case 1
 14771   00013C  B4D8               	btfsc	status,2,c
 14772   00013E  EF78  F000         	goto	i1l8559
 14773   000142  0A03               	xorlw	3	; case 2
 14774   000144  B4D8               	btfsc	status,2,c
 14775   000146  EF83  F000         	goto	i1l8563
 14776   00014A  EFA7  F000         	goto	i1l8571
 14777   00014E                     i1l8571:
 14778                           
 14779                           ; BSR set to: 0
 14780                           ;main.c: 380:         auxPass++;
 14781   00014E  2A1F               	incf	_auxPass^0,f,c
 14782   000150                     
 14783                           ; BSR set to: 0
 14784                           ;main.c: 381:         if(auxPass > 80){
 14785   000150  0E50               	movlw	80
 14786   000152  641F               	cpfsgt	_auxPass^0,c
 14787   000154  EFAE  F000         	goto	i1u964_21
 14788   000158  EFB0  F000         	goto	i1u964_20
 14789   00015C                     i1u964_21:
 14790   00015C  EFB2  F000         	goto	i1l594
 14791   000160                     i1u964_20:
 14792   000160                     
 14793                           ; BSR set to: 0
 14794                           ;main.c: 382:             auxPass = 0x00;
 14795   000160  0E00               	movlw	0
 14796   000162  6E1F               	movwf	_auxPass^0,c
 14797   000164                     i1l594:
 14798                           
 14799                           ; BSR set to: 0
 14800                           ;main.c: 385:             for(i = 0 ; i < 10 ; i++){
 14801   000164  0E00               	movlw	0
 14802   000166  6E20               	movwf	_i^0,c
 14803   000168                     i1l8577:
 14804   000168  0E09               	movlw	9
 14805   00016A  6420               	cpfsgt	_i^0,c
 14806   00016C  EFBA  F000         	goto	i1u965_21
 14807   000170  EFBC  F000         	goto	i1u965_20
 14808   000174                     i1u965_21:
 14809   000174  EFBE  F000         	goto	i1l604
 14810   000178                     i1u965_20:
 14811   000178  EFDF  F000         	goto	i1l8595
 14812   00017C                     i1l604:
 14813                           
 14814                           ;main.c: 387:                 PORTC = 0xff;
 14815   00017C  6882               	setf	130,c	;volatile
 14816                           
 14817                           ;main.c: 388:                 auxDisp= i;
 14818   00017E  C020  F0C1         	movff	_i,_auxDisp
 14819   000182                     
 14820                           ;main.c: 389:                 auxDisp = auxDisp << 1;
 14821   000182  0100               	movlb	0	; () banked
 14822   000184  51C1               	movf	_auxDisp& (0+255),w,b
 14823   000186  25C1               	addwf	_auxDisp& (0+255),w,b
 14824   000188  6FC1               	movwf	_auxDisp& (0+255),b
 14825                           
 14826                           ;main.c: 390:                 PORTB = PORTB & 0b11100001;
 14827   00018A  5081               	movf	129,w,c	;volatile
 14828   00018C  0BE1               	andlw	225
 14829   00018E  6E81               	movwf	129,c	;volatile
 14830                           
 14831                           ;main.c: 391:                 PORTB = PORTB + auxDisp;
 14832   000190  5081               	movf	129,w,c	;volatile
 14833   000192  25C1               	addwf	_auxDisp& (0+255),w,b
 14834   000194  6E81               	movwf	129,c	;volatile
 14835   000196                     
 14836                           ; BSR set to: 0
 14837                           ;main.c: 392:                 _delay((unsigned long)((80)*(4000000/4000000.0)));
 14838   000196  0E1A               	movlw	26
 14839   000198                     i1u1230_27:
 14840   000198  2EE8               	decfsz	wreg,f,c
 14841   00019A  D7FE               	bra	i1u1230_27
 14842   00019C  D000               	nop2	
 14843   00019E                     
 14844                           ;main.c: 393:                 PORTC = dig[i];
 14845   00019E  0E01               	movlw	low _dig
 14846   0001A0  2420               	addwf	_i^0,w,c
 14847   0001A2  6ED9               	movwf	fsr2l,c
 14848   0001A4  6ADA               	clrf	fsr2h,c
 14849   0001A6  0E00               	movlw	high _dig
 14850   0001A8  22DA               	addwfc	fsr2h,f,c
 14851   0001AA  50DF               	movf	indf2,w,c
 14852   0001AC  6E82               	movwf	130,c	;volatile
 14853   0001AE                     
 14854                           ;main.c: 394:                 _delay((unsigned long)((1)*(4000000/4000.0)));
 14855   0001AE  0EC8               	movlw	200
 14856   0001B0                     i1u1231_27:
 14857   0001B0  D000               	nop2	
 14858   0001B2  2EE8               	decfsz	wreg,f,c
 14859   0001B4  D7FD               	bra	i1u1231_27
 14860   0001B6                     
 14861                           ;main.c: 395:                 PORTC = 0xff;
 14862   0001B6  6882               	setf	130,c	;volatile
 14863   0001B8                     
 14864                           ;main.c: 396:             }
 14865   0001B8  2A20               	incf	_i^0,f,c
 14866   0001BA  EFB4  F000         	goto	i1l8577
 14867   0001BE                     i1l8595:
 14868                           
 14869                           ;main.c: 397:     if((pilotoAlarma == 0) && (pilotoSensor == 1)){
 14870   0001BE  0100               	movlb	0	; () banked
 14871   0001C0  51DB               	movf	_pilotoAlarma& (0+255),w,b
 14872   0001C2  A4D8               	btfss	status,2,c
 14873   0001C4  EFE6  F000         	goto	i1u966_21
 14874   0001C8  EFE8  F000         	goto	i1u966_20
 14875   0001CC                     i1u966_21:
 14876   0001CC  EF2F  F001         	goto	i1l8623
 14877   0001D0                     i1u966_20:
 14878   0001D0                     
 14879                           ; BSR set to: 0
 14880   0001D0  05DC               	decf	_pilotoSensor& (0+255),w,b
 14881   0001D2  A4D8               	btfss	status,2,c
 14882   0001D4  EFEE  F000         	goto	i1u967_21
 14883   0001D8  EFF0  F000         	goto	i1u967_20
 14884   0001DC                     i1u967_21:
 14885   0001DC  EF2F  F001         	goto	i1l8623
 14886   0001E0                     i1u967_20:
 14887   0001E0                     
 14888                           ; BSR set to: 0
 14889                           ;main.c: 398:         PORTB = PORTB & 0b11100001;
 14890   0001E0  5081               	movf	129,w,c	;volatile
 14891   0001E2  0BE1               	andlw	225
 14892   0001E4  6E81               	movwf	129,c	;volatile
 14893                           
 14894                           ;main.c: 399:         if(pilotoSensorAUX < 50){
 14895   0001E6  0E32               	movlw	50
 14896   0001E8  61B9               	cpfslt	_pilotoSensorAUX& (0+255),b
 14897   0001EA  EFF9  F000         	goto	i1u968_21
 14898   0001EE  EFFB  F000         	goto	i1u968_20
 14899   0001F2                     i1u968_21:
 14900   0001F2  EF14  F001         	goto	i1l8613
 14901   0001F6                     i1u968_20:
 14902   0001F6                     
 14903                           ; BSR set to: 0
 14904                           ;main.c: 400:             PORTB = PORTB & 0b11100001;
 14905   0001F6  5081               	movf	129,w,c	;volatile
 14906   0001F8  0BE1               	andlw	225
 14907   0001FA  6E81               	movwf	129,c	;volatile
 14908                           
 14909                           ;main.c: 401:             PORTB = PORTB + 0x18;
 14910   0001FC  5081               	movf	129,w,c	;volatile
 14911   0001FE  0F18               	addlw	24
 14912   000200  6E81               	movwf	129,c	;volatile
 14913   000202                     
 14914                           ; BSR set to: 0
 14915                           ;main.c: 402:             _delay((unsigned long)((1)*(4000000/4000.0)));
 14916   000202  0EC8               	movlw	200
 14917   000204                     i1u1232_27:
 14918   000204  D000               	nop2	
 14919   000206  2EE8               	decfsz	wreg,f,c
 14920   000208  D7FD               	bra	i1u1232_27
 14921   00020A                     
 14922                           ;main.c: 403:             PORTB = PORTB & 0b11100001;
 14923   00020A  5081               	movf	129,w,c	;volatile
 14924   00020C  0BE1               	andlw	225
 14925   00020E  6E81               	movwf	129,c	;volatile
 14926   000210                     
 14927                           ;main.c: 404:             PORTB = PORTB + 0x1a;
 14928   000210  5081               	movf	129,w,c	;volatile
 14929   000212  0F1A               	addlw	26
 14930   000214  6E81               	movwf	129,c	;volatile
 14931   000216                     
 14932                           ;main.c: 405:             _delay((unsigned long)((1)*(4000000/4000.0)));
 14933   000216  0EC8               	movlw	200
 14934   000218                     i1u1233_27:
 14935   000218  D000               	nop2	
 14936   00021A  2EE8               	decfsz	wreg,f,c
 14937   00021C  D7FD               	bra	i1u1233_27
 14938                           
 14939                           ;main.c: 406:             PORTB = PORTB & 0b11100001;
 14940   00021E  5081               	movf	129,w,c	;volatile
 14941   000220  0BE1               	andlw	225
 14942   000222  6E81               	movwf	129,c	;volatile
 14943   000224                     
 14944                           ;main.c: 407:             pilotoSensorAUX ++;
 14945   000224  0100               	movlb	0	; () banked
 14946   000226  2BB9               	incf	_pilotoSensorAUX& (0+255),f,b
 14947   000228                     i1l8613:
 14948                           
 14949                           ; BSR set to: 0
 14950                           ;main.c: 409:         if(pilotoSensorAUX >= 50){
 14951   000228  0E31               	movlw	49
 14952   00022A  65B9               	cpfsgt	_pilotoSensorAUX& (0+255),b
 14953   00022C  EF1A  F001         	goto	i1u969_21
 14954   000230  EF1C  F001         	goto	i1u969_20
 14955   000234                     i1u969_21:
 14956   000234  EF2F  F001         	goto	i1l8623
 14957   000238                     i1u969_20:
 14958   000238                     
 14959                           ; BSR set to: 0
 14960                           ;main.c: 410:             PORTB = PORTB & 0b11100001;
 14961   000238  5081               	movf	129,w,c	;volatile
 14962   00023A  0BE1               	andlw	225
 14963   00023C  6E81               	movwf	129,c	;volatile
 14964   00023E                     
 14965                           ; BSR set to: 0
 14966                           ;main.c: 411:             _delay((unsigned long)((1)*(4000000/4000.0)));
 14967   00023E  0EC8               	movlw	200
 14968   000240                     i1u1234_27:
 14969   000240  D000               	nop2	
 14970   000242  2EE8               	decfsz	wreg,f,c
 14971   000244  D7FD               	bra	i1u1234_27
 14972                           
 14973                           ;main.c: 412:             pilotoSensorAUX ++;
 14974   000246  0100               	movlb	0	; () banked
 14975   000248  2BB9               	incf	_pilotoSensorAUX& (0+255),f,b
 14976   00024A                     
 14977                           ; BSR set to: 0
 14978                           ;main.c: 413:             if(pilotoSensorAUX >100){
 14979   00024A  0E64               	movlw	100
 14980   00024C  65B9               	cpfsgt	_pilotoSensorAUX& (0+255),b
 14981   00024E  EF2B  F001         	goto	i1u970_21
 14982   000252  EF2D  F001         	goto	i1u970_20
 14983   000256                     i1u970_21:
 14984   000256  EF2F  F001         	goto	i1l8623
 14985   00025A                     i1u970_20:
 14986   00025A                     
 14987                           ; BSR set to: 0
 14988                           ;main.c: 414:                 pilotoSensorAUX = 0;
 14989   00025A  0E00               	movlw	0
 14990   00025C  6FB9               	movwf	_pilotoSensorAUX& (0+255),b
 14991   00025E                     i1l8623:
 14992                           
 14993                           ; BSR set to: 0
 14994                           ;main.c: 418:     resetWatch++;
 14995   00025E  4B9E               	infsnz	_resetWatch& (0+255),f,b
 14996   000260  2B9F               	incf	(_resetWatch+1)& (0+255),f,b
 14997   000262                     
 14998                           ; BSR set to: 0
 14999                           ;main.c: 419:     if(resetWatch >30000){
 15000   000262  BF9F               	btfsc	(_resetWatch+1)& (0+255),7,b
 15001   000264  EF3D  F001         	goto	i1u971_21
 15002   000268  0E31               	movlw	49
 15003   00026A  5D9E               	subwf	_resetWatch& (0+255),w,b
 15004   00026C  0E75               	movlw	117
 15005   00026E  599F               	subwfb	(_resetWatch+1)& (0+255),w,b
 15006   000270  A0D8               	btfss	status,0,c
 15007   000272  EF3D  F001         	goto	i1u971_21
 15008   000276  EF3F  F001         	goto	i1u971_20
 15009   00027A                     i1u971_21:
 15010   00027A  EF43  F001         	goto	i1l610
 15011   00027E                     i1u971_20:
 15012   00027E                     
 15013                           ; BSR set to: 0
 15014                           ;main.c: 420:         resetWatch = 10001;
 15015   00027E  0E27               	movlw	39
 15016   000280  6F9F               	movwf	(_resetWatch+1)& (0+255),b
 15017   000282  0E11               	movlw	17
 15018   000284  6F9E               	movwf	_resetWatch& (0+255),b
 15019   000286                     i1l610:
 15020                           
 15021                           ; BSR set to: 0
 15022                           ;main.c: 422:     if((pilotoAlarma == 0) && (pilotoSensor == 0)){
 15023   000286  51DB               	movf	_pilotoAlarma& (0+255),w,b
 15024   000288  A4D8               	btfss	status,2,c
 15025   00028A  EF49  F001         	goto	i1u972_21
 15026   00028E  EF4B  F001         	goto	i1u972_20
 15027   000292                     i1u972_21:
 15028   000292  EF2D  F002         	goto	i1l8705
 15029   000296                     i1u972_20:
 15030   000296                     
 15031                           ; BSR set to: 0
 15032   000296  51DC               	movf	_pilotoSensor& (0+255),w,b
 15033   000298  A4D8               	btfss	status,2,c
 15034   00029A  EF51  F001         	goto	i1u973_21
 15035   00029E  EF53  F001         	goto	i1u973_20
 15036   0002A2                     i1u973_21:
 15037   0002A2  EF2D  F002         	goto	i1l8705
 15038   0002A6                     i1u973_20:
 15039   0002A6                     
 15040                           ; BSR set to: 0
 15041                           ;main.c: 423:     for(char a = 13; a > 9 ; a--){
 15042   0002A6  0E0D               	movlw	13
 15043   0002A8  6E48               	movwf	myLoIsr@a^0,c
 15044   0002AA                     i1l8637:
 15045                           
 15046                           ;main.c: 424:         PORTB = PORTB & 0b11100001;
 15047   0002AA  5081               	movf	129,w,c	;volatile
 15048   0002AC  0BE1               	andlw	225
 15049   0002AE  6E81               	movwf	129,c	;volatile
 15050                           
 15051                           ;main.c: 425:         switch(a){
 15052   0002B0  EF07  F002         	goto	i1l8699
 15053   0002B4                     i1l8639:
 15054                           
 15055                           ;main.c: 427:                 if(estable > 0){
 15056   0002B4  0100               	movlb	0	; () banked
 15057   0002B6  51BF               	movf	_estable& (0+255),w,b
 15058   0002B8  B4D8               	btfsc	status,2,c
 15059   0002BA  EF61  F001         	goto	i1u974_21
 15060   0002BE  EF63  F001         	goto	i1u974_20
 15061   0002C2                     i1u974_21:
 15062   0002C2  EF24  F002         	goto	i1l8701
 15063   0002C6                     i1u974_20:
 15064   0002C6                     
 15065                           ; BSR set to: 0
 15066                           ;main.c: 428:                     PORTB = PORTB | 0x14;
 15067   0002C6  5081               	movf	129,w,c	;volatile
 15068   0002C8  0914               	iorlw	20
 15069   0002CA  6E81               	movwf	129,c	;volatile
 15070   0002CC                     i1l8643:
 15071                           
 15072                           ; BSR set to: 0
 15073                           ;main.c: 429:                     _delay((unsigned long)((1)*(4000000/4000.0)));
 15074   0002CC  0EC8               	movlw	200
 15075   0002CE                     i1u1235_27:
 15076   0002CE  D000               	nop2	
 15077   0002D0  2EE8               	decfsz	wreg,f,c
 15078   0002D2  D7FD               	bra	i1u1235_27
 15079   0002D4  EF24  F002         	goto	i1l8701
 15080   0002D8                     i1l616:
 15081                           
 15082                           ;main.c: 431:                 break;
 15083   0002D8  EF24  F002         	goto	i1l8701
 15084   0002DC                     i1l8645:
 15085                           
 15086                           ;main.c: 434:                 if(ManAuto > 0){
 15087   0002DC  0100               	movlb	0	; () banked
 15088   0002DE  51BA               	movf	_ManAuto& (0+255),w,b
 15089   0002E0  B4D8               	btfsc	status,2,c
 15090   0002E2  EF75  F001         	goto	i1u975_21
 15091   0002E6  EF77  F001         	goto	i1u975_20
 15092   0002EA                     i1u975_21:
 15093   0002EA  EF24  F002         	goto	i1l8701
 15094   0002EE                     i1u975_20:
 15095   0002EE                     
 15096                           ; BSR set to: 0
 15097                           ;main.c: 435:                         PORTB = PORTB | 0x16;
 15098   0002EE  5081               	movf	129,w,c	;volatile
 15099   0002F0  0916               	iorlw	22
 15100   0002F2  6E81               	movwf	129,c	;volatile
 15101   0002F4  EF66  F001         	goto	i1l8643
 15102   0002F8                     i1l8651:
 15103                           
 15104                           ;main.c: 441:                 if((alarmaSensor2 > 0) || (alarmaLamp2 > 0)){
 15105   0002F8  0100               	movlb	0	; () banked
 15106   0002FA  51BD               	movf	_alarmaSensor2& (0+255),w,b
 15107   0002FC  A4D8               	btfss	status,2,c
 15108   0002FE  EF83  F001         	goto	i1u976_21
 15109   000302  EF85  F001         	goto	i1u976_20
 15110   000306                     i1u976_21:
 15111   000306  EF8D  F001         	goto	i1l8655
 15112   00030A                     i1u976_20:
 15113   00030A                     
 15114                           ; BSR set to: 0
 15115   00030A  5017               	movf	_alarmaLamp2^0,w,c
 15116   00030C  B4D8               	btfsc	status,2,c
 15117   00030E  EF8B  F001         	goto	i1u977_21
 15118   000312  EF8D  F001         	goto	i1u977_20
 15119   000316                     i1u977_21:
 15120   000316  EF24  F002         	goto	i1l8701
 15121   00031A                     i1u977_20:
 15122   00031A                     i1l8655:
 15123                           
 15124                           ; BSR set to: 0
 15125                           ;main.c: 443:                     if(alarmaSensor2 > 0){
 15126   00031A  51BD               	movf	_alarmaSensor2& (0+255),w,b
 15127   00031C  B4D8               	btfsc	status,2,c
 15128   00031E  EF93  F001         	goto	i1u978_21
 15129   000322  EF95  F001         	goto	i1u978_20
 15130   000326                     i1u978_21:
 15131   000326  EF9C  F001         	goto	i1l8661
 15132   00032A                     i1u978_20:
 15133   00032A                     
 15134                           ; BSR set to: 0
 15135                           ;main.c: 444:                     PORTB = PORTB | 0x18;
 15136   00032A  5081               	movf	129,w,c	;volatile
 15137   00032C  0918               	iorlw	24
 15138   00032E  6E81               	movwf	129,c	;volatile
 15139   000330                     
 15140                           ; BSR set to: 0
 15141                           ;main.c: 445:                     _delay((unsigned long)((1)*(4000000/4000.0)));
 15142   000330  0EC8               	movlw	200
 15143   000332                     i1u1236_27:
 15144   000332  D000               	nop2	
 15145   000334  2EE8               	decfsz	wreg,f,c
 15146   000336  D7FD               	bra	i1u1236_27
 15147   000338                     i1l8661:
 15148                           
 15149                           ;main.c: 447:                     if(alarmaLamp2 > 0){
 15150   000338  5017               	movf	_alarmaLamp2^0,w,c
 15151   00033A  B4D8               	btfsc	status,2,c
 15152   00033C  EFA2  F001         	goto	i1u979_21
 15153   000340  EFA4  F001         	goto	i1u979_20
 15154   000344                     i1u979_21:
 15155   000344  EF24  F002         	goto	i1l8701
 15156   000348                     i1u979_20:
 15157   000348                     
 15158                           ;main.c: 448:                         if(alarmaLampAux < 50){
 15159   000348  0E32               	movlw	50
 15160   00034A  6016               	cpfslt	_alarmaLampAux^0,c
 15161   00034C  EFAA  F001         	goto	i1u980_21
 15162   000350  EFAC  F001         	goto	i1u980_20
 15163   000354                     i1u980_21:
 15164   000354  EFB6  F001         	goto	i1l8669
 15165   000358                     i1u980_20:
 15166   000358                     
 15167                           ;main.c: 449:                             alarmaLampAux++;
 15168   000358  2A16               	incf	_alarmaLampAux^0,f,c
 15169   00035A                     
 15170                           ;main.c: 450:                             PORTB = PORTB | 0x18;
 15171   00035A  5081               	movf	129,w,c	;volatile
 15172   00035C  0918               	iorlw	24
 15173   00035E  6E81               	movwf	129,c	;volatile
 15174                           
 15175                           ;main.c: 451:                             _delay((unsigned long)((1)*(4000000/4000.0)));
 15176   000360  0EC8               	movlw	200
 15177   000362                     i1u1237_27:
 15178   000362  D000               	nop2	
 15179   000364  2EE8               	decfsz	wreg,f,c
 15180   000366  D7FD               	bra	i1u1237_27
 15181                           
 15182                           ;main.c: 452:                         }else{
 15183   000368  EF24  F002         	goto	i1l8701
 15184   00036C                     i1l8669:
 15185                           
 15186                           ;main.c: 453:                             alarmaLampAux++;
 15187   00036C  2A16               	incf	_alarmaLampAux^0,f,c
 15188   00036E                     
 15189                           ;main.c: 454:                             if(alarmaLampAux > 100){
 15190   00036E  0E64               	movlw	100
 15191   000370  6416               	cpfsgt	_alarmaLampAux^0,c
 15192   000372  EFBD  F001         	goto	i1u981_21
 15193   000376  EFBF  F001         	goto	i1u981_20
 15194   00037A                     i1u981_21:
 15195   00037A  EF6C  F001         	goto	i1l616
 15196   00037E                     i1u981_20:
 15197   00037E                     
 15198                           ;main.c: 455:                                 alarmaLampAux = 0;
 15199   00037E  0E00               	movlw	0
 15200   000380  6E16               	movwf	_alarmaLampAux^0,c
 15201   000382  EF24  F002         	goto	i1l8701
 15202   000386                     i1l8675:
 15203                           
 15204                           ;main.c: 463:                 if((alarmaSensor1 > 0)|| (alarmaLamp1 > 0)){
 15205   000386  0100               	movlb	0	; () banked
 15206   000388  51BE               	movf	_alarmaSensor1& (0+255),w,b
 15207   00038A  A4D8               	btfss	status,2,c
 15208   00038C  EFCA  F001         	goto	i1u982_21
 15209   000390  EFCC  F001         	goto	i1u982_20
 15210   000394                     i1u982_21:
 15211   000394  EFD4  F001         	goto	i1l8679
 15212   000398                     i1u982_20:
 15213   000398                     
 15214                           ; BSR set to: 0
 15215   000398  5018               	movf	_alarmaLamp1^0,w,c
 15216   00039A  B4D8               	btfsc	status,2,c
 15217   00039C  EFD2  F001         	goto	i1u983_21
 15218   0003A0  EFD4  F001         	goto	i1u983_20
 15219   0003A4                     i1u983_21:
 15220   0003A4  EF24  F002         	goto	i1l8701
 15221   0003A8                     i1u983_20:
 15222   0003A8                     i1l8679:
 15223                           
 15224                           ; BSR set to: 0
 15225                           ;main.c: 464:                     if(alarmaLamp1 > 0){
 15226   0003A8  5018               	movf	_alarmaLamp1^0,w,c
 15227   0003AA  B4D8               	btfsc	status,2,c
 15228   0003AC  EFDA  F001         	goto	i1u984_21
 15229   0003B0  EFDC  F001         	goto	i1u984_20
 15230   0003B4                     i1u984_21:
 15231   0003B4  EFF9  F001         	goto	i1l633
 15232   0003B8                     i1u984_20:
 15233   0003B8                     
 15234                           ; BSR set to: 0
 15235                           ;main.c: 465:                         if(alarmaLampAux < 50){
 15236   0003B8  0E32               	movlw	50
 15237   0003BA  6016               	cpfslt	_alarmaLampAux^0,c
 15238   0003BC  EFE2  F001         	goto	i1u985_21
 15239   0003C0  EFE4  F001         	goto	i1u985_20
 15240   0003C4                     i1u985_21:
 15241   0003C4  EFEE  F001         	goto	i1l8687
 15242   0003C8                     i1u985_20:
 15243   0003C8                     
 15244                           ; BSR set to: 0
 15245                           ;main.c: 466:                             alarmaLampAux++;
 15246   0003C8  2A16               	incf	_alarmaLampAux^0,f,c
 15247   0003CA                     
 15248                           ; BSR set to: 0
 15249                           ;main.c: 467:                             PORTB = PORTB | 0x1a;
 15250   0003CA  5081               	movf	129,w,c	;volatile
 15251   0003CC  091A               	iorlw	26
 15252   0003CE  6E81               	movwf	129,c	;volatile
 15253                           
 15254                           ;main.c: 468:                             _delay((unsigned long)((1)*(4000000/4000.0)));
 15255   0003D0  0EC8               	movlw	200
 15256   0003D2                     i1u1238_27:
 15257   0003D2  D000               	nop2	
 15258   0003D4  2EE8               	decfsz	wreg,f,c
 15259   0003D6  D7FD               	bra	i1u1238_27
 15260                           
 15261                           ;main.c: 469:                         }else{
 15262   0003D8  EFF9  F001         	goto	i1l633
 15263   0003DC                     i1l8687:
 15264                           
 15265                           ; BSR set to: 0
 15266                           ;main.c: 470:                             alarmaLampAux++;
 15267   0003DC  2A16               	incf	_alarmaLampAux^0,f,c
 15268   0003DE                     
 15269                           ; BSR set to: 0
 15270                           ;main.c: 471:                             if(alarmaLampAux > 100){
 15271   0003DE  0E64               	movlw	100
 15272   0003E0  6416               	cpfsgt	_alarmaLampAux^0,c
 15273   0003E2  EFF5  F001         	goto	i1u986_21
 15274   0003E6  EFF7  F001         	goto	i1u986_20
 15275   0003EA                     i1u986_21:
 15276   0003EA  EFF9  F001         	goto	i1l633
 15277   0003EE                     i1u986_20:
 15278   0003EE                     
 15279                           ; BSR set to: 0
 15280                           ;main.c: 472:                                 alarmaLampAux = 0;
 15281   0003EE  0E00               	movlw	0
 15282   0003F0  6E16               	movwf	_alarmaLampAux^0,c
 15283   0003F2                     i1l633:
 15284                           
 15285                           ;main.c: 476:                     if(alarmaSensor1 > 0){
 15286   0003F2  0100               	movlb	0	; () banked
 15287   0003F4  51BE               	movf	_alarmaSensor1& (0+255),w,b
 15288   0003F6  B4D8               	btfsc	status,2,c
 15289   0003F8  EF00  F002         	goto	i1u987_21
 15290   0003FC  EF02  F002         	goto	i1u987_20
 15291   000400                     i1u987_21:
 15292   000400  EF24  F002         	goto	i1l8701
 15293   000404                     i1u987_20:
 15294   000404                     
 15295                           ; BSR set to: 0
 15296                           ;main.c: 477:                         PORTB = PORTB | 0x1a;
 15297   000404  5081               	movf	129,w,c	;volatile
 15298   000406  091A               	iorlw	26
 15299   000408  6E81               	movwf	129,c	;volatile
 15300   00040A  EF66  F001         	goto	i1l8643
 15301   00040E                     i1l8699:
 15302   00040E  5048               	movf	myLoIsr@a^0,w,c
 15303   000410  6E41               	movwf	??_myLoIsr^0,c
 15304   000412  6A42               	clrf	(??_myLoIsr+1)^0,c
 15305                           
 15306                           ; Switch on 2 bytes has been partitioned into a top level switch of size 1, and 1 sub-sw
      +                          itches
 15307                           ; Switch size 1, requested type "simple"
 15308                           ; Number of cases is 1, Range of values is 0 to 0
 15309                           ; switch strategies available:
 15310                           ; Name         Instructions Cycles
 15311                           ; simple_byte            4     3 (average)
 15312                           ;	Chosen strategy is simple_byte
 15313   000414  5042               	movf	(??_myLoIsr+1)^0,w,c
 15314   000416  0A00               	xorlw	0	; case 0
 15315   000418  B4D8               	btfsc	status,2,c
 15316   00041A  EF11  F002         	goto	i1l10349
 15317   00041E  EF24  F002         	goto	i1l8701
 15318   000422                     i1l10349:
 15319                           
 15320                           ; Switch size 1, requested type "simple"
 15321                           ; Number of cases is 4, Range of values is 10 to 13
 15322                           ; switch strategies available:
 15323                           ; Name         Instructions Cycles
 15324                           ; simple_byte           13     7 (average)
 15325                           ;	Chosen strategy is simple_byte
 15326   000422  5041               	movf	??_myLoIsr^0,w,c
 15327   000424  0A0A               	xorlw	10	; case 10
 15328   000426  B4D8               	btfsc	status,2,c
 15329   000428  EF5A  F001         	goto	i1l8639
 15330   00042C  0A01               	xorlw	1	; case 11
 15331   00042E  B4D8               	btfsc	status,2,c
 15332   000430  EF6E  F001         	goto	i1l8645
 15333   000434  0A07               	xorlw	7	; case 12
 15334   000436  B4D8               	btfsc	status,2,c
 15335   000438  EF7C  F001         	goto	i1l8651
 15336   00043C  0A01               	xorlw	1	; case 13
 15337   00043E  B4D8               	btfsc	status,2,c
 15338   000440  EFC3  F001         	goto	i1l8675
 15339   000444  EF24  F002         	goto	i1l8701
 15340   000448                     i1l8701:
 15341                           
 15342                           ;main.c: 484:     }
 15343   000448  0648               	decf	myLoIsr@a^0,f,c
 15344   00044A  0E0A               	movlw	10
 15345   00044C  6048               	cpfslt	myLoIsr@a^0,c
 15346   00044E  EF2B  F002         	goto	i1u988_21
 15347   000452  EF2D  F002         	goto	i1u988_20
 15348   000456                     i1u988_21:
 15349   000456  EF55  F001         	goto	i1l8637
 15350   00045A                     i1u988_20:
 15351   00045A                     i1l8705:
 15352                           
 15353                           ;main.c: 486:     if(pilotoAlarma == 1){
 15354   00045A  0100               	movlb	0	; () banked
 15355   00045C  05DB               	decf	_pilotoAlarma& (0+255),w,b
 15356   00045E  A4D8               	btfss	status,2,c
 15357   000460  EF34  F002         	goto	i1u989_21
 15358   000464  EF36  F002         	goto	i1u989_20
 15359   000468                     i1u989_21:
 15360   000468  EF86  F002         	goto	i1l8739
 15361   00046C                     i1u989_20:
 15362   00046C                     
 15363                           ; BSR set to: 0
 15364                           ;main.c: 487:         PORTB = PORTB & 0b11100001;
 15365   00046C  5081               	movf	129,w,c	;volatile
 15366   00046E  0BE1               	andlw	225
 15367   000470  6E81               	movwf	129,c	;volatile
 15368                           
 15369                           ;main.c: 488:         if(pilotoAlarmaAUX < 50){
 15370   000472  0E32               	movlw	50
 15371   000474  61BC               	cpfslt	_pilotoAlarmaAUX& (0+255),b
 15372   000476  EF3F  F002         	goto	i1u990_21
 15373   00047A  EF41  F002         	goto	i1u990_20
 15374   00047E                     i1u990_21:
 15375   00047E  EF6B  F002         	goto	i1l8729
 15376   000482                     i1u990_20:
 15377   000482                     
 15378                           ; BSR set to: 0
 15379                           ;main.c: 489:             PORTB = PORTB + 0x14;
 15380   000482  5081               	movf	129,w,c	;volatile
 15381   000484  0F14               	addlw	20
 15382   000486  6E81               	movwf	129,c	;volatile
 15383   000488                     
 15384                           ; BSR set to: 0
 15385                           ;main.c: 490:             _delay((unsigned long)((1)*(4000000/4000.0)));
 15386   000488  0EC8               	movlw	200
 15387   00048A                     i1u1239_27:
 15388   00048A  D000               	nop2	
 15389   00048C  2EE8               	decfsz	wreg,f,c
 15390   00048E  D7FD               	bra	i1u1239_27
 15391   000490                     
 15392                           ;main.c: 491:             PORTB = PORTB & 0b11100001;
 15393   000490  5081               	movf	129,w,c	;volatile
 15394   000492  0BE1               	andlw	225
 15395   000494  6E81               	movwf	129,c	;volatile
 15396   000496                     
 15397                           ;main.c: 492:             PORTB = PORTB + 0x16;
 15398   000496  5081               	movf	129,w,c	;volatile
 15399   000498  0F16               	addlw	22
 15400   00049A  6E81               	movwf	129,c	;volatile
 15401   00049C                     
 15402                           ;main.c: 493:             _delay((unsigned long)((1)*(4000000/4000.0)));
 15403   00049C  0EC8               	movlw	200
 15404   00049E                     i1u1240_27:
 15405   00049E  D000               	nop2	
 15406   0004A0  2EE8               	decfsz	wreg,f,c
 15407   0004A2  D7FD               	bra	i1u1240_27
 15408                           
 15409                           ;main.c: 494:             PORTB = PORTB & 0b11100001;
 15410   0004A4  5081               	movf	129,w,c	;volatile
 15411   0004A6  0BE1               	andlw	225
 15412   0004A8  6E81               	movwf	129,c	;volatile
 15413                           
 15414                           ;main.c: 495:             PORTB = PORTB + 0x18;
 15415   0004AA  5081               	movf	129,w,c	;volatile
 15416   0004AC  0F18               	addlw	24
 15417   0004AE  6E81               	movwf	129,c	;volatile
 15418   0004B0                     
 15419                           ;main.c: 496:             _delay((unsigned long)((1)*(4000000/4000.0)));
 15420   0004B0  0EC8               	movlw	200
 15421   0004B2                     i1u1241_27:
 15422   0004B2  D000               	nop2	
 15423   0004B4  2EE8               	decfsz	wreg,f,c
 15424   0004B6  D7FD               	bra	i1u1241_27
 15425   0004B8                     
 15426                           ;main.c: 497:             PORTB = PORTB & 0b11100001;
 15427   0004B8  5081               	movf	129,w,c	;volatile
 15428   0004BA  0BE1               	andlw	225
 15429   0004BC  6E81               	movwf	129,c	;volatile
 15430   0004BE                     
 15431                           ;main.c: 498:             PORTB = PORTB + 0x1a;
 15432   0004BE  5081               	movf	129,w,c	;volatile
 15433   0004C0  0F1A               	addlw	26
 15434   0004C2  6E81               	movwf	129,c	;volatile
 15435   0004C4                     
 15436                           ;main.c: 499:             _delay((unsigned long)((1)*(4000000/4000.0)));
 15437   0004C4  0EC8               	movlw	200
 15438   0004C6                     i1u1242_27:
 15439   0004C6  D000               	nop2	
 15440   0004C8  2EE8               	decfsz	wreg,f,c
 15441   0004CA  D7FD               	bra	i1u1242_27
 15442                           
 15443                           ;main.c: 500:             PORTB = PORTB & 0b11100001;
 15444   0004CC  5081               	movf	129,w,c	;volatile
 15445   0004CE  0BE1               	andlw	225
 15446   0004D0  6E81               	movwf	129,c	;volatile
 15447   0004D2                     
 15448                           ;main.c: 501:             pilotoAlarmaAUX ++;
 15449   0004D2  0100               	movlb	0	; () banked
 15450   0004D4  2BBC               	incf	_pilotoAlarmaAUX& (0+255),f,b
 15451   0004D6                     i1l8729:
 15452                           
 15453                           ; BSR set to: 0
 15454                           ;main.c: 503:         if(pilotoAlarmaAUX >= 50){
 15455   0004D6  0E31               	movlw	49
 15456   0004D8  65BC               	cpfsgt	_pilotoAlarmaAUX& (0+255),b
 15457   0004DA  EF71  F002         	goto	i1u991_21
 15458   0004DE  EF73  F002         	goto	i1u991_20
 15459   0004E2                     i1u991_21:
 15460   0004E2  EF86  F002         	goto	i1l8739
 15461   0004E6                     i1u991_20:
 15462   0004E6                     
 15463                           ; BSR set to: 0
 15464                           ;main.c: 504:             PORTB = PORTB & 0b11100001;
 15465   0004E6  5081               	movf	129,w,c	;volatile
 15466   0004E8  0BE1               	andlw	225
 15467   0004EA  6E81               	movwf	129,c	;volatile
 15468   0004EC                     
 15469                           ; BSR set to: 0
 15470                           ;main.c: 505:             _delay((unsigned long)((1)*(4000000/4000.0)));
 15471   0004EC  0EC8               	movlw	200
 15472   0004EE                     i1u1243_27:
 15473   0004EE  D000               	nop2	
 15474   0004F0  2EE8               	decfsz	wreg,f,c
 15475   0004F2  D7FD               	bra	i1u1243_27
 15476                           
 15477                           ;main.c: 506:             pilotoAlarmaAUX ++;
 15478   0004F4  0100               	movlb	0	; () banked
 15479   0004F6  2BBC               	incf	_pilotoAlarmaAUX& (0+255),f,b
 15480   0004F8                     
 15481                           ; BSR set to: 0
 15482                           ;main.c: 507:             if(pilotoAlarmaAUX >100){
 15483   0004F8  0E64               	movlw	100
 15484   0004FA  65BC               	cpfsgt	_pilotoAlarmaAUX& (0+255),b
 15485   0004FC  EF82  F002         	goto	i1u992_21
 15486   000500  EF84  F002         	goto	i1u992_20
 15487   000504                     i1u992_21:
 15488   000504  EF86  F002         	goto	i1l8739
 15489   000508                     i1u992_20:
 15490   000508                     
 15491                           ; BSR set to: 0
 15492                           ;main.c: 508:                 pilotoAlarmaAUX = 0;
 15493   000508  0E00               	movlw	0
 15494   00050A  6FBC               	movwf	_pilotoAlarmaAUX& (0+255),b
 15495   00050C                     i1l8739:
 15496                           
 15497                           ; BSR set to: 0
 15498                           ;main.c: 512:     resetWatch++;
 15499   00050C  4B9E               	infsnz	_resetWatch& (0+255),f,b
 15500   00050E  2B9F               	incf	(_resetWatch+1)& (0+255),f,b
 15501   000510                     
 15502                           ; BSR set to: 0
 15503                           ;main.c: 513:     if(resetWatch >30000){
 15504   000510  BF9F               	btfsc	(_resetWatch+1)& (0+255),7,b
 15505   000512  EF94  F002         	goto	i1u993_21
 15506   000516  0E31               	movlw	49
 15507   000518  5D9E               	subwf	_resetWatch& (0+255),w,b
 15508   00051A  0E75               	movlw	117
 15509   00051C  599F               	subwfb	(_resetWatch+1)& (0+255),w,b
 15510   00051E  A0D8               	btfss	status,0,c
 15511   000520  EF94  F002         	goto	i1u993_21
 15512   000524  EF96  F002         	goto	i1u993_20
 15513   000528                     i1u993_21:
 15514   000528  EF9A  F002         	goto	i1l8745
 15515   00052C                     i1u993_20:
 15516   00052C                     
 15517                           ; BSR set to: 0
 15518                           ;main.c: 514:         resetWatch = 10001;
 15519   00052C  0E27               	movlw	39
 15520   00052E  6F9F               	movwf	(_resetWatch+1)& (0+255),b
 15521   000530  0E11               	movlw	17
 15522   000532  6F9E               	movwf	_resetWatch& (0+255),b
 15523   000534                     i1l8745:
 15524                           
 15525                           ; BSR set to: 0
 15526                           ;main.c: 517:     if(resetWatch > 10000){
 15527   000534  BF9F               	btfsc	(_resetWatch+1)& (0+255),7,b
 15528   000536  EFA6  F002         	goto	i1u994_21
 15529   00053A  0E11               	movlw	17
 15530   00053C  5D9E               	subwf	_resetWatch& (0+255),w,b
 15531   00053E  0E27               	movlw	39
 15532   000540  599F               	subwfb	(_resetWatch+1)& (0+255),w,b
 15533   000542  A0D8               	btfss	status,0,c
 15534   000544  EFA6  F002         	goto	i1u994_21
 15535   000548  EFA8  F002         	goto	i1u994_20
 15536   00054C                     i1u994_21:
 15537   00054C  EFAB  F002         	goto	i1l643
 15538   000550                     i1u994_20:
 15539   000550                     
 15540                           ; BSR set to: 0
 15541                           ;main.c: 518:             WDTCONbits.SWDTEN=1;
 15542   000550  80D1               	bsf	209,0,c	;volatile
 15543                           
 15544                           ;main.c: 519:         }else{
 15545   000552  EFAC  F002         	goto	i1l644
 15546   000556                     i1l643:
 15547                           
 15548                           ; BSR set to: 0
 15549                           ;main.c: 520:                WDTCONbits.SWDTEN=0;
 15550   000556  90D1               	bcf	209,0,c	;volatile
 15551   000558                     i1l644:
 15552                           
 15553                           ; BSR set to: 0
 15554                           ;main.c: 523:     T0CONbits.TMR0ON = 1;
 15555   000558  8ED5               	bsf	213,7,c	;volatile
 15556   00055A                     
 15557                           ; BSR set to: 0
 15558                           ;main.c: 524:     TMR0H = 0x00;
 15559   00055A  0E00               	movlw	0
 15560   00055C  6ED7               	movwf	215,c	;volatile
 15561                           
 15562                           ;main.c: 525:     TMR0L = 0x06;
 15563   00055E  0E06               	movlw	6
 15564   000560  6ED6               	movwf	214,c	;volatile
 15565   000562                     
 15566                           ; BSR set to: 0
 15567                           ;main.c: 526:     INTCONbits.PEIE =1;
 15568   000562  8CF2               	bsf	242,6,c	;volatile
 15569   000564                     
 15570                           ; BSR set to: 0
 15571   000564  C047  FFDA         	movff	??_myLoIsr+6,fsr2h
 15572   000568  C046  FFD9         	movff	??_myLoIsr+5,fsr2l
 15573   00056C  C045  FFE0         	movff	??_myLoIsr+4,bsr
 15574   000570  C044  FFE8         	movff	??_myLoIsr+3,wreg
 15575   000574  C043  FFD8         	movff	??_myLoIsr+2,status
 15576   000578  9057               	bcf	int$flags,0,c	;clear compiler interrupt flag (level 1)
 15577   00057A  0010               	retfie	
 15578   00057C                     __end_of_myLoIsr:
 15579                           	callstack 0
 15580                           
 15581 ;; *************** function _myIsr *****************
 15582 ;; Defined at:
 15583 ;;		line 244 in file "main.c"
 15584 ;; Parameters:    Size  Location     Type
 15585 ;;		None
 15586 ;; Auto vars:     Size  Location     Type
 15587 ;;		None
 15588 ;; Return value:  Size  Location     Type
 15589 ;;                  1    wreg      void 
 15590 ;; Registers used:
 15591 ;;		wreg, status,2, status,0
 15592 ;; Tracked objects:
 15593 ;;		On entry : 0/0
 15594 ;;		On exit  : 0/0
 15595 ;;		Unchanged: 0/0
 15596 ;; Data sizes:     COMRAM   BANK0   BANK1   BANK2   BANK3   BANK4   BANK5
 15597 ;;      Params:         0       0       0       0       0       0       0
 15598 ;;      Locals:         0       0       0       0       0       0       0
 15599 ;;      Temps:          0       0       0       0       0       0       0
 15600 ;;      Totals:         0       0       0       0       0       0       0
 15601 ;;Total ram usage:        0 bytes
 15602 ;; Hardware stack levels used: 1
 15603 ;; This function calls:
 15604 ;;		Nothing
 15605 ;; This function is called by:
 15606 ;;		Interrupt level 2
 15607 ;; This function uses a non-reentrant model
 15608 ;;
 15609                           
 15610                           	psect	intcode
 15611   000008                     __pintcode:
 15612                           	callstack 0
 15613   000008                     _myIsr:
 15614                           	callstack 24
 15615                           
 15616                           ; BSR set to: 0
 15617                           ;incstack = 0
 15618   000008  8257               	bsf	int$flags,1,c	;set compiler interrupt flag (level 2)
 15619   00000A  EF1C  F023         	goto	int_func
 15620                           
 15621                           	psect	intcode_body
 15622   004638                     __pintcode_body:
 15623                           	callstack 24
 15624   004638                     int_func:
 15625                           	callstack 24
 15626   004638                     
 15627                           ;main.c: 246:     if(PIR1bits.TMR1IF == 1){
 15628   004638  A09E               	btfss	158,0,c	;volatile
 15629   00463A  EF21  F023         	goto	i2u952_41
 15630   00463E  EF23  F023         	goto	i2u952_40
 15631   004642                     i2u952_41:
 15632   004642  EF46  F023         	goto	i2l8519
 15633   004646                     i2u952_40:
 15634   004646                     
 15635                           ;main.c: 248:         PIE1bits.TMR1IE = 0;
 15636   004646  909D               	bcf	157,0,c	;volatile
 15637                           
 15638                           ;main.c: 249:         INTCONbits.INT0E = 1;
 15639   004648  88F2               	bsf	242,4,c	;volatile
 15640                           
 15641                           ;main.c: 250:         PIR1bits.TMR1IF = 0;
 15642   00464A  909E               	bcf	158,0,c	;volatile
 15643   00464C                     
 15644                           ;main.c: 251:         if(salPotencia>=15){
 15645   00464C  500C               	movf	(_salPotencia+1)^0,w,c
 15646   00464E  E109               	bnz	i2u953_40
 15647   004650  0E0F               	movlw	15
 15648   004652  5C0B               	subwf	_salPotencia^0,w,c
 15649   004654  A0D8               	btfss	status,0,c
 15650   004656  EF2F  F023         	goto	i2u953_41
 15651   00465A  EF31  F023         	goto	i2u953_40
 15652   00465E                     i2u953_41:
 15653   00465E  EF42  F023         	goto	i2l8515
 15654   004662                     i2u953_40:
 15655   004662                     
 15656                           ;main.c: 252:             PORTBbits.RB5 = 1;
 15657   004662  8A81               	bsf	129,5,c	;volatile
 15658   004664                     
 15659                           ;main.c: 253:             _delay((unsigned long)((20)*(4000000/4000000.0)));
 15660   004664  0E06               	movlw	6
 15661   004666                     i2u1244_47:
 15662   004666  2EE8               	decfsz	wreg,f,c
 15663   004668  D7FE               	bra	i2u1244_47
 15664   00466A  D000               	nop2	
 15665   00466C                     
 15666                           ;main.c: 254:             if(salPotencia<95){
 15667   00466C  500C               	movf	(_salPotencia+1)^0,w,c
 15668   00466E  E107               	bnz	i2u954_41
 15669   004670  0E5F               	movlw	95
 15670   004672  5C0B               	subwf	_salPotencia^0,w,c
 15671   004674  B0D8               	btfsc	status,0,c
 15672   004676  EF3F  F023         	goto	i2u954_41
 15673   00467A  EF41  F023         	goto	i2u954_40
 15674   00467E                     i2u954_41:
 15675   00467E  EF42  F023         	goto	i2l8515
 15676   004682                     i2u954_40:
 15677   004682                     
 15678                           ;main.c: 255:                 PORTBbits.RB5 = 0;
 15679   004682  9A81               	bcf	129,5,c	;volatile
 15680   004684                     i2l8515:
 15681                           
 15682                           ;main.c: 258:         resetWatch++;
 15683   004684  0100               	movlb	0	; () banked
 15684   004686  4B9E               	infsnz	_resetWatch& (0+255),f,b
 15685   004688  2B9F               	incf	(_resetWatch+1)& (0+255),f,b
 15686   00468A                     
 15687                           ; BSR set to: 0
 15688                           ;main.c: 259:         INTCONbits.INT0E = 1;
 15689   00468A  88F2               	bsf	242,4,c	;volatile
 15690   00468C                     i2l8519:
 15691                           
 15692                           ;main.c: 262:     if(INTCONbits.INT0IF==1){
 15693   00468C  A2F2               	btfss	242,1,c	;volatile
 15694   00468E  EF4B  F023         	goto	i2u955_41
 15695   004692  EF4D  F023         	goto	i2u955_40
 15696   004696                     i2u955_41:
 15697   004696  EF6A  F023         	goto	i2l586
 15698   00469A                     i2u955_40:
 15699   00469A                     
 15700                           ;main.c: 263:         if(resetWatch > 10000){
 15701   00469A  0100               	movlb	0	; () banked
 15702   00469C  BF9F               	btfsc	(_resetWatch+1)& (0+255),7,b
 15703   00469E  EF5A  F023         	goto	i2u956_41
 15704   0046A2  0E11               	movlw	17
 15705   0046A4  5D9E               	subwf	_resetWatch& (0+255),w,b
 15706   0046A6  0E27               	movlw	39
 15707   0046A8  599F               	subwfb	(_resetWatch+1)& (0+255),w,b
 15708   0046AA  A0D8               	btfss	status,0,c
 15709   0046AC  EF5A  F023         	goto	i2u956_41
 15710   0046B0  EF5C  F023         	goto	i2u956_40
 15711   0046B4                     i2u956_41:
 15712   0046B4  EF5F  F023         	goto	i2l584
 15713   0046B8                     i2u956_40:
 15714   0046B8                     
 15715                           ; BSR set to: 0
 15716                           ;main.c: 264:             WDTCONbits.SWDTEN=1;
 15717   0046B8  80D1               	bsf	209,0,c	;volatile
 15718                           
 15719                           ;main.c: 265:         }else{
 15720   0046BA  EF60  F023         	goto	i2l585
 15721   0046BE                     i2l584:
 15722                           
 15723                           ; BSR set to: 0
 15724                           ;main.c: 266:                WDTCONbits.SWDTEN=0;
 15725   0046BE  90D1               	bcf	209,0,c	;volatile
 15726   0046C0                     i2l585:
 15727                           
 15728                           ; BSR set to: 0
 15729                           ;main.c: 268:         PIE1bits.TMR1IE = 0;
 15730   0046C0  909D               	bcf	157,0,c	;volatile
 15731                           
 15732                           ;main.c: 269:         INTCONbits.INT0E = 1;
 15733   0046C2  88F2               	bsf	242,4,c	;volatile
 15734                           
 15735                           ;main.c: 270:         INTCONbits.INT0IF=0;
 15736   0046C4  92F2               	bcf	242,1,c	;volatile
 15737                           
 15738                           ;main.c: 271:         PIR1bits.TMR1IF = 0;
 15739   0046C6  909E               	bcf	158,0,c	;volatile
 15740                           
 15741                           ;main.c: 272:         TMR1L = salPotenciaAux0;
 15742   0046C8  C0E0  FFCE         	movff	_salPotenciaAux0,4046	;volatile
 15743                           
 15744                           ;main.c: 273:         TMR1H = salPotenciaAux1;
 15745   0046CC  C0DF  FFCF         	movff	_salPotenciaAux1,4047	;volatile
 15746                           
 15747                           ;main.c: 274:         T1CONbits.TMR1ON = 1;
 15748   0046D0  80CD               	bsf	205,0,c	;volatile
 15749                           
 15750                           ;main.c: 275:         PIE1bits.TMR1IE = 1;
 15751   0046D2  809D               	bsf	157,0,c	;volatile
 15752   0046D4                     i2l586:
 15753   0046D4  9257               	bcf	int$flags,1,c	;clear compiler interrupt flag (level 2)
 15754   0046D6  0011               	retfie		f
 15755   0046D8                     __end_of_myIsr:
 15756                           	callstack 0
 15757   000000                     
 15758                           	psect	rparam
 15759   000000                     
 15760                           	psect	temp
 15761   000057                     btemp:
 15762                           	callstack 0
 15763   000057                     	ds	1
 15764   000000                     int$flags	set	btemp
 15765   000000                     wtemp8	set	btemp+1
 15766   000000                     ttemp5	set	btemp+1
 15767   000000                     ttemp6	set	btemp+4
 15768   000000                     ttemp7	set	btemp+8
 15769                           
 15770                           	psect	idloc
 15771                           
 15772                           ;Config register IDLOC0 @ 0x200000
 15773                           ;	unspecified, using default values
 15774   200000                     	org	2097152
 15775   200000  FF                 	db	255
 15776                           
 15777                           ;Config register IDLOC1 @ 0x200001
 15778                           ;	unspecified, using default values
 15779   200001                     	org	2097153
 15780   200001  FF                 	db	255
 15781                           
 15782                           ;Config register IDLOC2 @ 0x200002
 15783                           ;	unspecified, using default values
 15784   200002                     	org	2097154
 15785   200002  FF                 	db	255
 15786                           
 15787                           ;Config register IDLOC3 @ 0x200003
 15788                           ;	unspecified, using default values
 15789   200003                     	org	2097155
 15790   200003  FF                 	db	255
 15791                           
 15792                           ;Config register IDLOC4 @ 0x200004
 15793                           ;	unspecified, using default values
 15794   200004                     	org	2097156
 15795   200004  FF                 	db	255
 15796                           
 15797                           ;Config register IDLOC5 @ 0x200005
 15798                           ;	unspecified, using default values
 15799   200005                     	org	2097157
 15800   200005  FF                 	db	255
 15801                           
 15802                           ;Config register IDLOC6 @ 0x200006
 15803                           ;	unspecified, using default values
 15804   200006                     	org	2097158
 15805   200006  FF                 	db	255
 15806                           
 15807                           ;Config register IDLOC7 @ 0x200007
 15808                           ;	unspecified, using default values
 15809   200007                     	org	2097159
 15810   200007  FF                 	db	255
 15811                           
 15812                           	psect	config
 15813                           
 15814                           ; Padding undefined space
 15815   300000                     	org	3145728
 15816   300000  FF                 	db	255
 15817                           
 15818                           ;Config register CONFIG1H @ 0x300001
 15819                           ;	Oscillator Selection bits
 15820                           ;	FOSC = XT, XT oscillator
 15821                           ;	4X PLL Enable
 15822                           ;	PLLCFG = OFF, Oscillator used directly
 15823                           ;	Primary clock enable bit
 15824                           ;	PRICLKEN = ON, Primary clock enabled
 15825                           ;	Fail-Safe Clock Monitor Enable bit
 15826                           ;	FCMEN = OFF, Fail-Safe Clock Monitor disabled
 15827                           ;	Internal/External Oscillator Switchover bit
 15828                           ;	IESO = OFF, Oscillator Switchover mode disabled
 15829   300001                     	org	3145729
 15830   300001  21                 	db	33
 15831                           
 15832                           ;Config register CONFIG2L @ 0x300002
 15833                           ;	Power-up Timer Enable bit
 15834                           ;	PWRTEN = OFF, Power up timer disabled
 15835                           ;	Brown-out Reset Enable bits
 15836                           ;	BOREN = SBORDIS, Brown-out Reset enabled in hardware only (SBOREN is disabled)
 15837                           ;	Brown Out Reset Voltage bits
 15838                           ;	BORV = 250, VBOR set to 2.50 V nominal
 15839   300002                     	org	3145730
 15840   300002  0F                 	db	15
 15841                           
 15842                           ;Config register CONFIG2H @ 0x300003
 15843                           ;	Watchdog Timer Enable bits
 15844                           ;	WDTEN = SWON, WDT is controlled by SWDTEN bit of the WDTCON register
 15845                           ;	Watchdog Timer Postscale Select bits
 15846                           ;	WDTPS = 32768, 1:32768
 15847   300003                     	org	3145731
 15848   300003  3E                 	db	62
 15849                           
 15850                           ; Padding undefined space
 15851   300004                     	org	3145732
 15852   300004  FF                 	db	255
 15853                           
 15854                           ;Config register CONFIG3H @ 0x300005
 15855                           ;	CCP2 MUX bit
 15856                           ;	CCP2MX = PORTC1, CCP2 input/output is multiplexed with RC1
 15857                           ;	PORTB A/D Enable bit
 15858                           ;	PBADEN = OFF, PORTB<5:0> pins are configured as digital I/O on Reset
 15859                           ;	P3A/CCP3 Mux bit
 15860                           ;	CCP3MX = PORTB5, P3A/CCP3 input/output is multiplexed with RB5
 15861                           ;	HFINTOSC Fast Start-up
 15862                           ;	HFOFST = ON, HFINTOSC output and ready status are not delayed by the oscillator stable
      +                           status
 15863                           ;	Timer3 Clock input mux bit
 15864                           ;	T3CMX = PORTC0, T3CKI is on RC0
 15865                           ;	ECCP2 B output mux bit
 15866                           ;	P2BMX = PORTB5, P2B is on RB5
 15867                           ;	MCLR Pin Enable bit
 15868                           ;	MCLRE = EXTMCLR, MCLR pin enabled, RE3 input pin disabled
 15869   300005                     	org	3145733
 15870   300005  BD                 	db	189
 15871                           
 15872                           ;Config register CONFIG4L @ 0x300006
 15873                           ;	Stack Full/Underflow Reset Enable bit
 15874                           ;	STVREN = ON, Stack full/underflow will cause Reset
 15875                           ;	Single-Supply ICSP Enable bit
 15876                           ;	LVP = ON, Single-Supply ICSP enabled if MCLRE is also 1
 15877                           ;	Extended Instruction Set Enable bit
 15878                           ;	XINST = OFF, Instruction set extension and Indexed Addressing mode disabled (Legacy mo
      +                          de)
 15879                           ;	Background Debug
 15880                           ;	DEBUG = 0x1, unprogrammed default
 15881   300006                     	org	3145734
 15882   300006  85                 	db	133
 15883                           
 15884                           ; Padding undefined space
 15885   300007                     	org	3145735
 15886   300007  FF                 	db	255
 15887                           
 15888                           ;Config register CONFIG5L @ 0x300008
 15889                           ;	Code Protection Block 0
 15890                           ;	CP0 = ON, Block 0 (000800-001FFFh) code-protected
 15891                           ;	Code Protection Block 1
 15892                           ;	CP1 = ON, Block 1 (002000-003FFFh) code-protected
 15893                           ;	Code Protection Block 2
 15894                           ;	CP2 = ON, Block 2 (004000-005FFFh) code-protected
 15895                           ;	Code Protection Block 3
 15896                           ;	CP3 = ON, Block 3 (006000-007FFFh) code-protected
 15897   300008                     	org	3145736
 15898   300008  00                 	db	0
 15899                           
 15900                           ;Config register CONFIG5H @ 0x300009
 15901                           ;	Boot Block Code Protection bit
 15902                           ;	CPB = ON, Boot block (000000-0007FFh) code-protected
 15903                           ;	Data EEPROM Code Protection bit
 15904                           ;	CPD = OFF, Data EEPROM not code-protected
 15905   300009                     	org	3145737
 15906   300009  80                 	db	128
 15907                           
 15908                           ;Config register CONFIG6L @ 0x30000A
 15909                           ;	Write Protection Block 0
 15910                           ;	WRT0 = OFF, Block 0 (000800-001FFFh) not write-protected
 15911                           ;	Write Protection Block 1
 15912                           ;	WRT1 = OFF, Block 1 (002000-003FFFh) not write-protected
 15913                           ;	Write Protection Block 2
 15914                           ;	WRT2 = OFF, Block 2 (004000-005FFFh) not write-protected
 15915                           ;	Write Protection Block 3
 15916                           ;	WRT3 = OFF, Block 3 (006000-007FFFh) not write-protected
 15917   30000A                     	org	3145738
 15918   30000A  0F                 	db	15
 15919                           
 15920                           ;Config register CONFIG6H @ 0x30000B
 15921                           ;	Configuration Register Write Protection bit
 15922                           ;	WRTC = OFF, Configuration registers (300000-3000FFh) not write-protected
 15923                           ;	Boot Block Write Protection bit
 15924                           ;	WRTB = OFF, Boot Block (000000-0007FFh) not write-protected
 15925                           ;	Data EEPROM Write Protection bit
 15926                           ;	WRTD = OFF, Data EEPROM not write-protected
 15927   30000B                     	org	3145739
 15928   30000B  E0                 	db	224
 15929                           
 15930                           ;Config register CONFIG7L @ 0x30000C
 15931                           ;	Table Read Protection Block 0
 15932                           ;	EBTR0 = OFF, Block 0 (000800-001FFFh) not protected from table reads executed in other
      +                           blocks
 15933                           ;	Table Read Protection Block 1
 15934                           ;	EBTR1 = OFF, Block 1 (002000-003FFFh) not protected from table reads executed in other
      +                           blocks
 15935                           ;	Table Read Protection Block 2
 15936                           ;	EBTR2 = OFF, Block 2 (004000-005FFFh) not protected from table reads executed in other
      +                           blocks
 15937                           ;	Table Read Protection Block 3
 15938                           ;	EBTR3 = OFF, Block 3 (006000-007FFFh) not protected from table reads executed in other
      +                           blocks
 15939   30000C                     	org	3145740
 15940   30000C  0F                 	db	15
 15941                           
 15942                           ;Config register CONFIG7H @ 0x30000D
 15943                           ;	Boot Block Table Read Protection bit
 15944                           ;	EBTRB = OFF, Boot Block (000000-0007FFh) not protected from table reads executed in ot
      +                          her blocks
 15945   30000D                     	org	3145741
 15946   30000D  40                 	db	64
 15947                           tosu	equ	0xFFF
 15948                           tosh	equ	0xFFE
 15949                           tosl	equ	0xFFD
 15950                           stkptr	equ	0xFFC
 15951                           pclatu	equ	0xFFB
 15952                           pclath	equ	0xFFA
 15953                           pcl	equ	0xFF9
 15954                           tblptru	equ	0xFF8
 15955                           tblptrh	equ	0xFF7
 15956                           tblptrl	equ	0xFF6
 15957                           tablat	equ	0xFF5
 15958                           prodh	equ	0xFF4
 15959                           prodl	equ	0xFF3
 15960                           indf0	equ	0xFEF
 15961                           postinc0	equ	0xFEE
 15962                           postdec0	equ	0xFED
 15963                           preinc0	equ	0xFEC
 15964                           plusw0	equ	0xFEB
 15965                           fsr0h	equ	0xFEA
 15966                           fsr0l	equ	0xFE9
 15967                           wreg	equ	0xFE8
 15968                           indf1	equ	0xFE7
 15969                           postinc1	equ	0xFE6
 15970                           postdec1	equ	0xFE5
 15971                           preinc1	equ	0xFE4
 15972                           plusw1	equ	0xFE3
 15973                           fsr1h	equ	0xFE2
 15974                           fsr1l	equ	0xFE1
 15975                           bsr	equ	0xFE0
 15976                           indf2	equ	0xFDF
 15977                           postinc2	equ	0xFDE
 15978                           postdec2	equ	0xFDD
 15979                           preinc2	equ	0xFDC
 15980                           plusw2	equ	0xFDB
 15981                           fsr2h	equ	0xFDA
 15982                           fsr2l	equ	0xFD9
 15983                           status	equ	0xFD8

Data Sizes:
    Strings     0
    Constant    0
    Data        2
    BSS         195
    Persistent  0
    Stack       0

Auto Spaces:
    Space          Size  Autos    Used
    COMRAM           94     22      86
    BANK0           160      4     137
    BANK1           256      0       0
    BANK2           256      0       0
    BANK3           256      0       0
    BANK4           256      0       0
    BANK5           256      0       0

Pointer List with Targets:

    None.

Critical Paths under _main in COMRAM

    _main->_salidaPotencia
    _salidaPotencia->___awdiv
    _menu->_wrEprom
    _inicializacion->_calibracion
    _calibracion->_ds1820
    _ds1820->_readByte1
    _ds1820->_readByte2
    _display->_convBCD
    _convBCD->___awdiv

Critical Paths under _myLoIsr in COMRAM

    None.

Critical Paths under _myIsr in COMRAM

    None.

Critical Paths under _main in BANK0

    _main->_display

Critical Paths under _myLoIsr in BANK0

    None.

Critical Paths under _myIsr in BANK0

    None.

Critical Paths under _main in BANK1

    None.

Critical Paths under _myLoIsr in BANK1

    None.

Critical Paths under _myIsr in BANK1

    None.

Critical Paths under _main in BANK2

    None.

Critical Paths under _myLoIsr in BANK2

    None.

Critical Paths under _myIsr in BANK2

    None.

Critical Paths under _main in BANK3

    None.

Critical Paths under _myLoIsr in BANK3

    None.

Critical Paths under _myIsr in BANK3

    None.

Critical Paths under _main in BANK4

    None.

Critical Paths under _myLoIsr in BANK4

    None.

Critical Paths under _myIsr in BANK4

    None.

Critical Paths under _main in BANK5

    None.

Critical Paths under _myLoIsr in BANK5

    None.

Critical Paths under _myIsr in BANK5

    None.

Call Graph Tables:

 ---------------------------------------------------------------------------------
 (Depth) Function   	        Calls       Base Space   Used Autos Params    Refs
 ---------------------------------------------------------------------------------
 (0) _main                                                 1     1      0   13981
                                             21 COMRAM     1     1      0
                             _alarma
                     _conversionTemp
                            _display
                             _ds1820
                     _inicializacion
                               _menu
                     _salidaPotencia
                            _teclado
 ---------------------------------------------------------------------------------
 (1) _teclado                                              0     0      0       0
 ---------------------------------------------------------------------------------
 (1) _salidaPotencia                                       5     5      0    1219
                                             16 COMRAM     5     5      0
                            ___awdiv
                             ___wmul
 ---------------------------------------------------------------------------------
 (2) ___wmul                                               6     2      4     463
                                              8 COMRAM     6     2      4
 ---------------------------------------------------------------------------------
 (1) _menu                                                 2     2      0     880
                                             10 COMRAM     2     2      0
                            _wrEprom
 ---------------------------------------------------------------------------------
 (2) _wrEprom                                              2     1      1     880
                                              8 COMRAM     2     1      1
 ---------------------------------------------------------------------------------
 (1) _inicializacion                                       2     2      0    5170
                                             18 COMRAM     2     2      0
                        _calibracion
                             _ds1820
 ---------------------------------------------------------------------------------
 (2) _calibracion                                          2     2      0    2596
                                             16 COMRAM     2     2      0
                               _conv
                             _ds1820
 ---------------------------------------------------------------------------------
 (2) _ds1820                                               4     3      1    2574
                                             12 COMRAM     4     3      1
                              _crc81
                              _crc82
                          _readByte1
                          _readByte2
                             _reset1
                             _reset2
                         _writeByte1
                         _writeByte2
 ---------------------------------------------------------------------------------
 (3) _writeByte2                                           1     1      0      23
                                              8 COMRAM     1     1      0
                            _wrCero2
                             _wrUno2
 ---------------------------------------------------------------------------------
 (4) _wrUno2                                               0     0      0       0
 ---------------------------------------------------------------------------------
 (4) _wrCero2                                              0     0      0       0
 ---------------------------------------------------------------------------------
 (3) _writeByte1                                           1     1      0      23
                                              8 COMRAM     1     1      0
                            _wrCero1
                             _wrUno1
 ---------------------------------------------------------------------------------
 (4) _wrUno1                                               0     0      0       0
 ---------------------------------------------------------------------------------
 (4) _wrCero1                                              0     0      0       0
 ---------------------------------------------------------------------------------
 (3) _reset2                                               0     0      0       0
 ---------------------------------------------------------------------------------
 (3) _reset1                                               0     0      0       0
 ---------------------------------------------------------------------------------
 (3) _readByte2                                            4     3      1     218
                                              8 COMRAM     4     3      1
                           _readBit2
 ---------------------------------------------------------------------------------
 (4) _readBit2                                             0     0      0       0
 ---------------------------------------------------------------------------------
 (3) _readByte1                                            4     3      1     218
                                              8 COMRAM     4     3      1
                           _readBit1
 ---------------------------------------------------------------------------------
 (4) _readBit1                                             0     0      0       0
 ---------------------------------------------------------------------------------
 (3) _crc82                                                2     1      1     285
                                              8 COMRAM     2     1      1
 ---------------------------------------------------------------------------------
 (3) _crc81                                                2     1      1     285
                                              8 COMRAM     2     1      1
 ---------------------------------------------------------------------------------
 (3) _conv                                                 3     3      0      22
                                              8 COMRAM     3     3      0
 ---------------------------------------------------------------------------------
 (1) _display                                              4     4      0    4138
                                              0 BANK0      4     4      0
                           _conv7Seg
                            _convBCD
 ---------------------------------------------------------------------------------
 (2) _convBCD                                              4     1      3    4116
                                             16 COMRAM     4     1      3
                            ___awdiv
                            ___awmod
                           _conv7Seg
 ---------------------------------------------------------------------------------
 (3) _conv7Seg                                             3     3      0      22
                                              8 COMRAM     3     3      0
 ---------------------------------------------------------------------------------
 (3) ___awmod                                              6     2      4     448
                                              8 COMRAM     6     2      4
 ---------------------------------------------------------------------------------
 (2) ___awdiv                                              8     4      4     756
                                              8 COMRAM     8     4      4
 ---------------------------------------------------------------------------------
 (1) _conversionTemp                                       5     5      0       0
                                              8 COMRAM     5     5      0
 ---------------------------------------------------------------------------------
 (1) _alarma                                               5     5      0       0
                                              8 COMRAM     5     5      0
 ---------------------------------------------------------------------------------
 Estimated maximum stack depth 4
 ---------------------------------------------------------------------------------
 (Depth) Function   	        Calls       Base Space   Used Autos Params    Refs
 ---------------------------------------------------------------------------------
 (6) _myLoIsr                                              8     8      0      68
                                              0 COMRAM     8     8      0
 ---------------------------------------------------------------------------------
 Estimated maximum stack depth 6
 ---------------------------------------------------------------------------------
 (Depth) Function   	        Calls       Base Space   Used Autos Params    Refs
 ---------------------------------------------------------------------------------
 (7) _myIsr                                                0     0      0       0
 ---------------------------------------------------------------------------------
 Estimated maximum stack depth 7
 ---------------------------------------------------------------------------------

 Call Graph Graphs:

 _main (ROOT)
   _alarma
   _conversionTemp
   _display
     _conv7Seg
     _convBCD
       ___awdiv
       ___awmod
       _conv7Seg
   _ds1820
     _crc81
     _crc82
     _readByte1
       _readBit1
     _readByte2
       _readBit2
     _reset1
     _reset2
     _writeByte1
       _wrCero1
       _wrUno1
     _writeByte2
       _wrCero2
       _wrUno2
   _inicializacion
     _calibracion
       _conv
       _ds1820
     _ds1820
   _menu
     _wrEprom
   _salidaPotencia
     ___awdiv
     ___wmul
   _teclado

 _myLoIsr (ROOT)

 _myIsr (ROOT)

 Address spaces:
Name               Size   Autos  Total    Cost      Usage
BIGRAM             5FF      0       0      24        0.0%
EEDATA             100      0       0       0        0.0%
BITBANK5           100      0       0      13        0.0%
BANK5              100      0       0      14        0.0%
BITBANK4           100      0       0      11        0.0%
BANK4              100      0       0      12        0.0%
BITBANK3           100      0       0       9        0.0%
BANK3              100      0       0      10        0.0%
BITBANK2           100      0       0       7        0.0%
BANK2              100      0       0       8        0.0%
BITBANK1           100      0       0       5        0.0%
BANK1              100      0       0       6        0.0%
BITBANK0            A0      0       0       3        0.0%
BANK0               A0      4      89       4       85.6%
BITCOMRAM           5E      0       0       0        0.0%
COMRAM              5E     16      56       1       91.5%
BITBIGSFRll         45      0       0      22        0.0%
BITBIGSFRlhhll      23      0       0      18        0.0%
BITBIGSFRlhhhhh     19      0       0      16        0.0%
BITBIGSFRlhllll      F      0       0      21        0.0%
BITBIGSFRh           D      0       0      15        0.0%
BITBIGSFRlhlllh      8      0       0      20        0.0%
BITBIGSFRlhllh       6      0       0      19        0.0%
BITBIGSFRlhhhl       3      0       0      17        0.0%
BIGSFR               0      0       0     200        0.0%
BITSFR_1             0      0       0     200        0.0%
SFR_1                0      0       0     200        0.0%
BITSFR               0      0       0     200        0.0%
SFR                  0      0       0     200        0.0%
STACK                0      0       0       2        0.0%
NULL                 0      0       0       0        0.0%
ABS                  0      0      DF      23        0.0%
DATA                 0      0      DF      25        0.0%
CODE                 0      0       0       0        0.0%


Microchip Technology PIC18 Macro Assembler V2.40 build 20220703182018 
Symbol Table                                                                                   Thu Jun 08 15:23:52 2023

                      _i 0020                        _j 0011                        _k 0010  
                      _l 0025                        _n 000F                        _q 0026  
                      _r 00D1                        _t 000D                        _u 000E  
                      _w 00DD                        _y 0029                        _z 00E7  
          _auxSetenFalla 00D2                       l30 3F46                       l31 3F56  
                     l27 3F4E                       l90 34F2                       l94 355C  
                     l88 34BC             ___awdiv@sign 004E                       _ii 00C0  
                     _up 00E2                       bsr 000FE0      ___wmul@multiplicand 004B  
                    l110 3810                      l213 14C0                      l205 13F8  
                    l215 14EC                      l207 1424                      l224 15A2  
                    l233 1658                      l170 4868                      l242 1732  
                    l226 15B0                      l235 1684                      l227 15BC  
                    l245 1780                      l173 113A                      l167 485A  
                    l271 19B0                      l191 129C                      l256 1834  
                    l291 1B40                      l293 1B5E                      l197 1330  
                    l189 1270                      l701 2DF4                      l199 135C  
                    l711 2E5E                      l713 2E6C                      l705 2E22  
                    l811 3BB0                      l803 3B8C                      l707 2E30  
                    l812 3BB8                      l652 28E8                      l821 3D76  
                    l813 3BC0                      l805 3B96                      l910 1FA8  
                    l814 3BC8                      l670 2BD8                      l815 3BD0  
                    l655 296A                      l816 3BD8                      l809 3BA8  
                    l666 2B22                      l658 29EA                      l819 3CF6  
                    l691 2D8C                      l683 2D42                      l940 2236  
                    l941 223E                      l909 1ED0                      l685 2D50  
                    l677 2D06                      l695 2DBA                      l679 2D14  
                    l697 2DC8                      l689 2D7E                      l699 2DE6  
                    l897 1CD8   __end_of_salidaPotencia 3812                      _bcd 00D6  
                    _dig 0001             ___awmod@sign 004E                      wreg 000FE8  
                   l1020 409C                     l1120 1082                     l1024 060C  
                   l1121 108A                     l1105 0FFE                     l1122 1092  
                   l1114 1068                     l1211 305A                     l1123 109A  
                   l1212 3078                     l1204 2F9E                     l1124 10A2  
                   l1221 3138                     l1205 2FB4                     l1125 10AA  
                   l1222 314E                     l1126 1118                     l1118 107A  
                   l1215 30D4                     l1208 3010                     l1225 31AA  
                   l1251 33D8                     l1227 3284                     l1252 33E0  
                   l1228 3308                     l1500 4968                     l1092 1012  
                   l1094 0F58                     l1191 2EA0                     l1335 435A  
                   l1503 493C                     l1353 231A                     l1345 2274  
                   l1194 2EC0                     l1506 4926                     l1195 2EDE  
                   l1339 4762                     l1371 24D2                     l1347 229C  
                   l1523 47AC                     l1603 3B68                     l1516 47F6  
                   l1533 4586                     l1509 4900                     l1198 2F3A  
                   l1358 23BE                     l1606 488E                     l1543 44D2  
                   l1392 27B6                     l1377 2552                     l1554 4264  
                   l1395 2866                     l1491 48B4                     l1556 4280  
                   l1580 3922                     l1494 497E                     l1574 38B8  
                   l1567 4172                     l1575 389E                     l1488 48DA  
                   l6001 4274                     l1569 418E                     l1497 4952  
                   l1593 3A8E                     l1850 4636                     l1594 3A6C  
                   l6003 427C                     l6011 40AE                     l1837 441E  
                   l6021 40FA                     l6013 40B6                     l6101 397A  
                   l6031 4140                     l6023 40FE                     l6015 40C6  
                   l6007 40A0                     l6111 39AC                     l6103 397C  
                   l6201 3F68                     l6041 416A                     l6017 40D8  
                   l6009 40AA                     l6121 39DE                     l6113 39B0  
                   l6105 398C                     l6211 3F9A                     l6203 3F72  
                   l6043 4182                     l6035 4146                     l6027 4112  
                   l6019 40E8                     l6131 3A0E                     l6123 39E2  
                   l6115 39C0                     l6107 3990                     l6051 382C  
                   l7011 0FE4                     l7003 0F80                     l6301 43CC  
                   l6221 3FCC                     l6213 3FA4                     l6205 3F7C  
                   l6045 418A                     l6029 413C                     l6037 4148  
                   l6141 3A50                     l6133 3A1E                     l6125 39F0  
                   l6117 39CC                     l6109 399A                     l6061 3860  
                   l6053 3836                     l7021 0FF6                     l7013 0FE6  
                   l7101 3DB6                     l6311 43F8                     l6303 43D2  
                   l6223 3FD6                     l6215 3FAE                     l6207 3F86  
                   l6039 415A                     l6151 3A86                     l6143 3A54  
                   l6135 3A2A                     l6127 39FA                     l6119 39CE  
                   l6071 38AE                     l6063 386A                     l6055 3846  
                   l7023 0FF8                     l7015 0FE8                     l7007 0F88  
                   l7111 3DF2                     l7103 3DC4                     l6305 43E8  
                   l6313 43FE                     l6321 4588                     l6225 3FE0  
                   l6217 3FB8                     l6209 3F90                     l6233 3FFE  
                   l6161 3AC0                     l6153 3A8A                     l6145 3A58  
                   l6137 3A34                     l6129 3A0A                     l6081 38EE  
                   l6073 38CA                     l6065 386C                     l6057 384A  
                   l6049 3814                     l7033 1024                     l7025 0FFA  
                   l7017 0FEA                     l7009 0FDA                     l6401 05D6  
                   l7201 34FA                     l7121 3E28                     l7113 3DFA  
                   l7105 3DC8                     l6315 440E                     l6307 43F0  
                   l6331 45B4                     l6323 458C                     l6251 42A6  
                   l6243 4284                     l6227 3FEA                     l6219 3FC2  
                   l6235 4098                     l6171 3AEE                     l6163 3ACA  
                   l6155 3AA0                     l6147 3A60                     l6139 3A36  
                   l6091 3940                     l6083 38F0                     l6075 38CE  
                   l6067 3886                     l6059 385A                     l7051 1066  
                   l7043 1054                     l7035 102E                     l7027 0FFC  
                   l7019 0FEC                     l6403 05E8                     l7211 3604  
                   l7203 352A                     l7131 3E64                     l7123 3E36  
                   l7115 3E08                     l7107 3DD6                     l8101 2E94  
                   l6317 4416                     l6309 43F2                     l6341 45EC  
                   l6333 45BC                     l6325 459A                     l6261 42D8  
                   l6253 42B0                     l6245 4288                     l6229 3FF4  
                   l6181 3B26                     l6173 3AF6                     l6165 3ACC  
                   l6157 3AA4                     l6149 3A7C                     l6093 394A  
                   l6085 390A                     l6077 38DE                     l6069 3892  
                   l7045 105E                     l7061 110A                     l7037 103C  
                   l7029 100C                     l6501 07B8                     l6421 063A  
                   l6413 0612                     l6405 05F2                     l7301 1162  
                   l7213 3620                     l7221 3654                     l7205 3560  
                   l7141 3EA0                     l7133 3E72                     l7125 3E3E  
                   l7109 3DE4                     l7117 3E0C                     l8111 2EEE  
                   l8103 2EB0                     l6351 4626                     l6343 4602  
                   l6335 45CE                     l6327 45A2                     l6263 42E2  
                   l6255 42BA                     l6247 4292                     l6183 3B2A  
                   l6167 3AE6                     l6159 3AB4                     l6175 3B02  
                   l6095 395A                     l6087 3916                     l6079 38E4  
                   l7055 10B2                     l7047 1062                     l7039 1040  
                   l6511 07F6                     l6503 07BC                     l6431 066E  
                   l6423 0644                     l6415 0616                     l6407 0600  
                   l7311 11A8                     l7303 1172                     l7223 366A  
                   l7215 3642                     l7231 36A4                     l7207 35A2  
                   l7151 3F06                     l7143 3EBC                     l7135 3E7A  
                   l7127 3E4C                     l7119 3E1A                     l8201 3124  
                   l8121 2F24                     l8113 2F00                     l8105 2EC4  
                   l6281 436E                     l6353 462E                     l6345 460A  
                   l6337 45D6                     l6329 45A6                     l6257 42C4  
                   l6249 429C                     l7081 4744                     l7073 46DA  
                   l6177 3B0C                     l6169 3AEA                     l6097 395E  
                   l6089 3932                     l7057 1104                     l7049 1064  
                   l6601 092C                     l6521 0816                     l6513 07FE  
                   l6505 07D2                     l6441 06AA                     l6425 0656  
                   l6433 0678                     l6417 061E                     l6409 0606  
                   l6361 4840                     l7401 138A                     l7321 11DC  
                   l7313 11B8                     l7305 1182                     l7233 36B6  
                   l7241 36DC                     l7225 368E                     l7217 3648  
                   l7209 35D2                     l7161 33E2                     l7153 3F22  
                   l7145 3ECA                     l7137 3E8A                     l7129 3E52  
                   l8211 3176                     l8203 3132                     l8131 2F70  
                   l8123 2F34                     l8115 2F06                     l8107 2EC8  
                   l6291 4394                     l6283 4376                     l6347 4610  
                   l6339 45DE                     l6259 42CE                     l6267 42EC  
                   l7075 470A                     l6179 3B1C                     l6099 396E  
                   l6187 3B32                     l6611 0954                     l6603 0930  
                   l6531 0836                     l6523 081A                     l6515 0802  
                   l6507 07E2                     l6451 06E6                     l6443 06B2  
                   l6435 068A                     l6427 065A                     l6419 0628  
                   l6371 484A                     l6363 4842                     l7403 1394  
                   l7411 13B6                     l7331 120C                     l7323 11DE  
                   l7315 11BC                     l7307 1196                     l7083 486A  
                   l7243 36EE                     l7235 36C8                     l7227 3694  
                   l7251 3714                     l7219 364E                     l7171 3416  
                   l7163 33E4                     l7155 3F26                     l7147 3EE6  
                   l7139 3E98                     l7091 3D7A                     l8301 1B7C  
                   l8221 3194                     l8213 317A                     l8205 3148  
                   l8141 2FAE                     l8133 2F76                     l8125 2F4A  
                   l8117 2F16                     l8109 2ED8                     l6293 439C  
                   l6285 437A                     l6277 435C                     l6349 4616  
                   l6269 4356                     l7077 471E                     l6197 3F5A  
                   l5901 44E8                     l5821 496A                     l6189 3B64  
                   l6701 0AC8                     l6621 097E                     l6613 0958  
                   l6605 0940                     l6541 0868                     l6533 083E  
                   l6525 081E                     l6517 0806                     l6509 07EE  
                   l6461 071A                     l6453 06F0                     l6445 06BE  
                   l6437 0694                     l6429 0662                     l6381 4858  
                   l6373 484E                     l6365 4844                     l6357 4838  
                   l7501 159E                     l7421 13F4                     l7413 13C8  
                   l7405 1398                     l7325 11EE                     l7333 1210  
                   l7317 11C6                     l7309 11A6                     l7341 123A  
                   l7085 4886                     l7261 3766                     l7253 372A  
                   l7245 3700                     l7237 36D4                     l7229 369A  
                   l7181 345C                     l7173 3426                     l7165 33FE  
                   l7157 3F42                     l7149 3EEA                     l7093 3D84  
                   l8311 1BCC                     l8303 1B8C                     l8223 31A4  
                   l8215 318A                     l8207 315E                     l8231 31E8  
                   l8151 2FF0                     l8143 2FC4                     l8135 2F84  
                   l8127 2F54                     l8119 2F20                     l6295 43AE  
                   l6287 4388                     l6279 4360                     l7079 4734  
                   l6199 3F5E                     l5911 4524                     l5823 496E  
                   l5831 4948                     l6711 0AEE                     l6703 0ACC  
                   l6631 09C4                     l6623 0988                     l6615 095C  
                   l6607 0948                     l6551 0884                     l6543 086C  
                   l6535 0846                     l6527 0822                     l6519 080A  
                   l6471 074E                     l6463 071E                     l6455 0702  
                   l6447 06C2                     l6439 06A6                     l6391 05AC  
                   l6383 0580                     l6375 4852                     l6367 4846  
                   l6359 483C                     l7511 15D4                     l7503 15A0  
                   l7431 1428                     l7423 13FC                     l7415 13D2  
                   l7407 139C                     l7351 1274                     l7343 124A  
                   l7335 1222                     l7327 11FE                     l7319 11CA  
                   l7263 3774                     l7255 3732                     l7247 370C  
                   l7239 36D8                     l7191 34A8                     l7183 3462  
                   l7175 3436                     l7167 3400                     l7271 37A2  
                   l7095 3D92                     l8401 1ECC                     l8321 1C1C  
                   l8313 1BDC                     l8305 1B9C                     l8241 3240  
                   l8233 3200                     l8217 318C                     l8209 3170  
                   l8153 2FF2                     l8145 2FD6                     l8137 2F8A  
                   l8129 2F62                     l6297 43B6                     l6289 4390  
                   l5841 4902                     l5921 454E                     l5905 44FC  
                   l5825 4974                     l5833 4954                     l6801 0C58  
                   l6713 0AF2                     l6705 0AD8                     l6641 09EA  
                   l6633 09D2                     l6625 0996                     l6609 0950  
                   l6561 08A0                     l6553 0888                     l6545 0874  
                   l6529 0826                     l6537 084E                     l6481 0780  
                   l6473 0758                     l6465 072A                     l6457 0706  
                   l6449 06D4                     l6393 05B0                     l6385 058E  
                   l6377 4854                     l6369 4848                     l7601 17AE  
                   l7521 15FC                     l7513 15D8                     l7505 15B8  
                   l7441 145C                     l7433 143A                     l7425 140E  
                   l7417 13E2                     l7409 13AE                     l7361 12B2  
                   l7353 1286                     l7345 125A                     l7337 122C  
                   l7329 1202                     l7281 37FC                     l7273 37B2  
                   l7265 3796                     l7257 3748                     l7193 34B6  
                   l7185 3472                     l7177 343C                     l7169 3410  
                   l7097 3DA0                     l7089 3D78                     l8411 1F22  
                   l8403 1EE0                     l8331 1C6C                     l8323 1C2C  
                   l8315 1BEC                     l8307 1BAC                     l8251 32B4  
                   l8243 3250                     l8235 3210                     l8219 3190  
                   l8171 3062                     l8155 2FF6                     l8147 2FDC  
                   l8139 2F98                     l6299 43BE                     l5843 490E  
                   l5923 455E                     l5907 4500                     l5915 452A  
                   l5931 4422                     l5851 48BA                     l5835 4960  
                   l5827 493E                     l6811 0C74                     l6803 0C5C  
                   l6731 0B42                     l6715 0AFA                     l6707 0ADC  
                   l6651 0A06                     l6643 09EE                     l6635 09DA  
                   l6627 09A0                     l6571 08C8                     l6563 08A4  
                   l6555 0894                     l6547 087C                     l6539 0856  
                   l6491 079C                     l6483 0784                     l6619 096C  
                   l6475 0766                     l6467 0732                     l6459 070E  
                   l6395 05B8                     l6379 4856                     l7603 17B8  
                   l7611 17DA                     l7531 1642                     l7523 160E  
                   l7515 15EA                     l7507 15C0                     l7451 1490  
                   l7443 1460                     l7435 143C                     l7427 1410  
                   l7419 13E4                     l7371 12E8                     l7363 12BC  
                   l7355 1288                     l7347 125C                     l7339 1236  
                   l7291 111A                     l7283 3800                     l7275 37B8  
                   l7267 379A                     l7259 3750                     l7195 34CC  
                   l7187 3482                     l7179 344C                     l7099 3DAE  
                   l8421 1F6E                     l8413 1F26                     l8405 1EF0  
                   l8341 1CBC                     l8333 1C7C                     l8325 1C3C  
                   l8309 1BBC                     l8317 1BFC                     l8261 3328  
                   l8253 32C4                     l8245 3280                     l8237 3220  
                   l8181 30B0                     l8173 3072                     l8229 31BE  
                   l8157 2FFA                     l8149 2FE0                     l8165 3024  
                   l5925 456E                     l5917 453A                     l5909 451E  
                   l5845 48DC                     l5941 444C                     l5933 442A  
                   l5853 48C0                     l5861 47B0                     l5829 4942  
                   l5837 4928                     l6901 0DE4                     l6821 0C9C  
                   l6813 0C78                     l6805 0C68                     l6741 0B72  
                   l6733 0B50                     l6717 0AFE                     l6709 0AEA  
                   l6661 0A3C                     l6653 0A0A                     l6645 09FA  
                   l6637 09E2                     l6725 0B18                     l6629 09B6  
                   l6581 08F4                     l6573 08CC                     l6565 08B4  
                   l6557 0898                     l6549 0880                     l6493 07A0  
                   l6485 078C                     l6477 0770                     l6469 073C  
                   l6397 05C0                     l6389 05A2                     l7701 19E2  
                   l7621 1828                     l7613 17EC                     l7605 17BC  
                   l7541 1670                     l7533 1644                     l7517 15F4  
                   l7509 15D2                     l7525 1616                     l7461 14C4  
                   l7453 149A                     l7445 1464                     l7437 1440  
                   l7429 1420                     l7381 131C                     l7357 1298  
                   l7349 126C                     l7365 12C0                     l7373 12F0  
                   l7293 111C                     l7285 3804                     l7277 37CE  
                   l7269 379E                     l7197 34D6                     l7189 3492  
                   l8431 1FE2                     l8423 1F72                     l8415 1F50  
                   l8407 1F00                     l8351 1D08                     l8327 1C4C  
                   l8319 1C0C                     l8335 1C8C                     l8343 1CCC  
                   l8271 338C                     l8263 3338                     l8255 32D4  
                   l8247 3294                     l8239 3230                     l8191 30EE  
                   l8183 30BA                     l8175 3088                     l8159 300A  
                   l8167 304E                     l8095 2E78                     l5927 4572  
                   l5919 454A                     l5847 48E8                     l5951 4486  
                   l5943 446A                     l5935 4434                     l5855 4890  
                   l5871 47E8                     l5863 47B4                     l5839 4934  
                   l6911 0E1A                     l6903 0DE8                     l6831 0CC8  
                   l6823 0CA0                     l6815 0C88                     l6807 0C6C  
                   l6751 0B8E                     l6743 0B76                     l6735 0B5E  
                   l6727 0B2A                     l6719 0B0C                     l6671 0A5C  
                   l6663 0A44                     l6655 0A20                     l6647 09FE  
                   l6639 09E6                     l6591 0910                     l6583 08F8  
                   l6575 08D0                     l6567 08BC                     l6559 089C  
                   l6495 07AC                     l6487 0794                     l6479 077A  
                   l6399 05D2                     l7711 1A0E                     l7703 19E4  
                   l7631 1864                     l7623 1830                     l7615 17F6  
                   l7607 17C0                     l7551 16A0                     l7543 1680  
                   l7535 1654                     l7527 1628                     l7519 15F8  
                   l7471 1502                     l7463 14D6                     l7455 14AA  
                   l7447 1476                     l7439 1452                     l7391 1358  
                   l7383 132C                     l7375 1300                     l7367 12D2  
                   l7359 12A0                     l7295 1126                     l7279 37DA  
                   l7287 3808                     l7199 34EE                     l8441 206A  
                   l8433 1FFE                     l8425 1F9C                     l8417 1F58  
                   l8409 1F10                     l8361 1D58                     l8353 1D18  
                   l8345 1CD4                     l8337 1C9C                     l8329 1C5C  
                   l8281 33D4                     l8273 339C                     l8265 3348  
                   l8257 32DA                     l8249 32A4                     l8193 30FC  
                   l8185 30BE                     l8177 309A                     l8169 305E  
                   l8097 2E82                     l5929 4574                     l5961 44BE  
                   l5953 4496                     l5945 4470                     l5849 48B6  
                   l5857 4894                     l5873 47EC                     l5881 476A  
                   l6921 0E3A                     l6913 0E22                     l6905 0DF4  
                   l6841 0CEC                     l6833 0CD4                     l6825 0CA4  
                   l6817 0C90                     l6809 0C70                     l6761 0BC0  
                   l6753 0B92                     l6745 0B7A                     l6737 0B66  
                   l6729 0B34                     l6681 0A7C                     l6673 0A60  
                   l6665 0A48                     l6657 0A30                     l6649 0A02  
                   l6593 0914                     l6585 0900                     l6577 08DC  
                   l6569 08C4                     l6497 07B0                     l6489 0798  
                   l7801 3C78                     l7705 19F4                     l7641 18A8  
                   l7633 1874                     l7625 1838                     l7617 1806  
                   l7609 17D2                     l7561 16D6                     l7553 16B2  
                   l7545 1688                     l7537 165C                     l7529 1632  
                   l7481 1528                     l7473 1504                     l7465 14D8  
                   l7457 14AC                     l7449 147E                     l7393 1360  
                   l7385 1334                     l7377 130A                     l7369 12D6  
                   l7297 1136                     l8451 20C6                     l8443 207A  
                   l8435 200E                     l8427 1FA4                     l8419 1F5C  
                   l8371 1DA8                     l8355 1D28                     l8347 1CE8  
                   l8363 1D68                     l8339 1CAC                     l8275 33AC  
                   l8267 3358                     l8259 3318                     l8195 310A  
                   l8187 30CE                     l8179 30A0                     l8099 2E84  
                   l5971 41A8                     l5955 449A                     l5939 4448  
                   l5963 44C0                     l5859 489A                     l5875 47F0  
                   l5867 47C8                     l5891 47A2                     l6931 0E5A  
                   l6923 0E3E                     l6915 0E26                     l6907 0E04  
                   l6851 0D08                     l6843 0CF0                     l6835 0CDC  
                   l6827 0CB0                     l6819 0C98                     l6771 0BDC  
                   l6763 0BC8                     l6755 0B96                     l6747 0B86  
                   l6739 0B6E                     l6691 0AA6                     l6683 0A84  
                   l6675 0A64                     l6667 0A4C                     l6659 0A34  
                   l6595 0920                     l6587 0908                     l6579 08E0  
                   l6499 07B4                     l7811 3C92                     l7803 3C7A  
                   l7731 1A7E                     l7723 1A62                     l7707 19FC  
                   l7715 1A16                     l7651 18D6                     l7643 18AC  
                   l7627 184A                     l7619 1818                     l7571 170C  
                   l7555 16BC                     l7547 169A                     l7539 166E  
                   l7563 16DE                     l7491 1562                     l7483 152C  
                   l7475 1508                     l7467 14E8                     l7459 14BC  
                   l7395 1372                     l7387 1346                     l7379 131A  
                   l7299 114A                     l8461 2108                     l8453 20D6  
                   l8445 20A2                     l8437 203E                     l8429 1FB0  
                   l8373 1DB8                     l8365 1D78                     l8381 1DF8  
                   l8357 1D38                     l8349 1CF8                     l8277 33BC  
                   l8269 335E                     l8197 3110                     l8189 30E4  
                   l9501 23E6                     l5981 41F0                     l5973 41B8  
                   l5965 4192                     l5957 44AA                     l5949 4476  
                   l5869 47E0                     l5893 47A6                     l5885 477E  
                   l6941 0E86                     l6933 0E62                     l6925 0E42  
                   l6917 0E2A                     l6909 0E12                     l6861 0D30  
                   l6853 0D0C                     l6845 0CFC                     l6837 0CE4  
                   l6829 0CB4                     l6781 0BF8                     l6773 0BE8  
                   l6765 0BD0                     l6757 0BA2                     l6749 0B8A  
                   l6693 0AAA                     l6685 0A8C                     l6677 0A68  
                   l6669 0A50                     l6597 0924                     l6589 090C  
                   l7821 3CA8                     l7813 3C94                     l7805 3C7C  
                   l7733 1A8E                     l7725 1A64                     l7709 19FE  
                   l7717 1A48                     l7661 1914                     l7653 18E8  
                   l7645 18BC                     l7629 1852                     l7581 1748  
                   l7573 171C                     l7565 16F0                     l7557 16C0  
                   l7549 169C                     l7493 1572                     l7485 153E  
                   l7477 151A                     l7469 14F0                     l7397 1374  
                   l7389 1348                     l8471 2156                     l8463 211E  
                   l8455 20E6                     l8447 20A6                     l8439 205A  
                   l8391 1E40                     l8383 1E08                     l8375 1DC8  
                   l8367 1D88                     l8359 1D48                     l8279 33CC  
                   l8199 311E                     l9511 2414                     l9503 23EC  
                   l5975 41CA                     l5967 419C                     l5959 44BA  
                   l5887 4796                     l5879 4766                     l6951 0EA8  
                   l6943 0E8A                     l6935 0E6A                     l6927 0E46  
                   l6919 0E2E                     l6871 0D5A                     l6863 0D34  
                   l6855 0D1C                     l6847 0D00                     l6839 0CE8  
                   l6791 0C34                     l6783 0C08                     l6775 0BEC  
                   l6767 0BD4                     l6759 0BB2                     l6695 0AAE  
                   l6679 0A6C                     l6687 0A94                     l6599 0928  
                   l7831 3CDC                     l7823 3CB6                     l7815 3C96  
                   l7807 3C8E                     l7751 1B08                     l7735 1A96  
                   l7727 1A74                     l7743 1AB0                     l7719 1A4C  
                   l7671 193A                     l7663 1918                     l7655 18EC  
                   l7647 18C0                     l7639 1898                     l7591 177C  
                   l7583 174A                     l7575 171E                     l7567 16FA  
                   l7559 16C4                     l7495 1584                     l7479 1524  
                   l7487 1546                     l7399 1378                     l8473 215A  
                   l8481 21AA                     l8457 20EA                     l8465 212A  
                   l8449 20B6                     l8393 1E44                     l8385 1E18  
                   l8377 1DD8                     l8369 1D98                     l8297 1B60  
                   l9601 2720                     l9521 2450                     l9513 2418  
                   l9505 23F0                     l9441 2240                     l5993 4238  
                   l5985 4204                     l5977 41DA                     l5969 41A0  
                   l5897 44D6                     l5889 479E                     l6961 0ECC  
                   l6953 0EAC                     l6945 0E8E                     l6929 0E4A  
                   l6937 0E72                     l6881 0DA2                     l6873 0D64  
                   l6865 0D38                     l6857 0D24                     l6849 0D04  
                   l6793 0C40                     l6785 0C10                     l6777 0BF0  
                   l6769 0BD8                     l6697 0AB6                     l6689 0A9C  
                   l7833 3CE4                     l7825 3CC4                     l7841 3D24  
                   l7817 3C98                     l7809 3C90                     l7753 1B1A  
                   l7737 1A98                     l7729 1A7C                     l7745 1AE2  
                   l7681 197E                     l7673 194A                     l7665 192A  
                   l7657 18FE                     l7649 18D2                     l7585 175A  
                   l7593 1784                     l7577 172E                     l7569 170A  
                   l7497 1594                     l7489 1558                     l8491 21F6  
                   l8483 21B6                     l8475 2176                     l8467 2136  
                   l8459 2100                     l8395 1E4A                     l8387 1E28  
                   l8379 1DE8                     l8299 1B62                     l9603 2730  
                   l9611 2776                     l9523 2460                     l9515 241E  
                   l9507 2400                     l9451 2284                     l9531 249A  
                   l9443 2242                     l5987 422E                     l5979 41EC  
                   l5995 423A                     l5899 44DE                     l6971 0EF2  
                   l6963 0ED0                     l6955 0EB8                     l6947 0E96  
                   l6939 0E7C                     l6891 0DC8                     l6883 0DB0  
                   l6875 0D72                     l6859 0D2C                     l6795 0C48  
                   l6787 0C18                     l6779 0BF4                     l6699 0ABA  
                   l7851 3D36                     l7843 3D2E                     l7835 3D04  
                   l7827 3CC8                     l7819 3C9A                     l7755 1B2C  
                   l7739 1AA8                     l7747 1AE6                     l7691 19B4  
                   l7683 1988                     l7667 192E                     l7659 1902  
                   l7675 1952                     l7595 1796                     l7587 175C  
                   l7579 1736                     l7499 159C                     l8493 21FE  
                   l8485 21C6                     l8477 217E                     l8469 2146  
                   l8397 1E7C                     l8389 1E38                     l9613 2778  
                   l9605 2740                     l9541 24E4                     l9533 24AA  
                   l9525 246C                     l9509 2404                     l9517 2434  
                   l9461 22CC                     l9453 2288                     l9445 2250  
                   l5997 424C                     l5989 4232                     l6981 0F24  
                   l6973 0EFA                     l6965 0ED8                     l6957 0EBC  
                   l6949 0E9A                     l6893 0DCC                     l6885 0DB8  
                   l6877 0D7C                     l6797 0C50                     l6789 0C20  
                   l6869 0D48                     l7861 3D44                     l7853 3D3A  
                   l7845 3D30                     l7837 3D12                     l7781 3B78  
                   l7749 1AF8                     l7757 1B44                     l7685 199A  
                   l7677 1964                     l7669 1938                     l7597 1798  
                   l7589 176C                     l9701 29D2                     l8495 221A  
                   l8487 21D6                     l8479 219A                     l8399 1EAC  
                   l9623 27CA                     l9615 277E                     l9607 2760  
                   l9543 24F4                     l9551 2530                     l9535 24BA  
                   l9527 247C                     l9519 2444                     l9471 232A  
                   l9463 22D8                     l9455 2298                     l9447 2260  
                   l5999 425C                     l6991 0F60                     l6983 0F32  
                   l6975 0EFE                     l6967 0EDC                     l6959 0EC8  
                   l6895 0DD8                     l6887 0DC0                     l6879 0D94  
                   l6799 0C54                     l7871 3D52                     l7863 3D46  
                   l7855 3D3E                     l7847 3D32                     l7839 3D20  
                   l7759 1B56                     l7695 19C8                     l7687 199C  
                   l7679 196C                     l7599 179C                     l9711 2A16  
                   l9703 2A02                     l8489 21DA                     l8497 222A  
                   l9625 27DE                     l9617 279E                     l9609 2772  
                   l9561 25AA                     l9545 2504                     l9553 2546  
                   l9537 24BE                     l9529 2488                     l9481 2364  
                   l9473 233A                     l9465 22E8                     l9457 22AC  
                   l9449 2270                     l6993 0F68                     l6985 0F40  
                   l6969 0EEA                     l6897 0DDC                     l6889 0DC4  
                   l6977 0F08                     l7881 3D74                     l7873 3D56  
                   l7865 3D48                     l7857 3D40                     l7849 3D34  
                   l7793 3C38                     l7697 19CA                     l7689 19AC  
                   l9801 2BA8                     l9721 2A54                     l9713 2A1A  
                   l9705 2A08                     l9627 27E6                     l9619 27AE  
                   l9571 2646                     l9563 25CA                     l9555 255E  
                   l9547 2510                     l9539 24CE                     l9491 23A6  
                   l9483 2374                     l9475 234A                     l9459 22BC  
                   l9467 22F8                     l6995 0F70                     l6987 0F44  
                   l6979 0F1A                     l6899 0DE0                     l7875 3D5E  
                   l7867 3D4C                     l7859 3D42                     l7795 3C68  
                   l7787 3BE0                     l7779 3B6A                     l7699 19DA  
                   l9811 2BC2                     l9803 2BAA                     l9731 2AA0  
                   l9723 2A66                     l9715 2A22                     l9707 2A10  
                   l9651 286C                     l9629 27EE                     l9581 26A0  
                   l9573 264E                     l9565 25E0                     l9557 2574  
                   l9549 2520                     l9493 23B8                     l9485 2378  
                   l9477 2350                     l9469 230E                     l9637 27FA  
                   l7877 3D68                     l7869 3D50                     l7797 3C74  
                   l7789 3C32                     l9901 2D02                     l9821 2BEE  
                   l9813 2BC4                     l9805 2BAC                     l9741 2AB2  
                   l9733 2AA8                     l9725 2A78                     l9717 2A32  
                   l9709 2A12                     l9661 2880                     l9653 2876  
                   l9591 26F0                     l9583 26B4                     l9575 265E  
                   l9567 2600                     l9559 2594                     l9639 285C  
                   l9495 23D0                     l9487 2380                     l9479 2360  
                   l6999 0F78                     l7879 3D72                     l7799 3C76  
                   l9911 2D3C                     l9903 2D04                     l9831 2BFC  
                   l9823 2BF0                     l9815 2BC6                     l9807 2BB6  
                   l9751 2AF0                     l9743 2ACA                     l9735 2AAA  
                   l9727 2A8A                     l9719 2A42                     l9671 28E0  
                   l9663 2890                     l9655 2878                     l9593 26F4  
                   l9585 26C4                     l9577 266A                     l9569 2616  
                   l9497 23D2                     l9489 2396                     l9921 2D74  
                   l9913 2D3E                     l9905 2D18                     l9841 2C2E  
                   l9833 2C06                     l9825 2BF2                     l9817 2BE0  
                   l9809 2BC0                     l9761 2B0A                     l9753 2AF2  
                   l9745 2AE8                     l9737 2AAC                     l9729 2A8E  
                   l9673 28F8                     l9681 292C                     l9665 28A0  
                   l9657 287A                     l9649 2868                     l9595 2704  
                   l9587 26D4                     l9579 268A                     l9499 23E2  
                   l9931 2DA0                     l9923 2D78                     l9915 2D40  
                   l9907 2D28                     l9851 2C4A                     l9843 2C30  
                   l9827 2BF4                     l9819 2BEA                     l9835 2C0E  
                   l9771 2B34                     l9763 2B0C                     l9755 2AF4  
                   l9747 2AEC                     l9739 2AAE                     l9691 2990  
                   l9683 293E                     l9675 290E                     l9667 28BA  
                   l9659 287E                     l9597 2708                     l9589 26E0  
                   l9941 2DCC                     l9933 2DB0                     l9925 2D7A  
                   l9917 2D54                     l9909 2D38                     l9861 2C6E  
                   l9853 2C54                     l9845 2C32                     l9837 2C1E  
                   l9829 2BF8                     l9781 2B42                     l9773 2B38  
                   l9765 2B0E                     l9757 2AF6                     l9749 2AEE  
                   l9693 29A2                     l9685 2950                     l9677 2912  
                   l9669 28CE                     l9599 270E                     l9943 2DDC  
                   l9951 2DF8                     l9935 2DB4                     l9927 2D7C  
                   l9919 2D64                     l9863 2C74                     l9871 2C84  
                   l9855 2C56                     l9839 2C24                     l9847 2C34  
                   l9791 2B8E                     l9783 2B46                     l9775 2B3A  
                   l9767 2B10                     l9759 2B00                     l9695 29A6  
                   l9687 2962                     l9679 2928                     l9961 2E20  
                   l9953 2E08                     l9945 2DE0                     l9937 2DB6  
                   l9929 2D90                     l9881 2CAC                     l9873 2C98  
                   l9865 2C7E                     l9857 2C58                     l9849 2C44  
                   l9793 2B9E                     l9785 2B50                     l9777 2B3C  
                   l9769 2B2A                     l9697 29BC                     l9689 297A  
                   l9971 2E5A                     l9963 2E34                     l9955 2E18  
                   l9947 2DE2                     l9939 2DB8                     l9891 2CDE  
                   l9875 2C9E                     l9883 2CAE                     l9867 2C80  
                   l9859 2C5A                     l9795 2BA2                     l9779 2B3E  
                   l9787 2B58                     l9699 29C0                     l9973 2E5C  
                   l9965 2E44                     l9957 2E1C                     l9949 2DE4  
                   l9893 2CE2                     l9885 2CB8                     l9877 2CA8  
                   l9869 2C82                     l9797 2BA4                     l9789 2B70  
                   l9967 2E54                     l9959 2E1E                     l9895 2CEC  
                   l9887 2CBC                     l9879 2CAA                     l9799 2BA6  
                   l9969 2E58                     l9897 2CFC                     l9889 2CDA  
                   l9899 2D00                     u6000 0766                     u6001 0762  
                   u6010 07E2                     u6011 07DE                     u5300 44F8  
                   u6100 0C34                     u6020 0868                     u5301 44F4  
                   u6101 0C30                     u6021 0864                     u6110 0CC8  
                   u6030 08F4                     u6111 0CC4                     u6031 08F0  
                   u5400 41B8                     u5320 453A                     u6200 103C  
                   u6120 0D56                     u6040 097A                     u7000 1372  
                   u5401 41B4                     u5321 4536                     u6201 1038  
                   u6121 0D52                     u6041 0976                     u7001 136E  
                   u5410 41DA                     u5330 455E                     u5314 4512  
                   u6210 1050                     u6130 0D72                     u6050 0996  
                   u7010 138A                     u5411 41D6                     u5331 455A  
                   u5315 450E                     u6211 104C                     u6131 0D6E  
                   u6051 0992                     u7011 1386                     u5420 4200  
                   u5500 413C                     u5340 4586                     u5260 47C4  
                   u6220 1076                     u6140 0E04                     u6060 0A30  
                   u7100 1476                     u7020 13AE                     u6300 3DF2  
                   u5421 41FC                     u5501 4138                     u5341 4582  
                   u5261 47C0                     u6221 1072                     u6141 0E00  
                   u6061 0A2C                     u7101 1472                     u7021 13AA  
                   u6301 3DEE                     u6230 4744                     u5430 422E  
                   u5510 415A                     u5350 4444                     u5270 47E0  
                   u6150 0F16                     u6070 0B26                     u7110 1490  
                   u7030 13C8                     u6310 3E08                     u6231 4740  
                   u5431 422A                     u5511 4156                     u5351 4440  
                   u5271 47DC                     u6151 0F12                     u6071 0B22  
                   u7111 148C                     u7031 13C4                     u6311 3E04  
                   u5440 424C                     u5520 416A                     u5280 477A  
                   u5600 390A                     u6160 0F32                     u6080 0B42  
                   u7200 1572                     u7120 14AA                     u7040 13E2  
                   u6400 3EBC                     u6320 3E1A                     u6240 3D92  
                   u5441 4248                     u5521 4166                     u5281 4776  
                   u5601 3906                     u6161 0F2E                     u6081 0B3E  
                   u7201 156E                     u7121 14A6                     u7041 13DE  
                   u6401 3EB8                     u6321 3E16                     u6241 3D8E  
                   u5450 425C                     u5530 4182                     u5370 4486  
                   u5290 4796                     u5610 3932                     u6170 0F54  
                   u6090 0BB2                     u7210 1584                     u7130 14BC  
                   u7050 13F4                     u6410 3ECA                     u6330 3E28  
                   u6250 3DA0                     u5451 4258                     u5531 417E  
                   u5371 4482                     u5291 4792                     u5611 392E  
                   u6171 0F50                     u6091 0BAE                     u7211 1580  
                   u7131 14B8                     u7051 13F0                     u6411 3EC6  
                   u6331 3E24                     u6251 3D9C                     u5460 4274  
                   u5380 44AA                     u5364 445E                     u5700 3A50  
                   u5620 395A                     u5540 3846                     u6180 100C  
                   u7300 166E                     u7220 1594                     u7140 14D6  
                   u7060 140E                     u6500 344C                     u6420 3EE6  
                   u6340 3E36                     u6260 3DAE                     u5461 4270  
                   u5381 44A6                     u5365 445A                     u5701 3A4C  
                   u5621 3956                     u5541 3842                     u6181 1008  
                   u7301 166A                     u7221 1590                     u7141 14D2  
                   u7061 140A                     u6501 3448                     u6421 3EE2  
                   u6341 3E32                     u6261 3DAA                     u5470 40C6  
                   u5390 44D2                     u5710 3A7C                     u5630 396E  
                   u5550 385A                     u6190 1020                     u7310 1680  
                   u7230 15B0                     u7150 14E8                     u7070 1420  
                   u6510 345C                     u6430 3F06                     u6350 3E4C  
                   u6270 3DC4                     u5471 40C2                     u5391 44CE  
                   u5711 3A78                     u5631 396A                     u5551 3856  
                   u6191 101C                     u7311 167C                     u7231 15AC  
                   u7151 14E4                     u7071 141C                     u6511 3458  
                   u6431 3F02                     u6351 3E48                     u6271 3DC0  
                   u9000 1CCC                     u5800 43E8                     u5480 40E8  
                   u5720 3AA0                     u5640 398C                     u5560 3886  
                   u7400 175A                     u7320 169A                     u7240 15D2  
                   u7160 1502                     u7080 143A                     u6600 35D2  
                   u6520 3472                     u6440 3F22                     u6360 3E64  
                   u6280 3DD6                     u9001 1CC8                     u5801 43E4  
                   u5481 40E4                     u5721 3A9C                     u5641 3988  
                   u5561 3882                     u7401 1756                     u7321 1696  
                   u7241 15CE                     u7161 14FE                     u7081 1436  
                   u6601 35CE                     u6521 346E                     u6441 3F1E  
                   u6361 3E60                     u6281 3DD2                     u9010 1CE8  
                   u5810 440E                     u5490 410E                     u5730 3AB4  
                   u5650 39AC                     u5570 38AE                     u7410 176C  
                   u7330 16B2                     u7250 15EA                     u7170 151A  
                   u7090 1452                     u6610 3604                     u6530 3482  
                   u6450 3F42                     u6370 3E72                     u6290 3DE4  
                   u9011 1CE4                     u5811 440A                     u5491 410A  
                   u5731 3AB0                     u5651 39A8                     u5571 38AA  
                   u7411 1768                     u7331 16AE                     u7251 15E6  
                   u7171 1516                     u7091 144E                     u6611 3600  
                   u6531 347E                     u6451 3F3E                     u6371 3E6E  
                   u6291 3DE0                     u9100 1D78                     u9020 1CF8  
                   u8300 2EEE                     u5820 459A                     u5740 3AE6  
                   u5660 39C0                     u5580 38CA                     u5900 05D2  
                   u7500 184A                     u7420 177C                     u7340 16D6  
                   u7260 160E                     u7180 153E                     u6700 372A  
                   u6620 3620                     u6540 3492                     u6460 33FE  
                   u6380 3E8A                     u9101 1D74                     u9021 1CF4  
                   u8301 2EEA                     u5821 4596                     u5741 3AE2  
                   u5661 39BC                     u5581 38C6                     u5901 05CE  
                   u7501 1846                     u7421 1778                     u7341 16D2  
                   u7261 160A                     u7181 153A                     u6701 3726  
                   u6621 361C                     u6541 348E                     u6461 33FA  
                   u6381 3E86                     u9110 1D88                     u9030 1D08  
                   u8310 2F00                     u5830 45B4                     u5750 3B1C  
                   u5670 39DE                     u5590 38DE                     u5910 05E4  
                   u7510 1864                     u7430 1796                     u7350 16F0  
                   u7270 1628                     u7190 1558                     u6710 3748  
                   u6630 3642                     u6550 34A8                     u6470 3410  
                   u6390 3E98                     u9111 1D84                     u9031 1D04  
                   u8311 2EFC                     u5831 45B0                     u5751 3B18  
                   u5671 39DA                     u5591 38DA                     u5911 05E0  
                   u7511 1860                     u7431 1792                     u7351 16EC  
                   u7271 1624                     u7191 1554                     u6711 3744  
                   u6631 363E                     u6551 34A4                     u6471 340C  
                   u6391 3E94                     u9200 1E18                     u9120 1D98  
                   u9040 1D18                     u8400 2FD6                     u8320 2F16  
                   u5760 436E                     u5840 45CE                     u5680 3A0A  
                   u5920 0600                     u7600 194A                     u7520 1874  
                   u7440 17AE                     u7360 170A                     u7280 1642  
                   u6800 1192                     u6720 3766                     u6640 366A  
                   u6560 34CC                     u6480 3426                     u9201 1E14  
                   u9121 1D94                     u9041 1D14                     u8401 2FD2  
                   u8321 2F12                     u5761 436A                     u5841 45CA  
                   u5681 3A06                     u5921 05FC                     u7601 1946  
                   u7521 1870                     u7441 17AA                     u7361 1706  
                   u7281 163E                     u6801 118E                     u6721 3762  
                   u6641 3666                     u6561 34C8                     u6481 3422  
                   u9210 1E28                     u9130 1DA8                     u9050 1D28  
                   u8410 2FF0                     u8330 2F34                     u5770 4388  
                   u5850 45EC                     u5690 3A1E                     u5930 0636  
                   u7610 1964                     u7530 18A8                     u7450 17D2  
                   u7370 171C                     u7290 1654                     u6810 11A6  
                   u6730 37B2                     u6650 368E                     u6570 34EE  
                   u6490 3436                     u9211 1E24                     u9131 1DA4  
                   u9051 1D24                     u8411 2FEC                     u8331 2F30  
                   u5771 4384                     u5851 45E8                     u5691 3A1A  
                   u5931 0632                     u7611 1960                     u7531 18A4  
                   u7451 17CE                     u7371 1718                     u7291 1650  
                   u6811 11A2                     u6731 37AE                     u6651 368A  
                   u6571 34EA                     u6491 3432                     u9300 1F50  
                   u9220 1E38                     u9140 1DB8                     u9060 1D38  
                   u8500 310A                     u8420 300A                     u8340 2F4A  
                   u5780 43AE                     u5860 4602                     u5940 0652  
                   u7700 1A74                     u7620 197E                     u7540 18BC  
                   u7460 17EC                     u7380 172E                     u6900 1286  
                   u6820 11B8                     u6740 37CE                     u6660 36B6  
                   u6580 352A                     u9301 1F4C                     u9221 1E34  
                   u9141 1DB4                     u9061 1D34                     u8501 3106  
                   u8421 3006                     u8341 2F46                     u5781 43AA  
                   u5861 45FE                     u5941 064E                     u7701 1A70  
                   u7621 197A                     u7541 18B8                     u7461 17E8  
                   u7381 172A                     u6901 1282                     u6821 11B4  
                   u6741 37CA                     u6661 36B2                     u6581 3526  
                   u9310 1F6E                     u9230 1E7C                     u9150 1DC8  
                   u9070 1D48                     u8510 311E                     u8430 3020  
                   u8350 2F70                     u8270 2E94                     u5790 43CC  
                   u5870 4626                     u5950 0686                     u7710 1A8E  
                   u7630 199A                     u7550 18D2                     u7470 1806  
                   u7390 1748                     u6910 1298                     u6830 11DC  
                   u6750 1136                     u6670 36C8                     u6590 355C  
                   u9311 1F6A                     u9231 1E78                     u9151 1DC4  
                   u9071 1D44                     u8511 311A                     u8431 301C  
                   u8351 2F6C                     u8271 2E90                     u5791 43C8  
                   u5871 4622                     u5951 0682                     u7711 1A8A  
                   u7631 1996                     u7551 18CE                     u7471 1802  
                   u7391 1744                     u6911 1294                     u6831 11D8  
                   u6751 1132                     u6671 36C4                     u6591 3558  
                   u9400 20D6                     u9320 1F9C                     u9240 1EAC  
                   u9160 1DD8                     u9080 1D58                     u8600 3210  
                   u8520 3132                     u8440 3072                     u8360 2F84  
                   u8280 2EB0                     u5960 06A2                     u7800 3CA8  
                   u5880 4868                     u7720 1AA8                     u7640 19AC  
                   u7560 18E8                     u7480 1818                     u6920 12B2  
                   u6840 11EE                     u6760 114A                     u6680 36EE  
                   u9401 20D2                     u9321 1F98                     u9241 1EA8  
                   u9161 1DD4                     u9081 1D54                     u8601 320C  
                   u8521 312E                     u8441 306E                     u8361 2F80  
                   u8281 2EAC                     u5961 069E                     u7801 3CA4  
                   u5881 4864                     u7721 1AA4                     u7641 19A8  
                   u7561 18E4                     u7481 1814                     u6921 12AE  
                   u6841 11EA                     u6761 1146                     u6681 36EA  
                   u9410 20E6                     u9330 1FE2                     u9250 1EE0  
                   u9170 1DE8                     u9090 1D68                     u8610 3220  
                   u8530 3148                     u8450 3088                     u8370 2F98  
                   u8290 2ED8                     u5970 06E2                     u5890 059E  
                   u7810 3CB6                     u7730 1AF8                     u7650 19C4  
                   u7570 18FE                     u7490 1828                     u6930 12D2  
                   u6850 11FE                     u6770 1162                     u6690 3700  
                   u9411 20E2                     u9331 1FDE                     u9251 1EDC  
                   u9171 1DE4                     u9091 1D64                     u8611 321C  
                   u8531 3144                     u8451 3084                     u8371 2F94  
                   u8291 2ED4                     u5971 06DE                     u5891 059A  
                   u7811 3CB2                     u7731 1AF4                     u7651 19C0  
                   u7571 18FA                     u7491 1824                     u6931 12CE  
                   u6851 11FA                     u6771 115E                     u6691 36FC  
                   u9500 21F6                     u9420 2100                     u9340 1FFE  
                   u9260 1EF0                     u9180 1DF8                     u8700 3318  
                   u8620 3230                     u8540 315E                     u8460 309A  
                   u8380 2FAE                     u5980 06FE                     u7820 3CC4  
                   u7740 1B08                     u7660 19DA                     u7580 1914  
                   u6940 12E8                     u6860 1222                     u6780 1172  
                   u9501 21F2                     u9421 20FC                     u9341 1FFA  
                   u9261 1EEC                     u9181 1DF4                     u8701 3314  
                   u8621 322C                     u8541 315A                     u8461 3096  
                   u8381 2FAA                     u5981 06FA                     u7821 3CC0  
                   u7741 1B04                     u7661 19D6                     u7581 1910  
                   u6941 12E4                     u6861 121E                     u6781 116E  
                   u9510 221A                     u9430 211E                     u9350 203E  
                   u9270 1F00                     u9190 1E08                     u8710 3328  
                   u8630 3240                     u8550 3170                     u8470 30B0  
                   u8390 2FC4                     u5990 074A                     u7830 3CD8  
                   u7750 1B1A                     u7670 19F4                     u7590 192A  
                   u6950 1300                     u6870 124A                     u6790 1182  
                   u9511 2216                     u9431 211A                     u9351 203A  
                   u9271 1EFC                     u9191 1E04                     u8711 3324  
                   u8631 323C                     u8551 316C                     u8471 30AC  
                   u8391 2FC0                     u5991 0746                     u7831 3CD4  
                   u7751 1B16                     u7671 19F0                     u7591 1926  
                   u6951 12FC                     u6871 1246                     u6791 117E  
                   u9440 2146                     u9360 205A                     u9280 1F10  
                   u8800 1B8C                     u8720 3338                     u8640 3250  
                   u8560 318A                     u8480 30CE                     u7840 3CF6  
                   u7760 1B2C                     u7680 1A0E                     u6960 131A  
                   u6880 125A                     u9441 2142                     u9361 2056  
                   u9281 1F0C                     u8801 1B88                     u8721 3334  
                   u8641 324C                     u8561 3186                     u8481 30CA  
                   u7841 3CF2                     u7761 1B28                     u7681 1A0A  
                   u6961 1316                     u6881 1256                     u9450 2156  
                   u9370 207A                     u9290 1F22                     u8810 1B9C  
                   u8730 3348                     u8650 3294                     u8570 31A4  
                   u8490 30E4                     u7850 3D04                     u7770 1B56  
                   u7690 1A5E                     u6970 132C                     u6890 126C  
                   u9451 2152                     u9371 2076                     u9291 1F1E  
                   u8811 1B98                     u8731 3344                     u8651 3290  
                   u8571 31A0                     u8491 30E0                     u7851 3D00  
                   u7771 1B52                     u7691 1A5A                     u6971 1328  
                   u6891 1268                     u9460 2176                     u9380 20B6  
                   u8900 1C2C                     u8820 1BAC                     u8740 3358  
                   u8660 32A4                     u8580 31BA                     u7860 3D12  
                   u7780 3B88                     u6980 1346                     u9461 2172  
                   u9381 20B2                     u8901 1C28                     u8821 1BA8  
                   u8741 3354                     u8661 32A0                     u8581 31B6  
                   u7861 3D0E                     u7781 3B84                     u6981 1342  
                   u9470 219A                     u9390 20C6                     u8910 1C3C  
                   u8830 1BBC                     u8750 339C                     u8670 32B4  
                   u8590 3200                     u7870 3D20                     u7790 3BA4  
                   u6990 1358                     u9471 2196                     u9391 20C2  
                   u8911 1C38                     u8831 1BB8                     u8751 3398  
                   u8671 32B0                     u8591 31FC                     u7871 3D1C  
                   u7791 3BA0                     u6991 1354                     u9480 21C6  
                   u8920 1C4C                     u8840 1BCC                     u8760 33AC  
                   u8680 32C4                     u9481 21C2                     u8921 1C48  
                   u8841 1BC8                     u8761 33A8                     u8681 32C0  
                   u9490 21D6                     u8930 1C5C                     u8850 1BDC  
                   u8770 33BC                     u8690 32D4                     u9491 21D2  
                   u8931 1C58                     u8851 1BD8                     u8771 33B8  
                   u8691 32D0                     u8940 1C6C                     u8860 1BEC  
                   u8780 33CC                     u8941 1C68                     u8861 1BE8  
                   u8781 33C8                     u8950 1C7C                     u8870 1BFC  
                   u8790 1B7C                     u8951 1C78                     u8871 1BF8  
                   u8791 1B78                     u8960 1C8C                     u8880 1C0C  
                   u8961 1C88                     u8881 1C08                     u8970 1C9C  
                   u8890 1C1C                     u8971 1C98                     u8891 1C18  
                   u8980 1CAC                     u8981 1CA8                     u8990 1CBC  
                   u8991 1CB8                     _dig0 00D9                     _dig1 00D8  
                   _crc1 00A8                     _crc2 00A7                     _aux1 001A  
                   _aux2 0019                     _conv 3F58                     _main 2868  
                   _down 00E1                     _menu 111A                     _pass 002D  
                   _nsen 00CB                     _sens 00A9                     _poli 00A6  
                   fsr2h 000FDA                     indf1 000FE7                     indf2 000FDF  
                   fsr1l 000FE1                     fsr2l 000FD9                     btemp 0057  
                   prodh 000FF4                     prodl 000FF3                     start 057C  
           ___param_bank 000000                    l10331 0F9C                    l10341 4300  
                  l10333 10C6                    l10325 1A2A                    l10343 3038  
                  l10335 3B46                    l10327 1AC4                    l10345 31D2  
                  l10337 4012                    l10329 3BF4                    l10339 280E  
                  ?_conv 0041                    ?_main 0041                    ?_menu 0041  
        __end_of___awdiv 4420                    _EEADR 000FA9          __end_of___awmod 4638  
                  u11000 29A2                    u11001 299E                    u11010 29BC  
                  u11011 29B8                    u11100 2AA0                    u11020 29D2  
                  u11101 2A9C                    u11021 29CE                    u11110 2ACA  
                  u11030 2A02                    u11111 2AC6                    u11031 29FE  
                  u11200 2C6E                    u11120 2AE8                    u11040 2A32  
                  u11201 2C6A                    u11121 2AE4                    u11041 2A2E  
                  u11210 2C98                    u11130 2B22                    u11050 2A42  
                  u11211 2C94                    u11131 2B1E                    u11051 2A3E  
                  u10500 2270                    u11300 2D8C                    u11220 2CDA  
                  u11140 2B70                    u11060 2A54                    u10501 226C  
                  u11301 2D88                    u11221 2CD6                    u11141 2B6C  
                  u11061 2A50                    u10510 2284                    u11310 2DA0  
                  u11230 2CFC                    u11150 2B8E                    u11070 2A66  
                  u10511 2280                    u12007 0D26                    u11311 2D9C  
                  u11231 2CF8                    u11151 2B8A                    u11071 2A62  
                  u10600 2360                    u10520 2298                    u11400 2E54  
                  u11320 2DB0                    u11240 2D14                    u11160 2B9E  
                  u11080 2A78                    u10601 235C                    u10521 2294  
                  u12017 0D3E                    u11401 2E50                    u11321 2DAC  
                  u11241 2D10                    u11161 2B9A                    u11081 2A74  
                  u10610 2374                    u10530 22AC                    u11410 2E6C  
                  u11330 2DC8                    u11250 2D28                    u11170 2BD8  
                  u11090 2A8A                    u10611 2370                    u10531 22A8  
                  u12107 0E90                    u12027 0D86                    u11411 2E68  
                  u11331 2DC4                    u11251 2D24                    u11171 2BD4  
                  u11091 2A86                    u10700 247C                    u10620 23A6  
                  u10540 22BC                    u11340 2DDC                    u11260 2D38  
                  u11180 2C1E          ___awdiv@divisor 004B                    u10701 2478  
                  u10621 23A2                    u10541 22B8                    u12117 0EB2  
                  u12037 0DBA                    u11341 2DD8                    u11261 2D34  
                  u11181 2C1A                    u10710 24AA                    u10630 23B8  
                  u10550 22CC                    u11350 2DF4                    u11270 2D50  
                  u11190 2C44                    u10711 24A6                    u10631 23B4  
                  u10551 22C8                    u12207 4896                    u12127 0ED2  
                  u12047 0DD2                    u11351 2DF0                    u11271 2D4C  
                  u11191 2C40                    u10800 26C4                    u10720 24BA  
                  u10640 23D0                    u10560 22E8                    u11360 2E08  
                  u11280 2D64                    u10801 26C0                    u10721 24B6  
                  u10641 23CC                    u10561 22E4                    u12217 489E  
                  u12137 0EF4                    u12057 0DEA                    u11361 2E04  
                  u11281 2D60                    u10810 26D4                    u10730 24CE  
                  u10650 23E2                    u10570 232A                    u10490 2260  
                  u11370 2E18                    u11290 2D74                    u10811 26D0  
                  u10731 24CA                    u10651 23DE                    u10571 2326  
                  u10491 225C                    u12227 48AE                    u12147 4936  
                  u12067 0E1C                    u11507 06AC                    u11427 3DB0  
                  u11371 2E14                    u11291 2D70                    u10820 26F0  
                  u10740 24E4                    u10660 2400                    u10580 233A  
                  u11380 2E30                    u10900 28CE                    u10821 26EC  
                  u10741 24E0                    u10661 23FC                    u10581 2336  
                  u12237 48BC                    u12157 4944                    u12077 0E34  
                  u11517 06B8                    u11437 3DF4                    u11381 2E2C  
                  u10901 28CA                    u10830 2704                    u10750 24F4  
                  u10670 2414                    u10590 234A                    u11390 2E44  
                  u10910 28E0                    u10831 2700                    u10751 24F0  
                  u10671 2410                    u10591 2346                    u12247 48C4  
                  u12167 494C                    u12087 0E4C                    u11607 07F8  
                  u11527 06C4                    u11447 3E38                    u11391 2E40  
                  u10911 28DC                    u10840 2730                    u10760 2504  
                  u10680 2444                    u10920 28F8                    u10841 272C  
                  u10761 2500                    u10681 2440                    u12257 48D4  
                  u12177 4962                    u12097 0E64                    u11617 0810  
                  u11537 0708                    u11457 3CDE                    u10921 28F4  
                  u10850 2740                    u10770 2520                    u10690 2460  
                  u10930 290E                    u10851 273C                    u10771 251C  
                  u10691 245C                    u12267 48EA                    u12187 4970  
                  u11707 091A                    u11627 0828                    u11547 0714  
                  u11467 05B2                    u10931 290A                    u10860 27AE  
                  u10780 2646                    u10940 2928                    u10861 27AA  
                  u10781 2642                    u12277 48FA                    u12197 4978  
                  u11717 0932                    u11637 0840                    u11557 0720  
                  u11477 0618                    u10941 2924                    u10870 27C6  
                  u10790 265E                    u10950 293E                    u10871 27C2  
                  u10791 265A                    u12287 4910                    u11807 0A6E  
                  u11727 094A                    u11647 0876                    u11567 072C  
                  u11487 065C                    u10951 293A                    u10960 2950  
                  u10880 2890                    u12297 4920                    u11817 0A86  
                  u11737 0962                    u11657 088E                    u11577 078E  
                  u11497 0668                    u10961 294C                    u10881 288C  
                  u10970 2962                    u10890 28A0                    u11907 0BFA  
                  u11827 0AB0                    u11747 09AA                    u11667 08A6  
                  u11587 07A6                    u10971 295E                    u10891 289C  
                  u10980 297A                    u11917 0C12                    u11837 0AD2  
                  u11757 09DC                    u11677 08BE                    u11597 07BE  
                  u10981 2976                    u10990 2990                    u11927 0C4A  
                  u11847 0AF4                    u11767 09F4                    u11687 08D6  
                  u10991 298C                    u11937 0C62                    u11857 0B68  
                  u11777 0A0C                    u11697 0902                    u11947 0C7A  
                  u11867 0B80                    u11787 0A3E                    u11957 0C92  
                  u11877 0B98                    u11797 0A56                    u11967 0CAA  
                  u11887 0BCA                    u11977 0CDE                    u11897 0BE2  
                  u11987 0CF6                    u11997 0D0E                    i1l610 0286  
        ?_salidaPotencia 0041                    i1l604 017C                    i1l616 02D8  
                  i1l633 03F2                    i1l643 0556                    i1l644 0558  
                  i1l645 0564                    i1l594 0164                    i2l584 46BE  
                  i2l585 46C0                    i2l586 46D4          ___awdiv@counter 004D  
                  _TMR0H 000FD7                    _TMR1H 000FCF                    _TMR0L 000FD6  
                  _TMR1L 000FCE                    _PORTA 000F80                    _PORTB 000F81  
                  _PORTC 000F82                    _TRISA 000F92                    _TRISB 000F93  
                  _TRISC 000F94          __end_of_convBCD 4764          __end_of_display 2868  
                  _crc81 4190                    _crc82 409E                    _aux10 00B7  
                  _aux11 0015                    _aux20 00B6                    _aux21 0014  
                  _byte1 00A5                    _byte2 00A2                    _enter 009C  
                  _pass0 002C                    _pass1 002B                    _pass2 002A  
                  _myIsr 0008          __end_of_myLoIsr 057C                    _tecla 003F  
        __end_of_teclado 3F58          __end_of_wrCero1 4980          __end_of_wrCero2 4954  
                  tablat 000FF5          __end_of_wrEprom 486A               ds1820@nsen 004D  
                  ttemp5 0058                    ttemp6 005B                    ttemp7 005F  
                  status 000FD8                    wtemp8 0058          __initialization 47F8  
           __end_of_conv 409E             __end_of_main 2E78             __end_of_menu 1B60  
          _auxfallatemp1 00B4            _auxfallatemp2 00B3                   ??_conv 0049  
                 ??_main 0056                   ??_menu 004B            __activetblptr 000002  
                 ?_crc81 0049                   ?_crc82 0049                   ?_myIsr 0041  
                 _EEDATA 000FA8                   _EECON2 000FA7         ___awdiv@dividend 0049  
                 _ANSELA 000F38                   _ANSELB 000F39                   _ANSELC 000F3A  
         _conversionTemp 2E78                   i1l8601 01F6                   i1l8611 0224  
                 i1l8603 0202                   i1l8531 0056                   i1l8701 0448  
                 i1l8621 025A                   i1l8605 020A                   i1l8613 0228  
                 i1l8541 0098                   i1l8533 005E                   i1l8525 002E  
                 i1l8711 0488                   i1l8703 044A                   i1l8631 02A6  
                 i1l8615 0238                   i1l8607 0210                   i1l8623 025E  
                 i1l8551 00C4                   i1l8543 009A                   i1l8535 006A  
                 i1l8527 0034                   i1l8721 04B8                   i1l8713 0490  
                 i1l8641 02C6                   i1l8705 045A                   i1l8625 0262  
                 i1l8617 023E                   i1l8609 0216                   i1l8561 0100  
                 i1l8545 009C                   i1l8537 0086                   i1l8529 003A  
                 i1l8731 04E6                   i1l8723 04BE                   i1l8715 0496  
                 i1l8707 046C                   i1l8651 02F8                   i1l8643 02CC  
                 i1l8627 027E                   i1l8619 024A                   i1l8563 0106  
                 i1l8571 014E                   i1l8555 00DA                   i1l8547 00A0  
                 i1l8539 0096                   i1l8741 0510                   i1l8733 04EC  
                 i1l8725 04C4                   i1l8717 049C                   i1l8709 0482  
                 i1l8661 0338                   i1l8653 030A                   i1l8645 02DC  
                 i1l8637 02AA                   i1l8629 0296                   i1l8581 0182  
                 i1l8573 0150                   i1l8565 0116                   i1l8557 00EA  
                 i1l8549 00BC                   i1l8751 0562                   i1l8743 052C  
                 i1l8735 04F8                   i1l8727 04D2                   i1l8719 04B0  
                 i1l8671 036E                   i1l8663 0348                   i1l8655 031A  
                 i1l8647 02EE                   i1l8639 02B4                   i1l8591 01B8  
                 i1l8583 0196                   i1l8575 0160                   i1l8559 00F0  
                 i1l8745 0534                   i1l8737 0508                   i1l8729 04D6  
                 i1l8681 03B8                   i1l8673 037E                   i1l8665 0358  
                 i1l8657 032A                   i1l8585 019E                   i1l8577 0168  
                 i1l8569 011C                   i1l8747 0550                   i1l8739 050C  
                 i1l8691 03EE                   i1l8683 03C8                   i1l8675 0386  
                 i1l8667 035A                   i1l8659 0330                   i1l8587 01AE  
                 i1l8595 01BE                   i1l8749 055A                   i1l8693 0404  
                 i1l8685 03CA                   i1l8677 0398                   i1l8669 036C  
                 i1l8597 01D0                   i1l8589 01B6                   i1l8687 03DC  
                 i1l8679 03A8                   i1l8599 01E0                   i1l8689 03DE  
                 i1l8699 040E                   i2l8501 4638                   i2l8511 466C  
                 i2l8503 4646                   i2l8521 469A                   i2l8513 4682  
                 i2l8505 464C                   i2l8523 46B8                   i2l8507 4662  
                 i2l8515 4684                   i2l8517 468A                   i2l8509 4664  
                 i2l8519 468C                   _OFFSet 0027         __end_of_conv7Seg 435C  
                 _ds1820 3812                   _deciSP 0028                   ___wmul 486A  
              ??___awdiv 004D                ??___awmod 004D                   crc81@m 0049  
                 crc82@m 0049                   _alarma 1B60                   _digito 00D7  
                 _rdBit1 00AF                   _rdBit2 00AC         __end_of_readBit1 4928  
       __end_of_readBit2 4902                   _enteSP 00D5                   _offSet 002F  
                 clear_0 4816                   clear_1 4822                   _valMem 00DA  
       ___awdiv@quotient 004F                   _reset1 48B6                   _reset2 4890  
        ___awmod@divisor 004B                   _potSal 00CD                   isa$std 000001  
        ___awmod@counter 004D                   _wrUno1 4954                   _wrUno2 4928  
              ??_convBCD 0054                ??_display 00E3                ??_myLoIsr 0041  
              ??_teclado 0049                ??_wrCero1 0049                ??_wrCero2 0049  
                 tblptrh 000FF7                   tblptrl 000FF6                   tblptru 000FF8  
              ??_wrEprom 004A   __end_of_conversionTemp 33E2               __accesstop 0060  
__end_of__initialization 4828            ___rparam_used 000001        writeByte1@comando 0049  
      writeByte2@comando 0049          convBCD@puntoDec 0053           __pcstackCOMRAM 0041  
           __pidataBANK0 4980            __end_of_crc81 4282            __end_of_crc82 4190  
           _alarmaSenAUX 0096            __end_of_myIsr 46D8                  ??_crc81 004A  
                ??_crc82 004A          ?_conversionTemp 0041                  ??_myIsr 0041  
             __pbssBANK0 0060               _alarmLect1 0024               _alarmLect2 0023  
                ?_ds1820 004D                  ?___wmul 0049                  ?_alarma 0041  
       ??_salidaPotencia 0051               _crc_carry1 00A3               _crc_carry2 00A0  
                ?_reset1 0041                  ?_reset2 0041                  ?_wrUno1 0041  
                ?_wrUno2 0041                  i1l10347 0130                  i1l10349 0422  
                _CTRauto 003E                ?_conv7Seg 0041                  _SPFxBaj 003A  
                _SPFxAlt 0038                  _SPFxSen 003C               _lectScrat1 0069  
             _lectScrat2 0060                ?_readBit1 0041                ?_readBit2 0041  
         _inicializacion 3B6A                  _ManAuto 00BA                  __Hparam 0000  
                __Lparam 0000            ??_calibracion 0051                  ___awdiv 435C  
                ___awmod 4588                  _alarma1 001D                  _alarma2 001E  
                __pcinit 47F8                  _flagLED 00BB                  __ramtop 0600  
                _convBCD 46D8                  __ptext0 2868                  __ptext1 3D78  
                __ptext2 33E2                  __ptext3 486A                  __ptext4 111A  
                __ptext5 4836                  __ptext6 3B6A                  __ptext7 0580  
                __ptext8 3812                  __ptext9 4764                  _auxDisp 00C1  
                _rdByte1 00AD                  _rdByte2 00AA                  _display 2240  
                _auxPass 001F                _T0CONbits 000FD5        __end_of_readByte1 4588  
      __end_of_readByte2 44D4                  _offSet1 0021                  _offSet2 0022  
              _T1CONbits 000FCD               _parametros 0072                  _estable 00BF  
                _myLoIsr 0018                  _selMenu 0030         ___awmod@dividend 0049  
                _teclado 3D78                  _wrCero1 496A                  _wrCero2 493E  
                _tempAux 00B0                  _tempNeg 0035                  _wrByte1 00AE  
                _wrByte2 00AB               _setDefault 002E                  _wrEprom 4836  
             ??_conv7Seg 0049                  conv@dig 004B             _auxRSTsensor 00B5  
         __pintcode_body 4638   __end_of_inicializacion 3D78     end_of_initialization 4828  
             ??_readBit1 0049               ??_readBit2 0049                i1u1230_27 0198  
              i1u1231_27 01B0                i1u1240_27 049E                i1u1232_27 0204  
              i1u1241_27 04B2                i1u1233_27 0218            __Lmediumconst 0000  
              i1u1242_27 04C6                i1u1234_27 0240                i1u1243_27 04EE  
              i1u1235_27 02CE                i1u1236_27 0332                i1u1237_27 0362  
                int_func 4638                i1u1238_27 03D2                i1u1239_27 048A  
              i2u1244_47 4666               _resetWatch 009E                  postinc0 000FEE  
             convBCD@bcd 0054              wrEprom@dato 0049               _presencia1 0013  
             _presencia2 0012                _PORTAbits 000F80                _PORTBbits 000F81  
    __end_of_calibracion 111A          _salPotenciaAux0 00E0          _salPotenciaAux1 00DF  
          _decimalOffSet 00D3                _TRISAbits 000F92          ?_inicializacion 0041  
         __end_of_ds1820 3B6A               _writeByte1 47AE               _writeByte2 4764  
         __end_of___wmul 4890           __end_of_alarma 2240            _alarmaSen1AUX 0090  
          _alarmaSen2AUX 008E            _alarmaLampAux 0016            _alarmaLectura 00CE  
         __end_of_reset1 48DC           __end_of_reset2 48B6         ??_conversionTemp 0049  
         __end_of_wrUno1 496A           __end_of_wrUno2 493E            _alarmaSensor1 00BE  
          _alarmaSensor2 00BD      start_initialization 47F8            crc81@scratRom 004A  
          crc82@scratRom 004A               readByte1@m 0049               readByte2@m 0049  
               ??_ds1820 004E                 ??___wmul 004D                 ??_alarma 0049  
            _calibracion 0580              __pdataBANK0 00E7                 ??_reset1 0049  
               ??_reset2 0049                 ??_wrUno1 0049                 ??_wrUno2 0049  
            __pbssCOMRAM 0001            __pcstackBANK0 00E3              _alarmaFxBaj 003B  
            _alarmaFxAlt 0039              _alarmaLamp1 0018              _alarmaLamp2 0017  
            _alarmaFxSen 003D                _deciTemp1 00C9                _deciTemp2 00C7  
              __pintcode 0008                 ?___awdiv 0049                 ?___awmod 0049  
            ?_writeByte1 0041              ?_writeByte2 0041              __pintcodelo 0018  
               ?_convBCD 0051                _convTemp1 00C8                _convTemp2 00C6  
               ?_display 0041              _denominador 0098                 ?_myLoIsr 0041  
               ?_teclado 0041              _lect00scrat 00B2                 ?_wrCero1 0041  
               ?_wrCero2 0041                _auxoffSet 00CC                 ?_wrEprom 0049  
              _readByte1 44D4                _readByte2 4420          _pilotoAlarmaAUX 00BC  
        ds1820@operacion 0050           ___wmul@product 004D                 _IPR1bits 000F9F  
               _PIE1bits 000F9D                _setPotMan 0033                _tempDeci1 00C3  
              _tempDeci2 00C2                _operacion 00CA                 _PIR1bits 000F9E  
               i1u960_20 00D6                 i1u960_21 00D2                 i1u961_20 00EA  
               i1u961_21 00E6                 i1u970_20 025A                 i1u962_20 0100  
               i1u970_21 0256                 i1u962_21 00FC                 i1u971_20 027E  
               i1u963_20 0116                 i1u971_21 027A                 i1u963_21 0112  
               i1u980_20 0358                 i1u972_20 0296                 i1u964_20 0160  
               i1u980_21 0354                 i1u972_21 0292                 i1u964_21 015C  
               i1u981_20 037E                 i1u973_20 02A6                 i1u965_20 0178  
               i1u957_20 0056                 i1u981_21 037A                 i1u973_21 02A2  
               i1u965_21 0174                 i1u957_21 0052                 i1u990_20 0482  
               i1u982_20 0398                 i1u974_20 02C6                 i1u966_20 01D0  
               i1u958_20 0086                 i1u990_21 047E                 i1u982_21 0394  
               i1u974_21 02C2                 i1u966_21 01CC                 i1u958_21 0082  
               i1u991_20 04E6                 i1u983_20 03A8                 i1u975_20 02EE  
               i1u967_20 01E0                 i1u959_20 00BC                 i1u991_21 04E2  
               i1u983_21 03A4                 i1u975_21 02EA                 i1u967_21 01DC  
               i1u959_21 00B8                 i1u992_20 0508                 i1u984_20 03B8  
               i1u976_20 030A                 i1u968_20 01F6                 i1u992_21 0504  
               i1u984_21 03B4                 i1u976_21 0306                 i1u968_21 01F2  
               i1u993_20 052C                 i1u985_20 03C8                 i1u977_20 031A  
               i1u969_20 0238                 i1u993_21 0528                 i1u985_21 03C4  
               i1u977_21 0316                 i1u969_21 0234                 i1u994_20 0550  
               i1u986_20 03EE                 i1u978_20 032A                 i1u994_21 054C  
               i1u986_21 03EA                 i1u978_21 0326                 i1u987_20 0404  
               i1u979_20 0348                 i1u987_21 0400                 i1u979_21 0344  
               i1u988_20 045A                 i1u988_21 0456                 i1u989_20 046C  
               i1u989_21 0468                 i2u952_40 4646                 i2u952_41 4642  
               i2u953_40 4662                 i2u953_41 465E                 i2u954_40 4682  
               i2u954_41 467E                 i2u955_40 469A                 i2u955_41 4696  
               i2u956_40 46B8                 i2u956_41 46B4                 _RCONbits 000FD0  
             wrEprom@dir 004A           _salPotenciaAux 009A        ___wmul@multiplier 0049  
       ??_inicializacion 0053               ?_readByte1 0049               ?_readByte2 0049  
            _conversion1 0094              _conversion2 0092              _INTCON2bits 000FF1  
            _lectffscrat 00B1          _pilotoSensorAUX 00B9               _EECON1bits 000FA6  
               __Hrparam 0000                 __Lrparam 0000              _byte_carry1 00A4  
            _byte_carry2 00A1             _tempAnterior 00D0                 __ptext10 4928  
               __ptext11 493E                 __ptext20 4902                 __ptext12 47AE  
               __ptext21 409E                 __ptext13 4954                 __ptext30 1B60  
               __ptext22 4190                 __ptext14 496A                 __ptext23 3F58  
               __ptext15 4890                 __ptext24 2240                 __ptext16 48B6  
               __ptext25 46D8                 __ptext17 4420                 __ptext26 4282  
               __ptext18 48DC                 __ptext27 4588                 __ptext19 44D4  
               __ptext28 435C                 __ptext29 2E78                 _conv7Seg 4282  
           _tempDisplay1 00D4             _pilotoAlarma 00DB              _salPotencia 000B  
               _lectRom1 0082                 _lectRom2 007A             _pilotoSensor 00DC  
               _lectura1 001C                 _lectura2 001B                 _readBit1 4902  
               _readBit2 48DC                 _teclaAUX 00B8                 _setPoint 0040  
               _tempNeg1 00C5                 _tempNeg2 00C4                 _tempSpPv 00DE  
               _tempProm 00CF                 isa$xinst 000000                 int$flags 0057  
           ?_calibracion 0041               _INTCONbits 000FF2      _salPotenciaAnterior 0031  
           _tiempoAlarma 008A              ??_readByte1 004A              ??_readByte2 004A  
           convBCD@dignn 0052                 myLoIsr@a 0048              _setPointAUX 0034  
               intlevel1 0000                 intlevel2 0000              _tempDecimal 0036  
            _tempDisplay 0037              _tempMuestra 0032             ??_writeByte1 0049  
           ??_writeByte2 0049              convBCD@dign 0051           _salidaPotencia 33E2  
            conv7Seg@dig 004B        readByte1@scratRom 004C               _WDTCONbits 000FD1  
      readByte2@scratRom 004C       __end_of_writeByte1 47F8       __end_of_writeByte2 47AE  
